Archive member included to satisfy reference by file (symbol)

/opt/gcc-arm-none-eabi-5_4-2016q3/bin/../lib/gcc/arm-none-eabi/5.4.1/../../../../arm-none-eabi/lib/armv7e-m/fpu/libc_nano.a(lib_a-atoi.o)
                              obj/main/SPRACINGF3/io/serial_cli.o (symbol from plugin) (atoi)
/opt/gcc-arm-none-eabi-5_4-2016q3/bin/../lib/gcc/arm-none-eabi/5.4.1/../../../../arm-none-eabi/lib/armv7e-m/fpu/libc_nano.a(lib_a-locale.o)
                              obj/main/SPRACINGF3/io/serial_cli.o (symbol from plugin) (__locale_ctype_ptr)
/opt/gcc-arm-none-eabi-5_4-2016q3/bin/../lib/gcc/arm-none-eabi/5.4.1/../../../../arm-none-eabi/lib/armv7e-m/fpu/libc_nano.a(lib_a-mbtowc_r.o)
                              /opt/gcc-arm-none-eabi-5_4-2016q3/bin/../lib/gcc/arm-none-eabi/5.4.1/../../../../arm-none-eabi/lib/armv7e-m/fpu/libc_nano.a(lib_a-locale.o) (__ascii_mbtowc)
/opt/gcc-arm-none-eabi-5_4-2016q3/bin/../lib/gcc/arm-none-eabi/5.4.1/../../../../arm-none-eabi/lib/armv7e-m/fpu/libc_nano.a(lib_a-strcmp.o)
                              /opt/gcc-arm-none-eabi-5_4-2016q3/bin/../lib/gcc/arm-none-eabi/5.4.1/../../../../arm-none-eabi/lib/armv7e-m/fpu/libc_nano.a(lib_a-locale.o) (strcmp)
/opt/gcc-arm-none-eabi-5_4-2016q3/bin/../lib/gcc/arm-none-eabi/5.4.1/../../../../arm-none-eabi/lib/armv7e-m/fpu/libc_nano.a(lib_a-strtok_r.o)
                              obj/main/SPRACINGF3/io/serial_cli.o (symbol from plugin) (strtok_r)
/opt/gcc-arm-none-eabi-5_4-2016q3/bin/../lib/gcc/arm-none-eabi/5.4.1/../../../../arm-none-eabi/lib/armv7e-m/fpu/libc_nano.a(lib_a-strtol.o)
                              /opt/gcc-arm-none-eabi-5_4-2016q3/bin/../lib/gcc/arm-none-eabi/5.4.1/../../../../arm-none-eabi/lib/armv7e-m/fpu/libc_nano.a(lib_a-atoi.o) (_strtol_r)
/opt/gcc-arm-none-eabi-5_4-2016q3/bin/../lib/gcc/arm-none-eabi/5.4.1/../../../../arm-none-eabi/lib/armv7e-m/fpu/libc_nano.a(lib_a-wctomb_r.o)
                              /opt/gcc-arm-none-eabi-5_4-2016q3/bin/../lib/gcc/arm-none-eabi/5.4.1/../../../../arm-none-eabi/lib/armv7e-m/fpu/libc_nano.a(lib_a-locale.o) (__ascii_wctomb)
/opt/gcc-arm-none-eabi-5_4-2016q3/bin/../lib/gcc/arm-none-eabi/5.4.1/../../../../arm-none-eabi/lib/armv7e-m/fpu/libc_nano.a(lib_a-ctype_.o)
                              /opt/gcc-arm-none-eabi-5_4-2016q3/bin/../lib/gcc/arm-none-eabi/5.4.1/../../../../arm-none-eabi/lib/armv7e-m/fpu/libc_nano.a(lib_a-locale.o) (_ctype_)
/opt/gcc-arm-none-eabi-5_4-2016q3/bin/../lib/gcc/arm-none-eabi/5.4.1/../../../../arm-none-eabi/lib/armv7e-m/fpu/libc_nano.a(lib_a-impure.o)
                              /opt/gcc-arm-none-eabi-5_4-2016q3/bin/../lib/gcc/arm-none-eabi/5.4.1/../../../../arm-none-eabi/lib/armv7e-m/fpu/libc_nano.a(lib_a-locale.o) (_impure_ptr)
/opt/gcc-arm-none-eabi-5_4-2016q3/bin/../lib/gcc/arm-none-eabi/5.4.1/../../../../arm-none-eabi/lib/armv7e-m/fpu/libm.a(lib_a-sf_lrint.o)
                              /var/folders/qz/8dvj07d52mjgthd1ds8wvf400000gn/T//ccg5ycur.ltrans4.ltrans.o (lrintf)
/opt/gcc-arm-none-eabi-5_4-2016q3/bin/../lib/gcc/arm-none-eabi/5.4.1/../../../../arm-none-eabi/lib/armv7e-m/fpu/libm.a(lib_a-w_pow.o)
                              /var/folders/qz/8dvj07d52mjgthd1ds8wvf400000gn/T//ccg5ycur.ltrans11.ltrans.o (pow)
/opt/gcc-arm-none-eabi-5_4-2016q3/bin/../lib/gcc/arm-none-eabi/5.4.1/../../../../arm-none-eabi/lib/armv7e-m/fpu/libm.a(lib_a-wf_sqrt.o)
                              /var/folders/qz/8dvj07d52mjgthd1ds8wvf400000gn/T//ccg5ycur.ltrans4.ltrans.o (sqrtf)
/opt/gcc-arm-none-eabi-5_4-2016q3/bin/../lib/gcc/arm-none-eabi/5.4.1/../../../../arm-none-eabi/lib/armv7e-m/fpu/libm.a(lib_a-e_pow.o)
                              /opt/gcc-arm-none-eabi-5_4-2016q3/bin/../lib/gcc/arm-none-eabi/5.4.1/../../../../arm-none-eabi/lib/armv7e-m/fpu/libm.a(lib_a-w_pow.o) (__ieee754_pow)
/opt/gcc-arm-none-eabi-5_4-2016q3/bin/../lib/gcc/arm-none-eabi/5.4.1/../../../../arm-none-eabi/lib/armv7e-m/fpu/libm.a(lib_a-e_sqrt.o)
                              /opt/gcc-arm-none-eabi-5_4-2016q3/bin/../lib/gcc/arm-none-eabi/5.4.1/../../../../arm-none-eabi/lib/armv7e-m/fpu/libm.a(lib_a-e_pow.o) (__ieee754_sqrt)
/opt/gcc-arm-none-eabi-5_4-2016q3/bin/../lib/gcc/arm-none-eabi/5.4.1/../../../../arm-none-eabi/lib/armv7e-m/fpu/libm.a(lib_a-ef_sqrt.o)
                              /opt/gcc-arm-none-eabi-5_4-2016q3/bin/../lib/gcc/arm-none-eabi/5.4.1/../../../../arm-none-eabi/lib/armv7e-m/fpu/libm.a(lib_a-wf_sqrt.o) (__ieee754_sqrtf)
/opt/gcc-arm-none-eabi-5_4-2016q3/bin/../lib/gcc/arm-none-eabi/5.4.1/../../../../arm-none-eabi/lib/armv7e-m/fpu/libm.a(lib_a-s_fabs.o)
                              /opt/gcc-arm-none-eabi-5_4-2016q3/bin/../lib/gcc/arm-none-eabi/5.4.1/../../../../arm-none-eabi/lib/armv7e-m/fpu/libm.a(lib_a-e_pow.o) (fabs)
/opt/gcc-arm-none-eabi-5_4-2016q3/bin/../lib/gcc/arm-none-eabi/5.4.1/../../../../arm-none-eabi/lib/armv7e-m/fpu/libm.a(lib_a-s_finite.o)
                              /opt/gcc-arm-none-eabi-5_4-2016q3/bin/../lib/gcc/arm-none-eabi/5.4.1/../../../../arm-none-eabi/lib/armv7e-m/fpu/libm.a(lib_a-w_pow.o) (finite)
/opt/gcc-arm-none-eabi-5_4-2016q3/bin/../lib/gcc/arm-none-eabi/5.4.1/../../../../arm-none-eabi/lib/armv7e-m/fpu/libm.a(lib_a-s_lib_ver.o)
                              /opt/gcc-arm-none-eabi-5_4-2016q3/bin/../lib/gcc/arm-none-eabi/5.4.1/../../../../arm-none-eabi/lib/armv7e-m/fpu/libm.a(lib_a-w_pow.o) (__fdlib_version)
/opt/gcc-arm-none-eabi-5_4-2016q3/bin/../lib/gcc/arm-none-eabi/5.4.1/../../../../arm-none-eabi/lib/armv7e-m/fpu/libm.a(lib_a-s_matherr.o)
                              /opt/gcc-arm-none-eabi-5_4-2016q3/bin/../lib/gcc/arm-none-eabi/5.4.1/../../../../arm-none-eabi/lib/armv7e-m/fpu/libm.a(lib_a-w_pow.o) (matherr)
/opt/gcc-arm-none-eabi-5_4-2016q3/bin/../lib/gcc/arm-none-eabi/5.4.1/../../../../arm-none-eabi/lib/armv7e-m/fpu/libm.a(lib_a-s_nan.o)
                              /opt/gcc-arm-none-eabi-5_4-2016q3/bin/../lib/gcc/arm-none-eabi/5.4.1/../../../../arm-none-eabi/lib/armv7e-m/fpu/libm.a(lib_a-e_pow.o) (nan)
/opt/gcc-arm-none-eabi-5_4-2016q3/bin/../lib/gcc/arm-none-eabi/5.4.1/../../../../arm-none-eabi/lib/armv7e-m/fpu/libm.a(lib_a-s_rint.o)
                              /opt/gcc-arm-none-eabi-5_4-2016q3/bin/../lib/gcc/arm-none-eabi/5.4.1/../../../../arm-none-eabi/lib/armv7e-m/fpu/libm.a(lib_a-w_pow.o) (rint)
/opt/gcc-arm-none-eabi-5_4-2016q3/bin/../lib/gcc/arm-none-eabi/5.4.1/../../../../arm-none-eabi/lib/armv7e-m/fpu/libm.a(lib_a-s_scalbn.o)
                              /opt/gcc-arm-none-eabi-5_4-2016q3/bin/../lib/gcc/arm-none-eabi/5.4.1/../../../../arm-none-eabi/lib/armv7e-m/fpu/libm.a(lib_a-e_pow.o) (scalbn)
/opt/gcc-arm-none-eabi-5_4-2016q3/bin/../lib/gcc/arm-none-eabi/5.4.1/../../../../arm-none-eabi/lib/armv7e-m/fpu/libm.a(lib_a-s_copysign.o)
                              /opt/gcc-arm-none-eabi-5_4-2016q3/bin/../lib/gcc/arm-none-eabi/5.4.1/../../../../arm-none-eabi/lib/armv7e-m/fpu/libm.a(lib_a-s_scalbn.o) (copysign)
/opt/gcc-arm-none-eabi-5_4-2016q3/bin/../lib/gcc/arm-none-eabi/5.4.1/../../../../arm-none-eabi/lib/armv7e-m/fpu/libc_nano.a(lib_a-errno.o)
                              /opt/gcc-arm-none-eabi-5_4-2016q3/bin/../lib/gcc/arm-none-eabi/5.4.1/../../../../arm-none-eabi/lib/armv7e-m/fpu/libm.a(lib_a-w_pow.o) (__errno)
/opt/gcc-arm-none-eabi-5_4-2016q3/bin/../lib/gcc/arm-none-eabi/5.4.1/../../../../arm-none-eabi/lib/armv7e-m/fpu/libc_nano.a(lib_a-memcmp.o)
                              /var/folders/qz/8dvj07d52mjgthd1ds8wvf400000gn/T//ccg5ycur.ltrans13.ltrans.o (memcmp)
/opt/gcc-arm-none-eabi-5_4-2016q3/bin/../lib/gcc/arm-none-eabi/5.4.1/../../../../arm-none-eabi/lib/armv7e-m/fpu/libc_nano.a(lib_a-memcpy-stub.o)
                              /var/folders/qz/8dvj07d52mjgthd1ds8wvf400000gn/T//ccg5ycur.ltrans7.ltrans.o (memcpy)
/opt/gcc-arm-none-eabi-5_4-2016q3/bin/../lib/gcc/arm-none-eabi/5.4.1/../../../../arm-none-eabi/lib/armv7e-m/fpu/libc_nano.a(lib_a-memmove.o)
                              /var/folders/qz/8dvj07d52mjgthd1ds8wvf400000gn/T//ccg5ycur.ltrans7.ltrans.o (memmove)
/opt/gcc-arm-none-eabi-5_4-2016q3/bin/../lib/gcc/arm-none-eabi/5.4.1/../../../../arm-none-eabi/lib/armv7e-m/fpu/libc_nano.a(lib_a-memset.o)
                              /var/folders/qz/8dvj07d52mjgthd1ds8wvf400000gn/T//ccg5ycur.ltrans0.ltrans.o (memset)
/opt/gcc-arm-none-eabi-5_4-2016q3/bin/../lib/gcc/arm-none-eabi/5.4.1/../../../../arm-none-eabi/lib/armv7e-m/fpu/libc_nano.a(lib_a-strcasecmp.o)
                              /var/folders/qz/8dvj07d52mjgthd1ds8wvf400000gn/T//ccg5ycur.ltrans5.ltrans.o (strcasecmp)
/opt/gcc-arm-none-eabi-5_4-2016q3/bin/../lib/gcc/arm-none-eabi/5.4.1/../../../../arm-none-eabi/lib/armv7e-m/fpu/libc_nano.a(lib_a-strcat.o)
                              /var/folders/qz/8dvj07d52mjgthd1ds8wvf400000gn/T//ccg5ycur.ltrans7.ltrans.o (strcat)
/opt/gcc-arm-none-eabi-5_4-2016q3/bin/../lib/gcc/arm-none-eabi/5.4.1/../../../../arm-none-eabi/lib/armv7e-m/fpu/libc_nano.a(lib_a-strchr.o)
                              /var/folders/qz/8dvj07d52mjgthd1ds8wvf400000gn/T//ccg5ycur.ltrans5.ltrans.o (strchr)
/opt/gcc-arm-none-eabi-5_4-2016q3/bin/../lib/gcc/arm-none-eabi/5.4.1/../../../../arm-none-eabi/lib/armv7e-m/fpu/libc_nano.a(lib_a-strlen.o)
                              /var/folders/qz/8dvj07d52mjgthd1ds8wvf400000gn/T//ccg5ycur.ltrans1.ltrans.o (strlen)
/opt/gcc-arm-none-eabi-5_4-2016q3/bin/../lib/gcc/arm-none-eabi/5.4.1/../../../../arm-none-eabi/lib/armv7e-m/fpu/libc_nano.a(lib_a-strncasecmp.o)
                              /var/folders/qz/8dvj07d52mjgthd1ds8wvf400000gn/T//ccg5ycur.ltrans5.ltrans.o (strncasecmp)
/opt/gcc-arm-none-eabi-5_4-2016q3/bin/../lib/gcc/arm-none-eabi/5.4.1/../../../../arm-none-eabi/lib/armv7e-m/fpu/libc_nano.a(lib_a-strncpy.o)
                              /var/folders/qz/8dvj07d52mjgthd1ds8wvf400000gn/T//ccg5ycur.ltrans7.ltrans.o (strncpy)
/opt/gcc-arm-none-eabi-5_4-2016q3/bin/../lib/gcc/arm-none-eabi/5.4.1/../../../../arm-none-eabi/lib/armv7e-m/fpu/libc_nano.a(lib_a-strstr.o)
                              /var/folders/qz/8dvj07d52mjgthd1ds8wvf400000gn/T//ccg5ycur.ltrans16.ltrans.o (strstr)
/opt/gcc-arm-none-eabi-5_4-2016q3/bin/../lib/gcc/arm-none-eabi/5.4.1/armv7e-m/fpu/libgcc.a(_arm_addsubdf3.o)
                              /var/folders/qz/8dvj07d52mjgthd1ds8wvf400000gn/T//ccg5ycur.ltrans11.ltrans.o (__aeabi_dsub)
/opt/gcc-arm-none-eabi-5_4-2016q3/bin/../lib/gcc/arm-none-eabi/5.4.1/armv7e-m/fpu/libgcc.a(_arm_muldivdf3.o)
                              /var/folders/qz/8dvj07d52mjgthd1ds8wvf400000gn/T//ccg5ycur.ltrans11.ltrans.o (__aeabi_dmul)
/opt/gcc-arm-none-eabi-5_4-2016q3/bin/../lib/gcc/arm-none-eabi/5.4.1/armv7e-m/fpu/libgcc.a(_arm_cmpdf2.o)
                              /opt/gcc-arm-none-eabi-5_4-2016q3/bin/../lib/gcc/arm-none-eabi/5.4.1/../../../../arm-none-eabi/lib/armv7e-m/fpu/libm.a(lib_a-w_pow.o) (__aeabi_dcmpeq)
/opt/gcc-arm-none-eabi-5_4-2016q3/bin/../lib/gcc/arm-none-eabi/5.4.1/armv7e-m/fpu/libgcc.a(_arm_unorddf2.o)
                              /opt/gcc-arm-none-eabi-5_4-2016q3/bin/../lib/gcc/arm-none-eabi/5.4.1/../../../../arm-none-eabi/lib/armv7e-m/fpu/libm.a(lib_a-w_pow.o) (__aeabi_dcmpun)
/opt/gcc-arm-none-eabi-5_4-2016q3/bin/../lib/gcc/arm-none-eabi/5.4.1/armv7e-m/fpu/libgcc.a(_arm_truncdfsf2.o)
                              /var/folders/qz/8dvj07d52mjgthd1ds8wvf400000gn/T//ccg5ycur.ltrans11.ltrans.o (__aeabi_d2f)
/opt/gcc-arm-none-eabi-5_4-2016q3/bin/../lib/gcc/arm-none-eabi/5.4.1/armv7e-m/fpu/libgcc.a(_aeabi_ldivmod.o)
                              /var/folders/qz/8dvj07d52mjgthd1ds8wvf400000gn/T//ccg5ycur.ltrans12.ltrans.o (__aeabi_ldivmod)
/opt/gcc-arm-none-eabi-5_4-2016q3/bin/../lib/gcc/arm-none-eabi/5.4.1/armv7e-m/fpu/libgcc.a(_popcountsi2.o)
                              /var/folders/qz/8dvj07d52mjgthd1ds8wvf400000gn/T//ccg5ycur.ltrans10.ltrans.o (__popcountsi2)
/opt/gcc-arm-none-eabi-5_4-2016q3/bin/../lib/gcc/arm-none-eabi/5.4.1/armv7e-m/fpu/libgcc.a(_udivmoddi4.o)
                              /opt/gcc-arm-none-eabi-5_4-2016q3/bin/../lib/gcc/arm-none-eabi/5.4.1/armv7e-m/fpu/libgcc.a(_aeabi_ldivmod.o) (__udivmoddi4)
/opt/gcc-arm-none-eabi-5_4-2016q3/bin/../lib/gcc/arm-none-eabi/5.4.1/armv7e-m/fpu/libgcc.a(_dvmd_tls.o)
                              /opt/gcc-arm-none-eabi-5_4-2016q3/bin/../lib/gcc/arm-none-eabi/5.4.1/armv7e-m/fpu/libgcc.a(_aeabi_ldivmod.o) (__aeabi_ldiv0)

Allocating common symbols
Common symbol       size              file

airplaneConfig_System
                    0x1               obj/main/SPRACINGF3/flight/altitudehold.o (symbol from plugin)
timerChannelInfo    0x11              obj/main/SPRACINGF3/drivers/timer.o (symbol from plugin)
ITermLimit          0xc               obj/main/SPRACINGF3/flight/pid.o (symbol from plugin)
rateProfileSelection_ProfileCurrent
                    0x4               obj/main/SPRACINGF3/fc/rate_profile.o (symbol from plugin)
yawFilter           0xc               obj/main/SPRACINGF3/flight/pid.o (symbol from plugin)
baro_cf_alt         0x4               obj/main/SPRACINGF3/sensors/sonar.o (symbol from plugin)
softSerialPorts     0x4a0             obj/main/SPRACINGF3/drivers/serial_softserial.o (symbol from plugin)
LEDBuf              0x1               obj/main/SPRACINGF3/drivers/led.o (symbol from plugin)
filteredCycleTime   0x2               obj/main/SPRACINGF3/fc/cleanflight_fc.o (symbol from plugin)
telemTemperature1   0x2               obj/main/SPRACINGF3/fc/cleanflight_fc.o (symbol from plugin)
rcRaw               0x24              obj/main/SPRACINGF3/rx/rx.o (symbol from plugin)
rcInvalidPulsPeriod
                    0x48              obj/main/SPRACINGF3/rx/rx.o (symbol from plugin)
ledStripDMABuffer   0x32a             obj/main/SPRACINGF3/drivers/light_ws2811strip.o (symbol from plugin)
inputSource_e       0x1               obj/main/SPRACINGF3/fc/boot.o (symbol from plugin)
timerInfo           0x7               obj/main/SPRACINGF3/drivers/timer.o (symbol from plugin)
ITermLimitf         0xc               obj/main/SPRACINGF3/flight/pid.o (symbol from plugin)
magHold             0x2               obj/main/SPRACINGF3/fc/cleanflight_fc.o (symbol from plugin)
deltaFilter         0x24              obj/main/SPRACINGF3/flight/pid.o (symbol from plugin)
sensorSelectionConfig_System
                    0x3               obj/main/SPRACINGF3/sensors/sensors.o (symbol from plugin)
magADCRaw           0x6               obj/main/SPRACINGF3/sensors/compass.o (symbol from plugin)
mpuIntCallbackRec   0x4               obj/main/SPRACINGF3/drivers/accgyro_mpu.o (symbol from plugin)
baro                0x18              obj/main/SPRACINGF3/sensors/barometer.o (symbol from plugin)
led_config          0x18              obj/main/SPRACINGF3/drivers/light_led_stm32f30x.o (symbol from plugin)
TXData              0x20              obj/main/SPRACINGF3/drivers/nrf2401.o (symbol from plugin)
pwmRxConfig_System  0x1               obj/main/SPRACINGF3/fc/boot.o (symbol from plugin)
dynI8               0x3               obj/main/SPRACINGF3/flight/pid_mw23.o (symbol from plugin)
LEDCtrl             0x4               obj/main/SPRACINGF3/drivers/led.o (symbol from plugin)
sensorTrims_System  0xc               obj/main/SPRACINGF3/sensors/sensors.o (symbol from plugin)
sectionTimes        0x20              obj/main/SPRACINGF3/build/debug.o (symbol from plugin)
systemConfig_System
                    0x2               obj/main/SPRACINGF3/fc/boot.o (symbol from plugin)
customMixers        0x4               obj/main/SPRACINGF3/flight/mixer.o (symbol from plugin)
cachedRccCsrValue   0x4               obj/main/SPRACINGF3/drivers/system.o (symbol from plugin)
baro_cf_vel         0x4               obj/main/SPRACINGF3/sensors/sonar.o (symbol from plugin)
mag                 0x8               obj/main/SPRACINGF3/sensors/compass.o (symbol from plugin)

Discarded input sections

 .text          0x0000000000000000       0x14 obj/main/SPRACINGF3/startup_stm32f30x_md_gcc.o
 .data          0x0000000000000000        0x0 obj/main/SPRACINGF3/startup_stm32f30x_md_gcc.o
 .bss           0x0000000000000000        0x0 obj/main/SPRACINGF3/startup_stm32f30x_md_gcc.o
 .text          0x0000000000000000        0x0 obj/main/SPRACINGF3/target/system_stm32f30x.o (symbol from plugin)
 .text          0x0000000000000000        0x0 /var/folders/qz/8dvj07d52mjgthd1ds8wvf400000gn/T//ccg5ycur.ltrans0.ltrans.o
 .data          0x0000000000000000        0x0 /var/folders/qz/8dvj07d52mjgthd1ds8wvf400000gn/T//ccg5ycur.ltrans0.ltrans.o
 .data          0x0000000000000000       0x10 /var/folders/qz/8dvj07d52mjgthd1ds8wvf400000gn/T//ccg5ycur.ltrans3.ltrans.o
 .data          0x0000000000000000        0x0 /var/folders/qz/8dvj07d52mjgthd1ds8wvf400000gn/T//ccg5ycur.ltrans4.ltrans.o
 .data          0x0000000000000000        0x0 /var/folders/qz/8dvj07d52mjgthd1ds8wvf400000gn/T//ccg5ycur.ltrans5.ltrans.o
 .rodata        0x0000000000000000        0x4 /var/folders/qz/8dvj07d52mjgthd1ds8wvf400000gn/T//ccg5ycur.ltrans7.ltrans.o
 .data          0x0000000000000000        0x0 /var/folders/qz/8dvj07d52mjgthd1ds8wvf400000gn/T//ccg5ycur.ltrans8.ltrans.o
 .data          0x0000000000000000        0x0 /var/folders/qz/8dvj07d52mjgthd1ds8wvf400000gn/T//ccg5ycur.ltrans10.ltrans.o
 .data          0x0000000000000000        0x0 /var/folders/qz/8dvj07d52mjgthd1ds8wvf400000gn/T//ccg5ycur.ltrans12.ltrans.o
 .data          0x0000000000000000        0x0 /var/folders/qz/8dvj07d52mjgthd1ds8wvf400000gn/T//ccg5ycur.ltrans15.ltrans.o
 .data          0x0000000000000000        0x0 /var/folders/qz/8dvj07d52mjgthd1ds8wvf400000gn/T//ccg5ycur.ltrans17.ltrans.o
 .bss           0x0000000000000000        0x0 /var/folders/qz/8dvj07d52mjgthd1ds8wvf400000gn/T//ccg5ycur.ltrans17.ltrans.o
 .data          0x0000000000000000        0x0 /var/folders/qz/8dvj07d52mjgthd1ds8wvf400000gn/T//ccg5ycur.ltrans18.ltrans.o
 .data          0x0000000000000000        0x0 /var/folders/qz/8dvj07d52mjgthd1ds8wvf400000gn/T//ccg5ycur.ltrans19.ltrans.o
 .data          0x0000000000000000        0x0 /var/folders/qz/8dvj07d52mjgthd1ds8wvf400000gn/T//ccg5ycur.ltrans20.ltrans.o
 .bss           0x0000000000000000        0x0 /var/folders/qz/8dvj07d52mjgthd1ds8wvf400000gn/T//ccg5ycur.ltrans20.ltrans.o
 .text          0x0000000000000000        0x0 obj/main/SPRACINGF3/drivers/adc.o (symbol from plugin)
 .text          0x0000000000000000        0x0 obj/main/SPRACINGF3/drivers/adc_stm32f30x.o (symbol from plugin)
 .text          0x0000000000000000        0x0 obj/main/SPRACINGF3/drivers/bus_i2c_stm32f30x.o (symbol from plugin)
 .text          0x0000000000000000        0x0 obj/main/SPRACINGF3/drivers/bus_spi.o (symbol from plugin)
 .text          0x0000000000000000        0x0 obj/main/SPRACINGF3/drivers/gpio_stm32f30x.o (symbol from plugin)
 .text          0x0000000000000000        0x0 obj/main/SPRACINGF3/drivers/light_led_stm32f30x.o (symbol from plugin)
 .text          0x0000000000000000        0x0 obj/main/SPRACINGF3/drivers/serial_uart.o (symbol from plugin)
 .text          0x0000000000000000        0x0 obj/main/SPRACINGF3/drivers/serial_uart_stm32f30x.o (symbol from plugin)
 .text          0x0000000000000000        0x0 obj/main/SPRACINGF3/drivers/sound_beeper_stm32f30x.o (symbol from plugin)
 .text          0x0000000000000000        0x0 obj/main/SPRACINGF3/drivers/system_stm32f30x.o (symbol from plugin)
 .text          0x0000000000000000        0x0 obj/main/SPRACINGF3/drivers/display_ug2864hsweg01.o (symbol from plugin)
 .text          0x0000000000000000        0x0 obj/main/SPRACINGF3/drivers/timer.o (symbol from plugin)
 .text          0x0000000000000000        0x0 obj/main/SPRACINGF3/drivers/timer_stm32f30x.o (symbol from plugin)
 .text          0x0000000000000000        0x0 obj/main/SPRACINGF3/drivers/pwm_mapping.o (symbol from plugin)
 .text          0x0000000000000000        0x0 obj/main/SPRACINGF3/drivers/pwm_output.o (symbol from plugin)
 .text          0x0000000000000000        0x0 obj/main/SPRACINGF3/drivers/pwm_rx.o (symbol from plugin)
 .text          0x0000000000000000        0x0 obj/main/SPRACINGF3/drivers/accgyro_mpu.o (symbol from plugin)
 .text          0x0000000000000000        0x0 obj/main/SPRACINGF3/drivers/accgyro_mpu6050.o (symbol from plugin)
 .text          0x0000000000000000        0x0 obj/main/SPRACINGF3/drivers/barometer_ms5611.o (symbol from plugin)
 .text          0x0000000000000000        0x0 obj/main/SPRACINGF3/drivers/compass_ak8975.o (symbol from plugin)
 .text          0x0000000000000000        0x0 obj/main/SPRACINGF3/drivers/compass_hmc5883l.o (symbol from plugin)
 .text          0x0000000000000000        0x0 obj/main/SPRACINGF3/drivers/flash_m25p16.o (symbol from plugin)
 .text          0x0000000000000000        0x0 obj/main/SPRACINGF3/drivers/light_ws2811strip.o (symbol from plugin)
 .text          0x0000000000000000        0x0 obj/main/SPRACINGF3/drivers/light_ws2811strip_stm32f30x.o (symbol from plugin)
 .text          0x0000000000000000        0x0 obj/main/SPRACINGF3/drivers/serial_softserial.o (symbol from plugin)
 .text          0x0000000000000000        0x0 obj/main/SPRACINGF3/drivers/sonar_hcsr04.o (symbol from plugin)
 .text          0x0000000000000000        0x0 obj/main/SPRACINGF3/io/flashfs.o (symbol from plugin)
 .text          0x0000000000000000        0x0 obj/main/SPRACINGF3/flight/gtune.o (symbol from plugin)
 .text          0x0000000000000000        0x0 obj/main/SPRACINGF3/flight/navigation.o (symbol from plugin)
 .text          0x0000000000000000        0x0 obj/main/SPRACINGF3/flight/gps_conversion.o (symbol from plugin)
 .text          0x0000000000000000        0x0 obj/main/SPRACINGF3/common/colorconversion.o (symbol from plugin)
 .text          0x0000000000000000        0x0 obj/main/SPRACINGF3/io/gps.o (symbol from plugin)
 .text          0x0000000000000000        0x0 obj/main/SPRACINGF3/io/display.o (symbol from plugin)
 .text          0x0000000000000000        0x0 obj/main/SPRACINGF3/telemetry/telemetry.o (symbol from plugin)
 .text          0x0000000000000000        0x0 obj/main/SPRACINGF3/telemetry/frsky.o (symbol from plugin)
 .text          0x0000000000000000        0x0 obj/main/SPRACINGF3/telemetry/hott.o (symbol from plugin)
 .text          0x0000000000000000        0x0 obj/main/SPRACINGF3/telemetry/smartport.o (symbol from plugin)
 .text          0x0000000000000000        0x0 obj/main/SPRACINGF3/telemetry/ltm.o (symbol from plugin)
 .text          0x0000000000000000        0x0 obj/main/SPRACINGF3/telemetry/mavlink.o (symbol from plugin)
 .text          0x0000000000000000        0x0 obj/main/SPRACINGF3/sensors/sonar.o (symbol from plugin)
 .text          0x0000000000000000        0x0 obj/main/SPRACINGF3/sensors/barometer.o (symbol from plugin)
 .text          0x0000000000000000        0x0 obj/main/SPRACINGF3/blackbox/blackbox.o (symbol from plugin)
 .text          0x0000000000000000        0x0 obj/main/SPRACINGF3/blackbox/blackbox_io.o (symbol from plugin)
 .text          0x0000000000000000        0x0 obj/main/SPRACINGF3/config/feature.o (symbol from plugin)
 .text          0x0000000000000000        0x0 obj/main/SPRACINGF3/config/profile.o (symbol from plugin)
 .text          0x0000000000000000        0x0 obj/main/SPRACINGF3/fc/boot.o (symbol from plugin)
 .text          0x0000000000000000        0x0 obj/main/SPRACINGF3/fc/cleanflight_fc.o (symbol from plugin)
 .text          0x0000000000000000        0x0 obj/main/SPRACINGF3/fc/fc_tasks.o (symbol from plugin)
 .text          0x0000000000000000        0x0 obj/main/SPRACINGF3/fc/rate_profile.o (symbol from plugin)
 .text          0x0000000000000000        0x0 obj/main/SPRACINGF3/fc/rc_adjustments.o (symbol from plugin)
 .text          0x0000000000000000        0x0 obj/main/SPRACINGF3/fc/rc_controls.o (symbol from plugin)
 .text          0x0000000000000000        0x0 obj/main/SPRACINGF3/fc/rc_curves.o (symbol from plugin)
 .text          0x0000000000000000        0x0 obj/main/SPRACINGF3/fc/fc_serial.o (symbol from plugin)
 .text          0x0000000000000000        0x0 obj/main/SPRACINGF3/fc/config.o (symbol from plugin)
 .text          0x0000000000000000        0x0 obj/main/SPRACINGF3/fc/runtime_config.o (symbol from plugin)
 .text          0x0000000000000000        0x0 obj/main/SPRACINGF3/fc/msp_server_fc.o (symbol from plugin)
 .text          0x0000000000000000        0x0 obj/main/SPRACINGF3/flight/altitudehold.o (symbol from plugin)
 .text          0x0000000000000000        0x0 obj/main/SPRACINGF3/flight/failsafe.o (symbol from plugin)
 .text          0x0000000000000000        0x0 obj/main/SPRACINGF3/flight/pid.o (symbol from plugin)
 .text          0x0000000000000000        0x0 obj/main/SPRACINGF3/flight/pid_luxfloat.o (symbol from plugin)
 .text          0x0000000000000000        0x0 obj/main/SPRACINGF3/flight/pid_mwrewrite.o (symbol from plugin)
 .text          0x0000000000000000        0x0 obj/main/SPRACINGF3/flight/pid_mw23.o (symbol from plugin)
 .text          0x0000000000000000        0x0 obj/main/SPRACINGF3/flight/imu.o (symbol from plugin)
 .text          0x0000000000000000        0x0 obj/main/SPRACINGF3/flight/mixer.o (symbol from plugin)
 .text          0x0000000000000000        0x0 obj/main/SPRACINGF3/flight/servos.o (symbol from plugin)
 .text          0x0000000000000000        0x0 obj/main/SPRACINGF3/drivers/bus_i2c_soft.o (symbol from plugin)
 .text          0x0000000000000000        0x0 obj/main/SPRACINGF3/drivers/exti.o (symbol from plugin)
 .text          0x0000000000000000        0x0 obj/main/SPRACINGF3/drivers/io.o (symbol from plugin)
 .text          0x0000000000000000        0x0 obj/main/SPRACINGF3/drivers/rcc.o (symbol from plugin)
 .text          0x0000000000000000        0x0 obj/main/SPRACINGF3/drivers/sound_beeper.o (symbol from plugin)
 .text          0x0000000000000000        0x0 obj/main/SPRACINGF3/drivers/gyro_sync.o (symbol from plugin)
 .text          0x0000000000000000        0x0 obj/main/SPRACINGF3/io/beeper.o (symbol from plugin)
 .text          0x0000000000000000        0x0 obj/main/SPRACINGF3/io/gimbal.o (symbol from plugin)
 .text          0x0000000000000000        0x0 obj/main/SPRACINGF3/io/motor_and_servo.o (symbol from plugin)
 .text          0x0000000000000000        0x0 obj/main/SPRACINGF3/io/serial_4way.o (symbol from plugin)
 .text          0x0000000000000000        0x0 obj/main/SPRACINGF3/io/serial_4way_avrootloader.o (symbol from plugin)
 .text          0x0000000000000000        0x0 obj/main/SPRACINGF3/io/serial_4way_stk500v2.o (symbol from plugin)
 .text          0x0000000000000000        0x0 obj/main/SPRACINGF3/io/serial_cli.o (symbol from plugin)
 .text          0x0000000000000000        0x0 obj/main/SPRACINGF3/io/statusindicator.o (symbol from plugin)
 .text          0x0000000000000000        0x0 obj/main/SPRACINGF3/rx/rx.o (symbol from plugin)
 .text          0x0000000000000000        0x0 obj/main/SPRACINGF3/rx/pwm.o (symbol from plugin)
 .text          0x0000000000000000        0x0 obj/main/SPRACINGF3/rx/msp.o (symbol from plugin)
 .text          0x0000000000000000        0x0 obj/main/SPRACINGF3/rx/sbus.o (symbol from plugin)
 .text          0x0000000000000000        0x0 obj/main/SPRACINGF3/rx/sumd.o (symbol from plugin)
 .text          0x0000000000000000        0x0 obj/main/SPRACINGF3/rx/sumh.o (symbol from plugin)
 .text          0x0000000000000000        0x0 obj/main/SPRACINGF3/rx/spektrum.o (symbol from plugin)
 .text          0x0000000000000000        0x0 obj/main/SPRACINGF3/rx/xbus.o (symbol from plugin)
 .text          0x0000000000000000        0x0 obj/main/SPRACINGF3/rx/ibus.o (symbol from plugin)
 .text          0x0000000000000000        0x0 obj/main/SPRACINGF3/rx/srxl.o (symbol from plugin)
 .text          0x0000000000000000        0x0 obj/main/SPRACINGF3/sensors/sensors.o (symbol from plugin)
 .text          0x0000000000000000        0x0 obj/main/SPRACINGF3/sensors/acceleration.o (symbol from plugin)
 .text          0x0000000000000000        0x0 obj/main/SPRACINGF3/sensors/battery.o (symbol from plugin)
 .text          0x0000000000000000        0x0 obj/main/SPRACINGF3/sensors/boardalignment.o (symbol from plugin)
 .text          0x0000000000000000        0x0 obj/main/SPRACINGF3/sensors/compass.o (symbol from plugin)
 .text          0x0000000000000000        0x0 obj/main/SPRACINGF3/sensors/gyro.o (symbol from plugin)
 .text          0x0000000000000000        0x0 obj/main/SPRACINGF3/sensors/initialisation.o (symbol from plugin)
 .text          0x0000000000000000        0x0 obj/main/SPRACINGF3/build/build_config.o (symbol from plugin)
 .text          0x0000000000000000        0x0 obj/main/SPRACINGF3/build/debug.o (symbol from plugin)
 .text          0x0000000000000000        0x0 obj/main/SPRACINGF3/build/version.o (symbol from plugin)
 .text          0x0000000000000000        0x0 obj/main/SPRACINGF3/config/config_streamer.o (symbol from plugin)
 .text          0x0000000000000000        0x0 obj/main/SPRACINGF3/config/parameter_group.o (symbol from plugin)
 .text          0x0000000000000000        0x0 obj/main/SPRACINGF3/config/config_eeprom.o (symbol from plugin)
 .text          0x0000000000000000        0x0 obj/main/SPRACINGF3/common/encoding.o (symbol from plugin)
 .text          0x0000000000000000        0x0 obj/main/SPRACINGF3/common/filter.o (symbol from plugin)
 .text          0x0000000000000000        0x0 obj/main/SPRACINGF3/common/maths.o (symbol from plugin)
 .text          0x0000000000000000        0x0 obj/main/SPRACINGF3/common/printf.o (symbol from plugin)
 .text          0x0000000000000000        0x0 obj/main/SPRACINGF3/common/streambuf.o (symbol from plugin)
 .text          0x0000000000000000        0x0 obj/main/SPRACINGF3/common/typeconversion.o (symbol from plugin)
 .text          0x0000000000000000        0x0 obj/main/SPRACINGF3/common/crc.o (symbol from plugin)
 .text          0x0000000000000000        0x0 obj/main/SPRACINGF3/drivers/buf_writer.o (symbol from plugin)
 .text          0x0000000000000000        0x0 obj/main/SPRACINGF3/drivers/dma.o (symbol from plugin)
 .text          0x0000000000000000        0x0 obj/main/SPRACINGF3/drivers/serial.o (symbol from plugin)
 .text          0x0000000000000000        0x0 obj/main/SPRACINGF3/drivers/system.o (symbol from plugin)
 .text          0x0000000000000000        0x0 obj/main/SPRACINGF3/scheduler/scheduler.o (symbol from plugin)
 .text          0x0000000000000000        0x0 obj/main/SPRACINGF3/io/serial.o (symbol from plugin)
 .text          0x0000000000000000        0x0 obj/main/SPRACINGF3/msp/msp.o (symbol from plugin)
 .text          0x0000000000000000        0x0 obj/main/SPRACINGF3/msp/msp_serial.o (symbol from plugin)
 .text          0x0000000000000000        0x0 obj/main/SPRACINGF3/drivers/nrf2401.o (symbol from plugin)
 .text          0x0000000000000000        0x0 obj/main/SPRACINGF3/drivers/fbm320.o (symbol from plugin)
 .text          0x0000000000000000        0x0 obj/main/SPRACINGF3/drivers/app.o (symbol from plugin)
 .text          0x0000000000000000        0x0 obj/main/SPRACINGF3/drivers/led.o (symbol from plugin)
 .text          0x0000000000000000        0x0 obj/main/SPRACINGF3/stm32f30x_gpio.o (symbol from plugin)
 .text          0x0000000000000000        0x0 obj/main/SPRACINGF3/stm32f30x_rcc.o (symbol from plugin)
 .text          0x0000000000000000        0x0 obj/main/SPRACINGF3/stm32f30x_adc.o (symbol from plugin)
 .text          0x0000000000000000        0x0 obj/main/SPRACINGF3/stm32f30x_comp.o (symbol from plugin)
 .text          0x0000000000000000        0x0 obj/main/SPRACINGF3/stm32f30x_dac.o (symbol from plugin)
 .text          0x0000000000000000        0x0 obj/main/SPRACINGF3/stm32f30x_dbgmcu.o (symbol from plugin)
 .text          0x0000000000000000        0x0 obj/main/SPRACINGF3/stm32f30x_dma.o (symbol from plugin)
 .text          0x0000000000000000        0x0 obj/main/SPRACINGF3/stm32f30x_exti.o (symbol from plugin)
 .text          0x0000000000000000        0x0 obj/main/SPRACINGF3/stm32f30x_flash.o (symbol from plugin)
 .text          0x0000000000000000        0x0 obj/main/SPRACINGF3/stm32f30x_hrtim.o (symbol from plugin)
 .text          0x0000000000000000        0x0 obj/main/SPRACINGF3/stm32f30x_i2c.o (symbol from plugin)
 .text          0x0000000000000000        0x0 obj/main/SPRACINGF3/stm32f30x_iwdg.o (symbol from plugin)
 .text          0x0000000000000000        0x0 obj/main/SPRACINGF3/stm32f30x_misc.o (symbol from plugin)
 .text          0x0000000000000000        0x0 obj/main/SPRACINGF3/stm32f30x_opamp.o (symbol from plugin)
 .text          0x0000000000000000        0x0 obj/main/SPRACINGF3/stm32f30x_pwr.o (symbol from plugin)
 .text          0x0000000000000000        0x0 obj/main/SPRACINGF3/stm32f30x_rtc.o (symbol from plugin)
 .text          0x0000000000000000        0x0 obj/main/SPRACINGF3/stm32f30x_spi.o (symbol from plugin)
 .text          0x0000000000000000        0x0 obj/main/SPRACINGF3/stm32f30x_syscfg.o (symbol from plugin)
 .text          0x0000000000000000        0x0 obj/main/SPRACINGF3/stm32f30x_tim.o (symbol from plugin)
 .text          0x0000000000000000        0x0 obj/main/SPRACINGF3/stm32f30x_usart.o (symbol from plugin)
 .text          0x0000000000000000        0x0 obj/main/SPRACINGF3/stm32f30x_wwdg.o (symbol from plugin)
 .text          0x0000000000000000        0x0 /opt/gcc-arm-none-eabi-5_4-2016q3/bin/../lib/gcc/arm-none-eabi/5.4.1/../../../../arm-none-eabi/lib/armv7e-m/fpu/libc_nano.a(lib_a-atoi.o)
 .data          0x0000000000000000        0x0 /opt/gcc-arm-none-eabi-5_4-2016q3/bin/../lib/gcc/arm-none-eabi/5.4.1/../../../../arm-none-eabi/lib/armv7e-m/fpu/libc_nano.a(lib_a-atoi.o)
 .bss           0x0000000000000000        0x0 /opt/gcc-arm-none-eabi-5_4-2016q3/bin/../lib/gcc/arm-none-eabi/5.4.1/../../../../arm-none-eabi/lib/armv7e-m/fpu/libc_nano.a(lib_a-atoi.o)
 .text._atoi_r  0x0000000000000000        0x8 /opt/gcc-arm-none-eabi-5_4-2016q3/bin/../lib/gcc/arm-none-eabi/5.4.1/../../../../arm-none-eabi/lib/armv7e-m/fpu/libc_nano.a(lib_a-atoi.o)
 .text          0x0000000000000000        0x0 /opt/gcc-arm-none-eabi-5_4-2016q3/bin/../lib/gcc/arm-none-eabi/5.4.1/../../../../arm-none-eabi/lib/armv7e-m/fpu/libc_nano.a(lib_a-locale.o)
 .data          0x0000000000000000        0x0 /opt/gcc-arm-none-eabi-5_4-2016q3/bin/../lib/gcc/arm-none-eabi/5.4.1/../../../../arm-none-eabi/lib/armv7e-m/fpu/libc_nano.a(lib_a-locale.o)
 .bss           0x0000000000000000        0x0 /opt/gcc-arm-none-eabi-5_4-2016q3/bin/../lib/gcc/arm-none-eabi/5.4.1/../../../../arm-none-eabi/lib/armv7e-m/fpu/libc_nano.a(lib_a-locale.o)
 .text._setlocale_r
                0x0000000000000000       0x38 /opt/gcc-arm-none-eabi-5_4-2016q3/bin/../lib/gcc/arm-none-eabi/5.4.1/../../../../arm-none-eabi/lib/armv7e-m/fpu/libc_nano.a(lib_a-locale.o)
 .text.__locale_mb_cur_max
                0x0000000000000000        0xc /opt/gcc-arm-none-eabi-5_4-2016q3/bin/../lib/gcc/arm-none-eabi/5.4.1/../../../../arm-none-eabi/lib/armv7e-m/fpu/libc_nano.a(lib_a-locale.o)
 .text.setlocale
                0x0000000000000000       0x10 /opt/gcc-arm-none-eabi-5_4-2016q3/bin/../lib/gcc/arm-none-eabi/5.4.1/../../../../arm-none-eabi/lib/armv7e-m/fpu/libc_nano.a(lib_a-locale.o)
 .bss._PathLocale
                0x0000000000000000        0x4 /opt/gcc-arm-none-eabi-5_4-2016q3/bin/../lib/gcc/arm-none-eabi/5.4.1/../../../../arm-none-eabi/lib/armv7e-m/fpu/libc_nano.a(lib_a-locale.o)
 .text          0x0000000000000000        0x0 /opt/gcc-arm-none-eabi-5_4-2016q3/bin/../lib/gcc/arm-none-eabi/5.4.1/../../../../arm-none-eabi/lib/armv7e-m/fpu/libc_nano.a(lib_a-mbtowc_r.o)
 .data          0x0000000000000000        0x0 /opt/gcc-arm-none-eabi-5_4-2016q3/bin/../lib/gcc/arm-none-eabi/5.4.1/../../../../arm-none-eabi/lib/armv7e-m/fpu/libc_nano.a(lib_a-mbtowc_r.o)
 .bss           0x0000000000000000        0x0 /opt/gcc-arm-none-eabi-5_4-2016q3/bin/../lib/gcc/arm-none-eabi/5.4.1/../../../../arm-none-eabi/lib/armv7e-m/fpu/libc_nano.a(lib_a-mbtowc_r.o)
 .text._mbtowc_r
                0x0000000000000000       0x24 /opt/gcc-arm-none-eabi-5_4-2016q3/bin/../lib/gcc/arm-none-eabi/5.4.1/../../../../arm-none-eabi/lib/armv7e-m/fpu/libc_nano.a(lib_a-mbtowc_r.o)
 .data          0x0000000000000000        0x0 /opt/gcc-arm-none-eabi-5_4-2016q3/bin/../lib/gcc/arm-none-eabi/5.4.1/../../../../arm-none-eabi/lib/armv7e-m/fpu/libc_nano.a(lib_a-strcmp.o)
 .bss           0x0000000000000000        0x0 /opt/gcc-arm-none-eabi-5_4-2016q3/bin/../lib/gcc/arm-none-eabi/5.4.1/../../../../arm-none-eabi/lib/armv7e-m/fpu/libc_nano.a(lib_a-strcmp.o)
 .text          0x0000000000000000        0x0 /opt/gcc-arm-none-eabi-5_4-2016q3/bin/../lib/gcc/arm-none-eabi/5.4.1/../../../../arm-none-eabi/lib/armv7e-m/fpu/libc_nano.a(lib_a-strtok_r.o)
 .data          0x0000000000000000        0x0 /opt/gcc-arm-none-eabi-5_4-2016q3/bin/../lib/gcc/arm-none-eabi/5.4.1/../../../../arm-none-eabi/lib/armv7e-m/fpu/libc_nano.a(lib_a-strtok_r.o)
 .bss           0x0000000000000000        0x0 /opt/gcc-arm-none-eabi-5_4-2016q3/bin/../lib/gcc/arm-none-eabi/5.4.1/../../../../arm-none-eabi/lib/armv7e-m/fpu/libc_nano.a(lib_a-strtok_r.o)
 .text          0x0000000000000000        0x0 /opt/gcc-arm-none-eabi-5_4-2016q3/bin/../lib/gcc/arm-none-eabi/5.4.1/../../../../arm-none-eabi/lib/armv7e-m/fpu/libc_nano.a(lib_a-strtol.o)
 .data          0x0000000000000000        0x0 /opt/gcc-arm-none-eabi-5_4-2016q3/bin/../lib/gcc/arm-none-eabi/5.4.1/../../../../arm-none-eabi/lib/armv7e-m/fpu/libc_nano.a(lib_a-strtol.o)
 .bss           0x0000000000000000        0x0 /opt/gcc-arm-none-eabi-5_4-2016q3/bin/../lib/gcc/arm-none-eabi/5.4.1/../../../../arm-none-eabi/lib/armv7e-m/fpu/libc_nano.a(lib_a-strtol.o)
 .text._strtol_r
                0x0000000000000000       0x24 /opt/gcc-arm-none-eabi-5_4-2016q3/bin/../lib/gcc/arm-none-eabi/5.4.1/../../../../arm-none-eabi/lib/armv7e-m/fpu/libc_nano.a(lib_a-strtol.o)
 .text.strtol_l
                0x0000000000000000       0x1c /opt/gcc-arm-none-eabi-5_4-2016q3/bin/../lib/gcc/arm-none-eabi/5.4.1/../../../../arm-none-eabi/lib/armv7e-m/fpu/libc_nano.a(lib_a-strtol.o)
 .text          0x0000000000000000        0x0 /opt/gcc-arm-none-eabi-5_4-2016q3/bin/../lib/gcc/arm-none-eabi/5.4.1/../../../../arm-none-eabi/lib/armv7e-m/fpu/libc_nano.a(lib_a-wctomb_r.o)
 .data          0x0000000000000000        0x0 /opt/gcc-arm-none-eabi-5_4-2016q3/bin/../lib/gcc/arm-none-eabi/5.4.1/../../../../arm-none-eabi/lib/armv7e-m/fpu/libc_nano.a(lib_a-wctomb_r.o)
 .bss           0x0000000000000000        0x0 /opt/gcc-arm-none-eabi-5_4-2016q3/bin/../lib/gcc/arm-none-eabi/5.4.1/../../../../arm-none-eabi/lib/armv7e-m/fpu/libc_nano.a(lib_a-wctomb_r.o)
 .text._wctomb_r
                0x0000000000000000       0x24 /opt/gcc-arm-none-eabi-5_4-2016q3/bin/../lib/gcc/arm-none-eabi/5.4.1/../../../../arm-none-eabi/lib/armv7e-m/fpu/libc_nano.a(lib_a-wctomb_r.o)
 .text          0x0000000000000000        0x0 /opt/gcc-arm-none-eabi-5_4-2016q3/bin/../lib/gcc/arm-none-eabi/5.4.1/../../../../arm-none-eabi/lib/armv7e-m/fpu/libc_nano.a(lib_a-ctype_.o)
 .data          0x0000000000000000        0x0 /opt/gcc-arm-none-eabi-5_4-2016q3/bin/../lib/gcc/arm-none-eabi/5.4.1/../../../../arm-none-eabi/lib/armv7e-m/fpu/libc_nano.a(lib_a-ctype_.o)
 .bss           0x0000000000000000        0x0 /opt/gcc-arm-none-eabi-5_4-2016q3/bin/../lib/gcc/arm-none-eabi/5.4.1/../../../../arm-none-eabi/lib/armv7e-m/fpu/libc_nano.a(lib_a-ctype_.o)
 .text          0x0000000000000000        0x0 /opt/gcc-arm-none-eabi-5_4-2016q3/bin/../lib/gcc/arm-none-eabi/5.4.1/../../../../arm-none-eabi/lib/armv7e-m/fpu/libc_nano.a(lib_a-impure.o)
 .data          0x0000000000000000        0x0 /opt/gcc-arm-none-eabi-5_4-2016q3/bin/../lib/gcc/arm-none-eabi/5.4.1/../../../../arm-none-eabi/lib/armv7e-m/fpu/libc_nano.a(lib_a-impure.o)
 .bss           0x0000000000000000        0x0 /opt/gcc-arm-none-eabi-5_4-2016q3/bin/../lib/gcc/arm-none-eabi/5.4.1/../../../../arm-none-eabi/lib/armv7e-m/fpu/libc_nano.a(lib_a-impure.o)
 .rodata._global_impure_ptr
                0x0000000000000000        0x4 /opt/gcc-arm-none-eabi-5_4-2016q3/bin/../lib/gcc/arm-none-eabi/5.4.1/../../../../arm-none-eabi/lib/armv7e-m/fpu/libc_nano.a(lib_a-impure.o)
 .text          0x0000000000000000        0x0 /opt/gcc-arm-none-eabi-5_4-2016q3/bin/../lib/gcc/arm-none-eabi/5.4.1/../../../../arm-none-eabi/lib/armv7e-m/fpu/libm.a(lib_a-sf_lrint.o)
 .data          0x0000000000000000        0x0 /opt/gcc-arm-none-eabi-5_4-2016q3/bin/../lib/gcc/arm-none-eabi/5.4.1/../../../../arm-none-eabi/lib/armv7e-m/fpu/libm.a(lib_a-sf_lrint.o)
 .bss           0x0000000000000000        0x0 /opt/gcc-arm-none-eabi-5_4-2016q3/bin/../lib/gcc/arm-none-eabi/5.4.1/../../../../arm-none-eabi/lib/armv7e-m/fpu/libm.a(lib_a-sf_lrint.o)
 .text          0x0000000000000000        0x0 /opt/gcc-arm-none-eabi-5_4-2016q3/bin/../lib/gcc/arm-none-eabi/5.4.1/../../../../arm-none-eabi/lib/armv7e-m/fpu/libm.a(lib_a-w_pow.o)
 .data          0x0000000000000000        0x0 /opt/gcc-arm-none-eabi-5_4-2016q3/bin/../lib/gcc/arm-none-eabi/5.4.1/../../../../arm-none-eabi/lib/armv7e-m/fpu/libm.a(lib_a-w_pow.o)
 .bss           0x0000000000000000        0x0 /opt/gcc-arm-none-eabi-5_4-2016q3/bin/../lib/gcc/arm-none-eabi/5.4.1/../../../../arm-none-eabi/lib/armv7e-m/fpu/libm.a(lib_a-w_pow.o)
 .text          0x0000000000000000        0x0 /opt/gcc-arm-none-eabi-5_4-2016q3/bin/../lib/gcc/arm-none-eabi/5.4.1/../../../../arm-none-eabi/lib/armv7e-m/fpu/libm.a(lib_a-wf_sqrt.o)
 .data          0x0000000000000000        0x0 /opt/gcc-arm-none-eabi-5_4-2016q3/bin/../lib/gcc/arm-none-eabi/5.4.1/../../../../arm-none-eabi/lib/armv7e-m/fpu/libm.a(lib_a-wf_sqrt.o)
 .bss           0x0000000000000000        0x0 /opt/gcc-arm-none-eabi-5_4-2016q3/bin/../lib/gcc/arm-none-eabi/5.4.1/../../../../arm-none-eabi/lib/armv7e-m/fpu/libm.a(lib_a-wf_sqrt.o)
 .text          0x0000000000000000        0x0 /opt/gcc-arm-none-eabi-5_4-2016q3/bin/../lib/gcc/arm-none-eabi/5.4.1/../../../../arm-none-eabi/lib/armv7e-m/fpu/libm.a(lib_a-e_pow.o)
 .data          0x0000000000000000        0x0 /opt/gcc-arm-none-eabi-5_4-2016q3/bin/../lib/gcc/arm-none-eabi/5.4.1/../../../../arm-none-eabi/lib/armv7e-m/fpu/libm.a(lib_a-e_pow.o)
 .bss           0x0000000000000000        0x0 /opt/gcc-arm-none-eabi-5_4-2016q3/bin/../lib/gcc/arm-none-eabi/5.4.1/../../../../arm-none-eabi/lib/armv7e-m/fpu/libm.a(lib_a-e_pow.o)
 .text          0x0000000000000000        0x0 /opt/gcc-arm-none-eabi-5_4-2016q3/bin/../lib/gcc/arm-none-eabi/5.4.1/../../../../arm-none-eabi/lib/armv7e-m/fpu/libm.a(lib_a-e_sqrt.o)
 .data          0x0000000000000000        0x0 /opt/gcc-arm-none-eabi-5_4-2016q3/bin/../lib/gcc/arm-none-eabi/5.4.1/../../../../arm-none-eabi/lib/armv7e-m/fpu/libm.a(lib_a-e_sqrt.o)
 .bss           0x0000000000000000        0x0 /opt/gcc-arm-none-eabi-5_4-2016q3/bin/../lib/gcc/arm-none-eabi/5.4.1/../../../../arm-none-eabi/lib/armv7e-m/fpu/libm.a(lib_a-e_sqrt.o)
 .text          0x0000000000000000        0x0 /opt/gcc-arm-none-eabi-5_4-2016q3/bin/../lib/gcc/arm-none-eabi/5.4.1/../../../../arm-none-eabi/lib/armv7e-m/fpu/libm.a(lib_a-ef_sqrt.o)
 .data          0x0000000000000000        0x0 /opt/gcc-arm-none-eabi-5_4-2016q3/bin/../lib/gcc/arm-none-eabi/5.4.1/../../../../arm-none-eabi/lib/armv7e-m/fpu/libm.a(lib_a-ef_sqrt.o)
 .bss           0x0000000000000000        0x0 /opt/gcc-arm-none-eabi-5_4-2016q3/bin/../lib/gcc/arm-none-eabi/5.4.1/../../../../arm-none-eabi/lib/armv7e-m/fpu/libm.a(lib_a-ef_sqrt.o)
 .text          0x0000000000000000        0x0 /opt/gcc-arm-none-eabi-5_4-2016q3/bin/../lib/gcc/arm-none-eabi/5.4.1/../../../../arm-none-eabi/lib/armv7e-m/fpu/libm.a(lib_a-s_fabs.o)
 .data          0x0000000000000000        0x0 /opt/gcc-arm-none-eabi-5_4-2016q3/bin/../lib/gcc/arm-none-eabi/5.4.1/../../../../arm-none-eabi/lib/armv7e-m/fpu/libm.a(lib_a-s_fabs.o)
 .bss           0x0000000000000000        0x0 /opt/gcc-arm-none-eabi-5_4-2016q3/bin/../lib/gcc/arm-none-eabi/5.4.1/../../../../arm-none-eabi/lib/armv7e-m/fpu/libm.a(lib_a-s_fabs.o)
 .text          0x0000000000000000        0x0 /opt/gcc-arm-none-eabi-5_4-2016q3/bin/../lib/gcc/arm-none-eabi/5.4.1/../../../../arm-none-eabi/lib/armv7e-m/fpu/libm.a(lib_a-s_finite.o)
 .data          0x0000000000000000        0x0 /opt/gcc-arm-none-eabi-5_4-2016q3/bin/../lib/gcc/arm-none-eabi/5.4.1/../../../../arm-none-eabi/lib/armv7e-m/fpu/libm.a(lib_a-s_finite.o)
 .bss           0x0000000000000000        0x0 /opt/gcc-arm-none-eabi-5_4-2016q3/bin/../lib/gcc/arm-none-eabi/5.4.1/../../../../arm-none-eabi/lib/armv7e-m/fpu/libm.a(lib_a-s_finite.o)
 .text          0x0000000000000000        0x0 /opt/gcc-arm-none-eabi-5_4-2016q3/bin/../lib/gcc/arm-none-eabi/5.4.1/../../../../arm-none-eabi/lib/armv7e-m/fpu/libm.a(lib_a-s_lib_ver.o)
 .data          0x0000000000000000        0x0 /opt/gcc-arm-none-eabi-5_4-2016q3/bin/../lib/gcc/arm-none-eabi/5.4.1/../../../../arm-none-eabi/lib/armv7e-m/fpu/libm.a(lib_a-s_lib_ver.o)
 .bss           0x0000000000000000        0x0 /opt/gcc-arm-none-eabi-5_4-2016q3/bin/../lib/gcc/arm-none-eabi/5.4.1/../../../../arm-none-eabi/lib/armv7e-m/fpu/libm.a(lib_a-s_lib_ver.o)
 .text          0x0000000000000000        0x0 /opt/gcc-arm-none-eabi-5_4-2016q3/bin/../lib/gcc/arm-none-eabi/5.4.1/../../../../arm-none-eabi/lib/armv7e-m/fpu/libm.a(lib_a-s_matherr.o)
 .data          0x0000000000000000        0x0 /opt/gcc-arm-none-eabi-5_4-2016q3/bin/../lib/gcc/arm-none-eabi/5.4.1/../../../../arm-none-eabi/lib/armv7e-m/fpu/libm.a(lib_a-s_matherr.o)
 .bss           0x0000000000000000        0x0 /opt/gcc-arm-none-eabi-5_4-2016q3/bin/../lib/gcc/arm-none-eabi/5.4.1/../../../../arm-none-eabi/lib/armv7e-m/fpu/libm.a(lib_a-s_matherr.o)
 .text          0x0000000000000000        0x0 /opt/gcc-arm-none-eabi-5_4-2016q3/bin/../lib/gcc/arm-none-eabi/5.4.1/../../../../arm-none-eabi/lib/armv7e-m/fpu/libm.a(lib_a-s_nan.o)
 .data          0x0000000000000000        0x0 /opt/gcc-arm-none-eabi-5_4-2016q3/bin/../lib/gcc/arm-none-eabi/5.4.1/../../../../arm-none-eabi/lib/armv7e-m/fpu/libm.a(lib_a-s_nan.o)
 .bss           0x0000000000000000        0x0 /opt/gcc-arm-none-eabi-5_4-2016q3/bin/../lib/gcc/arm-none-eabi/5.4.1/../../../../arm-none-eabi/lib/armv7e-m/fpu/libm.a(lib_a-s_nan.o)
 .text          0x0000000000000000        0x0 /opt/gcc-arm-none-eabi-5_4-2016q3/bin/../lib/gcc/arm-none-eabi/5.4.1/../../../../arm-none-eabi/lib/armv7e-m/fpu/libm.a(lib_a-s_rint.o)
 .data          0x0000000000000000        0x0 /opt/gcc-arm-none-eabi-5_4-2016q3/bin/../lib/gcc/arm-none-eabi/5.4.1/../../../../arm-none-eabi/lib/armv7e-m/fpu/libm.a(lib_a-s_rint.o)
 .bss           0x0000000000000000        0x0 /opt/gcc-arm-none-eabi-5_4-2016q3/bin/../lib/gcc/arm-none-eabi/5.4.1/../../../../arm-none-eabi/lib/armv7e-m/fpu/libm.a(lib_a-s_rint.o)
 .text          0x0000000000000000        0x0 /opt/gcc-arm-none-eabi-5_4-2016q3/bin/../lib/gcc/arm-none-eabi/5.4.1/../../../../arm-none-eabi/lib/armv7e-m/fpu/libm.a(lib_a-s_scalbn.o)
 .data          0x0000000000000000        0x0 /opt/gcc-arm-none-eabi-5_4-2016q3/bin/../lib/gcc/arm-none-eabi/5.4.1/../../../../arm-none-eabi/lib/armv7e-m/fpu/libm.a(lib_a-s_scalbn.o)
 .bss           0x0000000000000000        0x0 /opt/gcc-arm-none-eabi-5_4-2016q3/bin/../lib/gcc/arm-none-eabi/5.4.1/../../../../arm-none-eabi/lib/armv7e-m/fpu/libm.a(lib_a-s_scalbn.o)
 .text          0x0000000000000000        0x0 /opt/gcc-arm-none-eabi-5_4-2016q3/bin/../lib/gcc/arm-none-eabi/5.4.1/../../../../arm-none-eabi/lib/armv7e-m/fpu/libm.a(lib_a-s_copysign.o)
 .data          0x0000000000000000        0x0 /opt/gcc-arm-none-eabi-5_4-2016q3/bin/../lib/gcc/arm-none-eabi/5.4.1/../../../../arm-none-eabi/lib/armv7e-m/fpu/libm.a(lib_a-s_copysign.o)
 .bss           0x0000000000000000        0x0 /opt/gcc-arm-none-eabi-5_4-2016q3/bin/../lib/gcc/arm-none-eabi/5.4.1/../../../../arm-none-eabi/lib/armv7e-m/fpu/libm.a(lib_a-s_copysign.o)
 .text          0x0000000000000000        0x0 /opt/gcc-arm-none-eabi-5_4-2016q3/bin/../lib/gcc/arm-none-eabi/5.4.1/../../../../arm-none-eabi/lib/armv7e-m/fpu/libc_nano.a(lib_a-errno.o)
 .data          0x0000000000000000        0x0 /opt/gcc-arm-none-eabi-5_4-2016q3/bin/../lib/gcc/arm-none-eabi/5.4.1/../../../../arm-none-eabi/lib/armv7e-m/fpu/libc_nano.a(lib_a-errno.o)
 .bss           0x0000000000000000        0x0 /opt/gcc-arm-none-eabi-5_4-2016q3/bin/../lib/gcc/arm-none-eabi/5.4.1/../../../../arm-none-eabi/lib/armv7e-m/fpu/libc_nano.a(lib_a-errno.o)
 .text          0x0000000000000000        0x0 /opt/gcc-arm-none-eabi-5_4-2016q3/bin/../lib/gcc/arm-none-eabi/5.4.1/../../../../arm-none-eabi/lib/armv7e-m/fpu/libc_nano.a(lib_a-memcmp.o)
 .data          0x0000000000000000        0x0 /opt/gcc-arm-none-eabi-5_4-2016q3/bin/../lib/gcc/arm-none-eabi/5.4.1/../../../../arm-none-eabi/lib/armv7e-m/fpu/libc_nano.a(lib_a-memcmp.o)
 .bss           0x0000000000000000        0x0 /opt/gcc-arm-none-eabi-5_4-2016q3/bin/../lib/gcc/arm-none-eabi/5.4.1/../../../../arm-none-eabi/lib/armv7e-m/fpu/libc_nano.a(lib_a-memcmp.o)
 .text          0x0000000000000000        0x0 /opt/gcc-arm-none-eabi-5_4-2016q3/bin/../lib/gcc/arm-none-eabi/5.4.1/../../../../arm-none-eabi/lib/armv7e-m/fpu/libc_nano.a(lib_a-memcpy-stub.o)
 .data          0x0000000000000000        0x0 /opt/gcc-arm-none-eabi-5_4-2016q3/bin/../lib/gcc/arm-none-eabi/5.4.1/../../../../arm-none-eabi/lib/armv7e-m/fpu/libc_nano.a(lib_a-memcpy-stub.o)
 .bss           0x0000000000000000        0x0 /opt/gcc-arm-none-eabi-5_4-2016q3/bin/../lib/gcc/arm-none-eabi/5.4.1/../../../../arm-none-eabi/lib/armv7e-m/fpu/libc_nano.a(lib_a-memcpy-stub.o)
 .text          0x0000000000000000        0x0 /opt/gcc-arm-none-eabi-5_4-2016q3/bin/../lib/gcc/arm-none-eabi/5.4.1/../../../../arm-none-eabi/lib/armv7e-m/fpu/libc_nano.a(lib_a-memmove.o)
 .data          0x0000000000000000        0x0 /opt/gcc-arm-none-eabi-5_4-2016q3/bin/../lib/gcc/arm-none-eabi/5.4.1/../../../../arm-none-eabi/lib/armv7e-m/fpu/libc_nano.a(lib_a-memmove.o)
 .bss           0x0000000000000000        0x0 /opt/gcc-arm-none-eabi-5_4-2016q3/bin/../lib/gcc/arm-none-eabi/5.4.1/../../../../arm-none-eabi/lib/armv7e-m/fpu/libc_nano.a(lib_a-memmove.o)
 .text          0x0000000000000000        0x0 /opt/gcc-arm-none-eabi-5_4-2016q3/bin/../lib/gcc/arm-none-eabi/5.4.1/../../../../arm-none-eabi/lib/armv7e-m/fpu/libc_nano.a(lib_a-memset.o)
 .data          0x0000000000000000        0x0 /opt/gcc-arm-none-eabi-5_4-2016q3/bin/../lib/gcc/arm-none-eabi/5.4.1/../../../../arm-none-eabi/lib/armv7e-m/fpu/libc_nano.a(lib_a-memset.o)
 .bss           0x0000000000000000        0x0 /opt/gcc-arm-none-eabi-5_4-2016q3/bin/../lib/gcc/arm-none-eabi/5.4.1/../../../../arm-none-eabi/lib/armv7e-m/fpu/libc_nano.a(lib_a-memset.o)
 .text          0x0000000000000000        0x0 /opt/gcc-arm-none-eabi-5_4-2016q3/bin/../lib/gcc/arm-none-eabi/5.4.1/../../../../arm-none-eabi/lib/armv7e-m/fpu/libc_nano.a(lib_a-strcasecmp.o)
 .data          0x0000000000000000        0x0 /opt/gcc-arm-none-eabi-5_4-2016q3/bin/../lib/gcc/arm-none-eabi/5.4.1/../../../../arm-none-eabi/lib/armv7e-m/fpu/libc_nano.a(lib_a-strcasecmp.o)
 .bss           0x0000000000000000        0x0 /opt/gcc-arm-none-eabi-5_4-2016q3/bin/../lib/gcc/arm-none-eabi/5.4.1/../../../../arm-none-eabi/lib/armv7e-m/fpu/libc_nano.a(lib_a-strcasecmp.o)
 .text          0x0000000000000000        0x0 /opt/gcc-arm-none-eabi-5_4-2016q3/bin/../lib/gcc/arm-none-eabi/5.4.1/../../../../arm-none-eabi/lib/armv7e-m/fpu/libc_nano.a(lib_a-strcat.o)
 .data          0x0000000000000000        0x0 /opt/gcc-arm-none-eabi-5_4-2016q3/bin/../lib/gcc/arm-none-eabi/5.4.1/../../../../arm-none-eabi/lib/armv7e-m/fpu/libc_nano.a(lib_a-strcat.o)
 .bss           0x0000000000000000        0x0 /opt/gcc-arm-none-eabi-5_4-2016q3/bin/../lib/gcc/arm-none-eabi/5.4.1/../../../../arm-none-eabi/lib/armv7e-m/fpu/libc_nano.a(lib_a-strcat.o)
 .text          0x0000000000000000        0x0 /opt/gcc-arm-none-eabi-5_4-2016q3/bin/../lib/gcc/arm-none-eabi/5.4.1/../../../../arm-none-eabi/lib/armv7e-m/fpu/libc_nano.a(lib_a-strchr.o)
 .data          0x0000000000000000        0x0 /opt/gcc-arm-none-eabi-5_4-2016q3/bin/../lib/gcc/arm-none-eabi/5.4.1/../../../../arm-none-eabi/lib/armv7e-m/fpu/libc_nano.a(lib_a-strchr.o)
 .bss           0x0000000000000000        0x0 /opt/gcc-arm-none-eabi-5_4-2016q3/bin/../lib/gcc/arm-none-eabi/5.4.1/../../../../arm-none-eabi/lib/armv7e-m/fpu/libc_nano.a(lib_a-strchr.o)
 .data          0x0000000000000000        0x0 /opt/gcc-arm-none-eabi-5_4-2016q3/bin/../lib/gcc/arm-none-eabi/5.4.1/../../../../arm-none-eabi/lib/armv7e-m/fpu/libc_nano.a(lib_a-strlen.o)
 .bss           0x0000000000000000        0x0 /opt/gcc-arm-none-eabi-5_4-2016q3/bin/../lib/gcc/arm-none-eabi/5.4.1/../../../../arm-none-eabi/lib/armv7e-m/fpu/libc_nano.a(lib_a-strlen.o)
 .text          0x0000000000000000        0x0 /opt/gcc-arm-none-eabi-5_4-2016q3/bin/../lib/gcc/arm-none-eabi/5.4.1/../../../../arm-none-eabi/lib/armv7e-m/fpu/libc_nano.a(lib_a-strncasecmp.o)
 .data          0x0000000000000000        0x0 /opt/gcc-arm-none-eabi-5_4-2016q3/bin/../lib/gcc/arm-none-eabi/5.4.1/../../../../arm-none-eabi/lib/armv7e-m/fpu/libc_nano.a(lib_a-strncasecmp.o)
 .bss           0x0000000000000000        0x0 /opt/gcc-arm-none-eabi-5_4-2016q3/bin/../lib/gcc/arm-none-eabi/5.4.1/../../../../arm-none-eabi/lib/armv7e-m/fpu/libc_nano.a(lib_a-strncasecmp.o)
 .text          0x0000000000000000        0x0 /opt/gcc-arm-none-eabi-5_4-2016q3/bin/../lib/gcc/arm-none-eabi/5.4.1/../../../../arm-none-eabi/lib/armv7e-m/fpu/libc_nano.a(lib_a-strncpy.o)
 .data          0x0000000000000000        0x0 /opt/gcc-arm-none-eabi-5_4-2016q3/bin/../lib/gcc/arm-none-eabi/5.4.1/../../../../arm-none-eabi/lib/armv7e-m/fpu/libc_nano.a(lib_a-strncpy.o)
 .bss           0x0000000000000000        0x0 /opt/gcc-arm-none-eabi-5_4-2016q3/bin/../lib/gcc/arm-none-eabi/5.4.1/../../../../arm-none-eabi/lib/armv7e-m/fpu/libc_nano.a(lib_a-strncpy.o)
 .text          0x0000000000000000        0x0 /opt/gcc-arm-none-eabi-5_4-2016q3/bin/../lib/gcc/arm-none-eabi/5.4.1/../../../../arm-none-eabi/lib/armv7e-m/fpu/libc_nano.a(lib_a-strstr.o)
 .data          0x0000000000000000        0x0 /opt/gcc-arm-none-eabi-5_4-2016q3/bin/../lib/gcc/arm-none-eabi/5.4.1/../../../../arm-none-eabi/lib/armv7e-m/fpu/libc_nano.a(lib_a-strstr.o)
 .bss           0x0000000000000000        0x0 /opt/gcc-arm-none-eabi-5_4-2016q3/bin/../lib/gcc/arm-none-eabi/5.4.1/../../../../arm-none-eabi/lib/armv7e-m/fpu/libc_nano.a(lib_a-strstr.o)
 .data          0x0000000000000000        0x0 /opt/gcc-arm-none-eabi-5_4-2016q3/bin/../lib/gcc/arm-none-eabi/5.4.1/armv7e-m/fpu/libgcc.a(_arm_addsubdf3.o)
 .bss           0x0000000000000000        0x0 /opt/gcc-arm-none-eabi-5_4-2016q3/bin/../lib/gcc/arm-none-eabi/5.4.1/armv7e-m/fpu/libgcc.a(_arm_addsubdf3.o)
 .data          0x0000000000000000        0x0 /opt/gcc-arm-none-eabi-5_4-2016q3/bin/../lib/gcc/arm-none-eabi/5.4.1/armv7e-m/fpu/libgcc.a(_arm_muldivdf3.o)
 .bss           0x0000000000000000        0x0 /opt/gcc-arm-none-eabi-5_4-2016q3/bin/../lib/gcc/arm-none-eabi/5.4.1/armv7e-m/fpu/libgcc.a(_arm_muldivdf3.o)
 .data          0x0000000000000000        0x0 /opt/gcc-arm-none-eabi-5_4-2016q3/bin/../lib/gcc/arm-none-eabi/5.4.1/armv7e-m/fpu/libgcc.a(_arm_cmpdf2.o)
 .bss           0x0000000000000000        0x0 /opt/gcc-arm-none-eabi-5_4-2016q3/bin/../lib/gcc/arm-none-eabi/5.4.1/armv7e-m/fpu/libgcc.a(_arm_cmpdf2.o)
 .data          0x0000000000000000        0x0 /opt/gcc-arm-none-eabi-5_4-2016q3/bin/../lib/gcc/arm-none-eabi/5.4.1/armv7e-m/fpu/libgcc.a(_arm_unorddf2.o)
 .bss           0x0000000000000000        0x0 /opt/gcc-arm-none-eabi-5_4-2016q3/bin/../lib/gcc/arm-none-eabi/5.4.1/armv7e-m/fpu/libgcc.a(_arm_unorddf2.o)
 .data          0x0000000000000000        0x0 /opt/gcc-arm-none-eabi-5_4-2016q3/bin/../lib/gcc/arm-none-eabi/5.4.1/armv7e-m/fpu/libgcc.a(_arm_truncdfsf2.o)
 .bss           0x0000000000000000        0x0 /opt/gcc-arm-none-eabi-5_4-2016q3/bin/../lib/gcc/arm-none-eabi/5.4.1/armv7e-m/fpu/libgcc.a(_arm_truncdfsf2.o)
 .data          0x0000000000000000        0x0 /opt/gcc-arm-none-eabi-5_4-2016q3/bin/../lib/gcc/arm-none-eabi/5.4.1/armv7e-m/fpu/libgcc.a(_aeabi_ldivmod.o)
 .bss           0x0000000000000000        0x0 /opt/gcc-arm-none-eabi-5_4-2016q3/bin/../lib/gcc/arm-none-eabi/5.4.1/armv7e-m/fpu/libgcc.a(_aeabi_ldivmod.o)
 .data          0x0000000000000000        0x0 /opt/gcc-arm-none-eabi-5_4-2016q3/bin/../lib/gcc/arm-none-eabi/5.4.1/armv7e-m/fpu/libgcc.a(_popcountsi2.o)
 .bss           0x0000000000000000        0x0 /opt/gcc-arm-none-eabi-5_4-2016q3/bin/../lib/gcc/arm-none-eabi/5.4.1/armv7e-m/fpu/libgcc.a(_popcountsi2.o)
 .data          0x0000000000000000        0x0 /opt/gcc-arm-none-eabi-5_4-2016q3/bin/../lib/gcc/arm-none-eabi/5.4.1/armv7e-m/fpu/libgcc.a(_udivmoddi4.o)
 .bss           0x0000000000000000        0x0 /opt/gcc-arm-none-eabi-5_4-2016q3/bin/../lib/gcc/arm-none-eabi/5.4.1/armv7e-m/fpu/libgcc.a(_udivmoddi4.o)
 .ARM.extab     0x0000000000000000        0x0 /opt/gcc-arm-none-eabi-5_4-2016q3/bin/../lib/gcc/arm-none-eabi/5.4.1/armv7e-m/fpu/libgcc.a(_udivmoddi4.o)
 .data          0x0000000000000000        0x0 /opt/gcc-arm-none-eabi-5_4-2016q3/bin/../lib/gcc/arm-none-eabi/5.4.1/armv7e-m/fpu/libgcc.a(_dvmd_tls.o)
 .bss           0x0000000000000000        0x0 /opt/gcc-arm-none-eabi-5_4-2016q3/bin/../lib/gcc/arm-none-eabi/5.4.1/armv7e-m/fpu/libgcc.a(_dvmd_tls.o)

Memory Configuration

Name             Origin             Length             Attributes
FLASH            0x0000000008000000 0x000000000003f000 xr
FLASH_CONFIG     0x000000000803f000 0x0000000000001000 r
RAM              0x0000000020000000 0x000000000000a000 xrw
MEMORY_B1        0x0000000060000000 0x0000000000000000 xr
*default*        0x0000000000000000 0xffffffffffffffff

Linker script and memory map

LOAD obj/main/SPRACINGF3/startup_stm32f30x_md_gcc.o
LOAD obj/main/SPRACINGF3/target/system_stm32f30x.o
LOAD /var/folders/qz/8dvj07d52mjgthd1ds8wvf400000gn/T//ccg5ycur.ltrans0.ltrans.o
LOAD /var/folders/qz/8dvj07d52mjgthd1ds8wvf400000gn/T//ccg5ycur.ltrans1.ltrans.o
LOAD /var/folders/qz/8dvj07d52mjgthd1ds8wvf400000gn/T//ccg5ycur.ltrans2.ltrans.o
LOAD /var/folders/qz/8dvj07d52mjgthd1ds8wvf400000gn/T//ccg5ycur.ltrans3.ltrans.o
LOAD /var/folders/qz/8dvj07d52mjgthd1ds8wvf400000gn/T//ccg5ycur.ltrans4.ltrans.o
LOAD /var/folders/qz/8dvj07d52mjgthd1ds8wvf400000gn/T//ccg5ycur.ltrans5.ltrans.o
LOAD /var/folders/qz/8dvj07d52mjgthd1ds8wvf400000gn/T//ccg5ycur.ltrans6.ltrans.o
LOAD /var/folders/qz/8dvj07d52mjgthd1ds8wvf400000gn/T//ccg5ycur.ltrans7.ltrans.o
LOAD /var/folders/qz/8dvj07d52mjgthd1ds8wvf400000gn/T//ccg5ycur.ltrans8.ltrans.o
LOAD /var/folders/qz/8dvj07d52mjgthd1ds8wvf400000gn/T//ccg5ycur.ltrans9.ltrans.o
LOAD /var/folders/qz/8dvj07d52mjgthd1ds8wvf400000gn/T//ccg5ycur.ltrans10.ltrans.o
LOAD /var/folders/qz/8dvj07d52mjgthd1ds8wvf400000gn/T//ccg5ycur.ltrans11.ltrans.o
LOAD /var/folders/qz/8dvj07d52mjgthd1ds8wvf400000gn/T//ccg5ycur.ltrans12.ltrans.o
LOAD /var/folders/qz/8dvj07d52mjgthd1ds8wvf400000gn/T//ccg5ycur.ltrans13.ltrans.o
LOAD /var/folders/qz/8dvj07d52mjgthd1ds8wvf400000gn/T//ccg5ycur.ltrans14.ltrans.o
LOAD /var/folders/qz/8dvj07d52mjgthd1ds8wvf400000gn/T//ccg5ycur.ltrans15.ltrans.o
LOAD /var/folders/qz/8dvj07d52mjgthd1ds8wvf400000gn/T//ccg5ycur.ltrans16.ltrans.o
LOAD /var/folders/qz/8dvj07d52mjgthd1ds8wvf400000gn/T//ccg5ycur.ltrans17.ltrans.o
LOAD /var/folders/qz/8dvj07d52mjgthd1ds8wvf400000gn/T//ccg5ycur.ltrans18.ltrans.o
LOAD /var/folders/qz/8dvj07d52mjgthd1ds8wvf400000gn/T//ccg5ycur.ltrans19.ltrans.o
LOAD /var/folders/qz/8dvj07d52mjgthd1ds8wvf400000gn/T//ccg5ycur.ltrans20.ltrans.o
LOAD obj/main/SPRACINGF3/drivers/adc.o
LOAD obj/main/SPRACINGF3/drivers/adc_stm32f30x.o
LOAD obj/main/SPRACINGF3/drivers/bus_i2c_stm32f30x.o
LOAD obj/main/SPRACINGF3/drivers/bus_spi.o
LOAD obj/main/SPRACINGF3/drivers/gpio_stm32f30x.o
LOAD obj/main/SPRACINGF3/drivers/light_led_stm32f30x.o
LOAD obj/main/SPRACINGF3/drivers/serial_uart.o
LOAD obj/main/SPRACINGF3/drivers/serial_uart_stm32f30x.o
LOAD obj/main/SPRACINGF3/drivers/sound_beeper_stm32f30x.o
LOAD obj/main/SPRACINGF3/drivers/system_stm32f30x.o
LOAD obj/main/SPRACINGF3/drivers/display_ug2864hsweg01.o
LOAD obj/main/SPRACINGF3/drivers/timer.o
LOAD obj/main/SPRACINGF3/drivers/timer_stm32f30x.o
LOAD obj/main/SPRACINGF3/drivers/pwm_mapping.o
LOAD obj/main/SPRACINGF3/drivers/pwm_output.o
LOAD obj/main/SPRACINGF3/drivers/pwm_rx.o
LOAD obj/main/SPRACINGF3/drivers/accgyro_mpu.o
LOAD obj/main/SPRACINGF3/drivers/accgyro_mpu6050.o
LOAD obj/main/SPRACINGF3/drivers/barometer_ms5611.o
LOAD obj/main/SPRACINGF3/drivers/compass_ak8975.o
LOAD obj/main/SPRACINGF3/drivers/compass_hmc5883l.o
LOAD obj/main/SPRACINGF3/drivers/flash_m25p16.o
LOAD obj/main/SPRACINGF3/drivers/light_ws2811strip.o
LOAD obj/main/SPRACINGF3/drivers/light_ws2811strip_stm32f30x.o
LOAD obj/main/SPRACINGF3/drivers/serial_softserial.o
LOAD obj/main/SPRACINGF3/drivers/sonar_hcsr04.o
LOAD obj/main/SPRACINGF3/io/flashfs.o
LOAD obj/main/SPRACINGF3/flight/gtune.o
LOAD obj/main/SPRACINGF3/flight/navigation.o
LOAD obj/main/SPRACINGF3/flight/gps_conversion.o
LOAD obj/main/SPRACINGF3/common/colorconversion.o
LOAD obj/main/SPRACINGF3/io/gps.o
LOAD obj/main/SPRACINGF3/io/display.o
LOAD obj/main/SPRACINGF3/telemetry/telemetry.o
LOAD obj/main/SPRACINGF3/telemetry/frsky.o
LOAD obj/main/SPRACINGF3/telemetry/hott.o
LOAD obj/main/SPRACINGF3/telemetry/smartport.o
LOAD obj/main/SPRACINGF3/telemetry/ltm.o
LOAD obj/main/SPRACINGF3/telemetry/mavlink.o
LOAD obj/main/SPRACINGF3/sensors/sonar.o
LOAD obj/main/SPRACINGF3/sensors/barometer.o
LOAD obj/main/SPRACINGF3/blackbox/blackbox.o
LOAD obj/main/SPRACINGF3/blackbox/blackbox_io.o
LOAD obj/main/SPRACINGF3/config/feature.o
LOAD obj/main/SPRACINGF3/config/profile.o
LOAD obj/main/SPRACINGF3/fc/boot.o
LOAD obj/main/SPRACINGF3/fc/cleanflight_fc.o
LOAD obj/main/SPRACINGF3/fc/fc_tasks.o
LOAD obj/main/SPRACINGF3/fc/rate_profile.o
LOAD obj/main/SPRACINGF3/fc/rc_adjustments.o
LOAD obj/main/SPRACINGF3/fc/rc_controls.o
LOAD obj/main/SPRACINGF3/fc/rc_curves.o
LOAD obj/main/SPRACINGF3/fc/fc_serial.o
LOAD obj/main/SPRACINGF3/fc/config.o
LOAD obj/main/SPRACINGF3/fc/runtime_config.o
LOAD obj/main/SPRACINGF3/fc/msp_server_fc.o
LOAD obj/main/SPRACINGF3/flight/altitudehold.o
LOAD obj/main/SPRACINGF3/flight/failsafe.o
LOAD obj/main/SPRACINGF3/flight/pid.o
LOAD obj/main/SPRACINGF3/flight/pid_luxfloat.o
LOAD obj/main/SPRACINGF3/flight/pid_mwrewrite.o
LOAD obj/main/SPRACINGF3/flight/pid_mw23.o
LOAD obj/main/SPRACINGF3/flight/imu.o
LOAD obj/main/SPRACINGF3/flight/mixer.o
LOAD obj/main/SPRACINGF3/flight/servos.o
LOAD obj/main/SPRACINGF3/drivers/bus_i2c_soft.o
LOAD obj/main/SPRACINGF3/drivers/exti.o
LOAD obj/main/SPRACINGF3/drivers/io.o
LOAD obj/main/SPRACINGF3/drivers/rcc.o
LOAD obj/main/SPRACINGF3/drivers/sound_beeper.o
LOAD obj/main/SPRACINGF3/drivers/gyro_sync.o
LOAD obj/main/SPRACINGF3/io/beeper.o
LOAD obj/main/SPRACINGF3/io/gimbal.o
LOAD obj/main/SPRACINGF3/io/motor_and_servo.o
LOAD obj/main/SPRACINGF3/io/serial_4way.o
LOAD obj/main/SPRACINGF3/io/serial_4way_avrootloader.o
LOAD obj/main/SPRACINGF3/io/serial_4way_stk500v2.o
LOAD obj/main/SPRACINGF3/io/serial_cli.o
LOAD obj/main/SPRACINGF3/io/statusindicator.o
LOAD obj/main/SPRACINGF3/rx/rx.o
LOAD obj/main/SPRACINGF3/rx/pwm.o
LOAD obj/main/SPRACINGF3/rx/msp.o
LOAD obj/main/SPRACINGF3/rx/sbus.o
LOAD obj/main/SPRACINGF3/rx/sumd.o
LOAD obj/main/SPRACINGF3/rx/sumh.o
LOAD obj/main/SPRACINGF3/rx/spektrum.o
LOAD obj/main/SPRACINGF3/rx/xbus.o
LOAD obj/main/SPRACINGF3/rx/ibus.o
LOAD obj/main/SPRACINGF3/rx/srxl.o
LOAD obj/main/SPRACINGF3/sensors/sensors.o
LOAD obj/main/SPRACINGF3/sensors/acceleration.o
LOAD obj/main/SPRACINGF3/sensors/battery.o
LOAD obj/main/SPRACINGF3/sensors/boardalignment.o
LOAD obj/main/SPRACINGF3/sensors/compass.o
LOAD obj/main/SPRACINGF3/sensors/gyro.o
LOAD obj/main/SPRACINGF3/sensors/initialisation.o
LOAD obj/main/SPRACINGF3/build/build_config.o
LOAD obj/main/SPRACINGF3/build/debug.o
LOAD obj/main/SPRACINGF3/build/version.o
LOAD obj/main/SPRACINGF3/config/config_streamer.o
LOAD obj/main/SPRACINGF3/config/parameter_group.o
LOAD obj/main/SPRACINGF3/config/config_eeprom.o
LOAD obj/main/SPRACINGF3/common/encoding.o
LOAD obj/main/SPRACINGF3/common/filter.o
LOAD obj/main/SPRACINGF3/common/maths.o
LOAD obj/main/SPRACINGF3/common/printf.o
LOAD obj/main/SPRACINGF3/common/streambuf.o
LOAD obj/main/SPRACINGF3/common/typeconversion.o
LOAD obj/main/SPRACINGF3/common/crc.o
LOAD obj/main/SPRACINGF3/drivers/buf_writer.o
LOAD obj/main/SPRACINGF3/drivers/dma.o
LOAD obj/main/SPRACINGF3/drivers/serial.o
LOAD obj/main/SPRACINGF3/drivers/system.o
LOAD obj/main/SPRACINGF3/scheduler/scheduler.o
LOAD obj/main/SPRACINGF3/io/serial.o
LOAD obj/main/SPRACINGF3/msp/msp.o
LOAD obj/main/SPRACINGF3/msp/msp_serial.o
LOAD obj/main/SPRACINGF3/drivers/nrf2401.o
LOAD obj/main/SPRACINGF3/drivers/fbm320.o
LOAD obj/main/SPRACINGF3/drivers/app.o
LOAD obj/main/SPRACINGF3/drivers/led.o
LOAD obj/main/SPRACINGF3/stm32f30x_gpio.o
LOAD obj/main/SPRACINGF3/stm32f30x_rcc.o
LOAD obj/main/SPRACINGF3/stm32f30x_adc.o
LOAD obj/main/SPRACINGF3/stm32f30x_comp.o
LOAD obj/main/SPRACINGF3/stm32f30x_dac.o
LOAD obj/main/SPRACINGF3/stm32f30x_dbgmcu.o
LOAD obj/main/SPRACINGF3/stm32f30x_dma.o
LOAD obj/main/SPRACINGF3/stm32f30x_exti.o
LOAD obj/main/SPRACINGF3/stm32f30x_flash.o
LOAD obj/main/SPRACINGF3/stm32f30x_hrtim.o
LOAD obj/main/SPRACINGF3/stm32f30x_i2c.o
LOAD obj/main/SPRACINGF3/stm32f30x_iwdg.o
LOAD obj/main/SPRACINGF3/stm32f30x_misc.o
LOAD obj/main/SPRACINGF3/stm32f30x_opamp.o
LOAD obj/main/SPRACINGF3/stm32f30x_pwr.o
LOAD obj/main/SPRACINGF3/stm32f30x_rtc.o
LOAD obj/main/SPRACINGF3/stm32f30x_spi.o
LOAD obj/main/SPRACINGF3/stm32f30x_syscfg.o
LOAD obj/main/SPRACINGF3/stm32f30x_tim.o
LOAD obj/main/SPRACINGF3/stm32f30x_usart.o
LOAD obj/main/SPRACINGF3/stm32f30x_wwdg.o
LOAD /opt/gcc-arm-none-eabi-5_4-2016q3/bin/../lib/gcc/arm-none-eabi/5.4.1/../../../../arm-none-eabi/lib/armv7e-m/fpu/libm.a
LOAD /opt/gcc-arm-none-eabi-5_4-2016q3/bin/../lib/gcc/arm-none-eabi/5.4.1/../../../../arm-none-eabi/lib/armv7e-m/fpu/libc_nano.a
LOAD /opt/gcc-arm-none-eabi-5_4-2016q3/bin/../lib/gcc/arm-none-eabi/5.4.1/../../../../arm-none-eabi/lib/armv7e-m/fpu/libnosys.a
START GROUP
LOAD /opt/gcc-arm-none-eabi-5_4-2016q3/bin/../lib/gcc/arm-none-eabi/5.4.1/armv7e-m/fpu/libgcc.a
LOAD /opt/gcc-arm-none-eabi-5_4-2016q3/bin/../lib/gcc/arm-none-eabi/5.4.1/../../../../arm-none-eabi/lib/armv7e-m/fpu/libg_nano.a
LOAD /opt/gcc-arm-none-eabi-5_4-2016q3/bin/../lib/gcc/arm-none-eabi/5.4.1/../../../../arm-none-eabi/lib/armv7e-m/fpu/libc_nano.a
END GROUP
START GROUP
LOAD /opt/gcc-arm-none-eabi-5_4-2016q3/bin/../lib/gcc/arm-none-eabi/5.4.1/armv7e-m/fpu/libgcc.a
LOAD /opt/gcc-arm-none-eabi-5_4-2016q3/bin/../lib/gcc/arm-none-eabi/5.4.1/../../../../arm-none-eabi/lib/armv7e-m/fpu/libc_nano.a
END GROUP
                0x000000002000a000                _estack = (ORIGIN (RAM) + LENGTH (RAM))
                0x000000000803f000                __config_start = (ORIGIN (FLASH) + LENGTH (FLASH))
                0x0000000008040000                __config_end = (ORIGIN (FLASH_CONFIG) + LENGTH (FLASH_CONFIG))
                0x0000000000000000                _Min_Heap_Size = 0x0
                0x0000000000000400                _Min_Stack_Size = 0x400

.isr_vector     0x0000000008000000      0x188
                0x0000000008000000                . = ALIGN (0x4)
                [!provide]                        PROVIDE (isr_vector_table_base, .)
 *(.isr_vector)
 .isr_vector    0x0000000008000000      0x188 obj/main/SPRACINGF3/startup_stm32f30x_md_gcc.o
                0x0000000008000000                g_pfnVectors
                0x0000000008000188                . = ALIGN (0x4)

.text           0x0000000008000188    0x11978
                0x0000000008000188                . = ALIGN (0x4)
 *(.text)
 .text          0x0000000008000188     0x1488 /var/folders/qz/8dvj07d52mjgthd1ds8wvf400000gn/T//ccg5ycur.ltrans1.ltrans.o
                0x0000000008000188                mspSerialProcess
 .text          0x0000000008001610     0x1034 /var/folders/qz/8dvj07d52mjgthd1ds8wvf400000gn/T//ccg5ycur.ltrans2.ltrans.o
                0x0000000008001610                taskUpdateRxMain
 .text          0x0000000008002644      0xd2c /var/folders/qz/8dvj07d52mjgthd1ds8wvf400000gn/T//ccg5ycur.ltrans3.ltrans.o
                0x0000000008002644                pwmOverflowCallback.lto_priv.262
                0x000000000800266c                ppmEdgeCallback.lto_priv.263
                0x00000000080027c8                ppmOverflowCallback.lto_priv.264
                0x0000000008002800                pwmWriteStandard.lto_priv.259
                0x0000000008002810                pwmWriteBrushed.lto_priv.260
                0x000000000800293a                uartRead
                0x000000000800296a                isUartTransmitBufferEmpty
                0x0000000008002980                uartTotalTxBytesFree
                0x00000000080029a8                uartTotalRxBytesWaiting
                0x00000000080029fa                handleUsartTxDma.lto_priv.107
                0x0000000008002a34                uartWrite
                0x0000000008002a84                pwmEdgeCallback.lto_priv.261
                0x0000000008002b70                TIM1_TRG_COM_TIM17_IRQHandler
                0x0000000008002b80                TIM1_BRK_TIM15_IRQHandler
                0x0000000008002b90                TIM4_IRQHandler
                0x0000000008002ba0                TIM3_IRQHandler
                0x0000000008002bb0                TIM2_IRQHandler
                0x0000000008002bbc                TIM1_UP_TIM16_IRQHandler
                0x0000000008002be0                TIM1_CC_IRQHandler
                0x0000000008002bf0                timerConfigure
                0x0000000008002c44                lookupTimerIndex.lto_priv.184
                0x0000000008002c9c                timerChConfigCallbacks
                0x0000000008002d4c                USART3_IRQHandler
                0x0000000008002d54                USART2_IRQHandler
                0x0000000008002d5c                USART1_IRQHandler
                0x0000000008002d64                uartReconfigure.lto_priv.109
                0x0000000008002e88                uartSetMode
                0x0000000008002e8c                uartSetBaudRate
                0x0000000008002e90                gpioInit
                0x0000000008002ee4                pwmOutConfig.lto_priv.267
                0x0000000008003104                i2cRead
                0x0000000008003224                i2cWrite
                0x0000000008003308                SystemInit
 .text          0x0000000008003370     0x12b4 /var/folders/qz/8dvj07d52mjgthd1ds8wvf400000gn/T//ccg5ycur.ltrans4.ltrans.o
                0x0000000008003370                taskMainPidLoopChecker
 .text          0x0000000008004624      0xdb4 /var/folders/qz/8dvj07d52mjgthd1ds8wvf400000gn/T//ccg5ycur.ltrans5.ltrans.o
                0x0000000008004624                cliHelp.lto_priv.212
                0x0000000008004668                cliFeature.lto_priv.211
                0x0000000008004774                cliExit.lto_priv.210
                0x0000000008004858                cliAux.lto_priv.208
                0x0000000008004938                cliShowParseError.lto_priv.140
                0x0000000008004944                cliMap.lto_priv.213
                0x00000000080049e0                cliRxRange.lto_priv.215
                0x0000000008004aa8                cliMotorMix.lto_priv.214
                0x0000000008004cc0                cliAdjustmentRange.lto_priv.207
                0x0000000008004e08                cliSerial.lto_priv.217
                0x0000000008004f68                cliRxFail.lto_priv.216
                0x0000000008005080                cliDump.lto_priv.209
                0x0000000008005338                cliPrompt.lto_priv.114
                0x0000000008005354                _CMD_LOAD_ADDRESS.isra.1.lto_priv.166
                0x00000000080053ac                Stk_SignOn
 .text          0x00000000080053d8      0xcec /var/folders/qz/8dvj07d52mjgthd1ds8wvf400000gn/T//ccg5ycur.ltrans6.ltrans.o
                0x0000000008005d64                msp4WayIfFn
                0x0000000008005d78                writeByteCrc.lto_priv.164
                0x0000000008005db4                readByteCrc.lto_priv.165
                0x0000000008005dfc                EXTI15_10_IRQHandler
                0x0000000008005e00                EXTI0_IRQHandler
                0x0000000008005e04                EXTI9_5_IRQHandler
                0x0000000008005e08                EXTI4_IRQHandler
                0x0000000008005e0c                EXTI3_IRQHandler
                0x0000000008005e10                EXTI2_TS_IRQHandler
                0x0000000008005e14                EXTI1_IRQHandler
                0x0000000008005e18                writeMotors
                0x0000000008005ed0                stopMotors
                0x0000000008005f1c                mspRebootFn
                0x0000000008005f3c                mixerResetDisarmedMotors
                0x0000000008005f74                imuComputeRotationMatrix.lto_priv.234
                0x0000000008006030                pidSetController
                0x0000000008006054                failsafeActivate.lto_priv.197
                0x0000000008006090                findBoxByBoxId.lto_priv.112
                0x00000000080060b4                disableFlightMode
 .text          0x00000000080060c4      0xaf8 /var/folders/qz/8dvj07d52mjgthd1ds8wvf400000gn/T//ccg5ycur.ltrans7.ltrans.o
                0x000000000800614a                setTaskEnabled
                0x0000000008006200                micros
                0x0000000008006234                delayMicroseconds
                0x000000000800624a                delay
                0x000000000800625e                waitForSerialPortToFinishTransmitting
                0x0000000008006276                failureMode
                0x00000000080062c8                SysTick_Handler
                0x00000000080062d8                serialEndWrite
                0x00000000080062e2                serialBeginWrite
                0x00000000080062ec                serialRead
                0x00000000080062f2                serialRxBytesWaiting
                0x00000000080062f8                serialWrite
                0x000000000800633a                mspSerialEncode
                0x00000000080063c2                serialWriteBufShim
                0x00000000080063c4                _putc.lto_priv.266
                0x00000000080063d0                DMA1_Channel7_IRQHandler
                0x00000000080063d8                DMA1_Channel6_IRQHandler
                0x00000000080063e0                DMA1_Channel5_IRQHandler
                0x00000000080063e8                DMA1_Channel4_IRQHandler
                0x00000000080063f0                DMA1_Channel3_IRQHandler
                0x00000000080063f8                DMA1_Channel2_IRQHandler
                0x0000000008006400                DMA1_Channel1_IRQHandler
                0x0000000008006408                bufWriterFlush
                0x0000000008006420                bufWriterAppend
                0x0000000008006440                fastA2F
                0x0000000008006550                ftoa
                0x0000000008006618                _i2a.lto_priv.110
                0x0000000008006640                ui2a
                0x0000000008006640                uli2a
                0x000000000800668c                sbufReadU32
                0x00000000080066b8                sbufReadU16
                0x00000000080066ce                sbufWriteData
                0x00000000080066e2                sbufWriteU32
                0x000000000800670a                sbufWriteU16
                0x000000000800671e                quickMedianFilter3
                0x000000000800673c                applyDeadband
                0x000000000800675a                acosf
                0x00000000080067c0                atan2f
                0x00000000080068a4                sinf
                0x0000000008006968                cosf
                0x0000000008006978                pt1FilterApply4
                0x00000000080069d0                pgActivateProfile
                0x00000000080069fc                pgResetInstance.lto_priv.190
                0x0000000008006a44                scanEEPROM.part.4
                0x0000000008006b30                pgResetCurrent
                0x0000000008006b42                write_word.lto_priv.189
                0x0000000008006b8a                config_streamer_write
 .text          0x0000000008006bbc      0xa4c /var/folders/qz/8dvj07d52mjgthd1ds8wvf400000gn/T//ccg5ycur.ltrans8.ltrans.o
                0x0000000008006bbc                pgResetFn_serialConfig
                0x0000000008006c08                pgResetFn_controlRateProfiles
                0x0000000008006c28                taskCalculateAltitude
                0x0000000008006eac                enableFlightMode
                0x0000000008006ebc                handleOneshotFeatureChangeOnRestart
                0x0000000008006f10                writeEEPROM
                0x00000000080070f0                resetConf.lto_priv.113
                0x00000000080071b8                generateThrottleCurve
                0x000000000800724c                generateYawCurve
                0x0000000008007280                generatePitchRollCurve
                0x00000000080072bc                readEEPROM
                0x0000000008007594                isRangeActive.part.0
                0x00000000080075e0                getRcStickDeflection
 .text          0x0000000008007608      0x664 /var/folders/qz/8dvj07d52mjgthd1ds8wvf400000gn/T//ccg5ycur.ltrans9.ltrans.o
                0x0000000008007608                uartOpen.constprop.65
                0x00000000080079c8                accSetCalibrationCycles.constprop.47
                0x00000000080079d8                FLASH_WaitForLastOperation.constprop.30
                0x00000000080079fc                parseRcChannels.constprop.25
                0x0000000008007a3c                calculateThrottleStatus.constprop.22
                0x0000000008007a70                setAdjustment.isra.0.constprop.21
                0x0000000008007a84                putchw.constprop.4
                0x0000000008007ada                itoa.constprop.1
                0x0000000008007afe                TIM_ICInit
                0x0000000008007c0a                I2C_Init
 .text          0x0000000008007c6c      0x754 /var/folders/qz/8dvj07d52mjgthd1ds8wvf400000gn/T//ccg5ycur.ltrans10.ltrans.o
                0x0000000008007d54                mpuIsDataReady
                0x0000000008007d68                mpuGyroRead
                0x0000000008007db0                mpuAccRead
                0x0000000008007fce                mpuWriteRegisterI2C.lto_priv.254
                0x0000000008007fd8                mpuReadRegisterI2C.lto_priv.253
                0x0000000008008190                mpu6050GyroInit.lto_priv.252
                0x00000000080081f4                mpu6050AccInit.lto_priv.251
                0x000000000800821c                openSoftSerial
                0x0000000008008384                pwmICConfig
 .text          0x00000000080083c0      0x9f8 /var/folders/qz/8dvj07d52mjgthd1ds8wvf400000gn/T//ccg5ycur.ltrans11.ltrans.o
                0x00000000080083c0                LED_loop
                0x00000000080084c4                App_DataReceive.lto_priv.240
                0x0000000008008540                FLASH_ErasePage.part.4
                0x0000000008008568                FLASH_GetStatus
                0x0000000008008590                FLASH_ProgramWord
                0x00000000080085d8                FLASH_Unlock
                0x00000000080085f4                DMA_Init
                0x0000000008008630                DMA_DeInit
                0x0000000008008720                RCC_GetClocksFreq
                0x0000000008008a00                GPIO_Init
                0x0000000008008a8a                calculate_real_pressure
                0x0000000008008ba4                Read_data
                0x0000000008008be8                taskFbm320
                0x0000000008008d30                SetRX_Mode
                0x0000000008008d94                NRF_Read_Buf.lto_priv.198
 .text          0x0000000008008db8      0x788 /var/folders/qz/8dvj07d52mjgthd1ds8wvf400000gn/T//ccg5ycur.ltrans12.ltrans.o
                0x0000000008008db8                taskUpdateRxCheck
                0x0000000008008e70                taskUpdateBattery
                0x00000000080090c4                taskHandleSerial
                0x0000000008009320                taskUpdateAccelerometer
 .text          0x0000000008009540      0x5c0 /var/folders/qz/8dvj07d52mjgthd1ds8wvf400000gn/T//ccg5ycur.ltrans13.ltrans.o
                0x0000000008009540                esc4wayProcess
 .text          0x0000000008009b00      0x5b4 /var/folders/qz/8dvj07d52mjgthd1ds8wvf400000gn/T//ccg5ycur.ltrans14.ltrans.o
                0x0000000008009b00                cliPutp.lto_priv.108
                0x0000000008009b04                cliVarPtr.lto_priv.126
                0x0000000008009b6c                cliWrite.lto_priv.156
                0x0000000008009b7c                cliPrintf.lto_priv.124
                0x0000000008009d50                cliPrintVar.lto_priv.125
                0x0000000008009e2c                cliRateProfile.lto_priv.149
                0x0000000008009e78                cliProfile.lto_priv.148
                0x0000000008009eb0                cliPlaySound.lto_priv.147
                0x0000000008009eec                cliMotor.lto_priv.146
                0x0000000008009f88                cliPrint.lto_priv.115
                0x0000000008009fa4                cliMixer.lto_priv.145
                0x000000000800a044                cliReboot.lto_priv.155
                0x000000000800a080                cliDefaults.lto_priv.143
                0x000000000800a09c                cliSave.lto_priv.150
 .text          0x000000000800a0b4      0x654 /var/folders/qz/8dvj07d52mjgthd1ds8wvf400000gn/T//ccg5ycur.ltrans15.ltrans.o
                0x000000000800a1e4                StkRcvPacket.lto_priv.160
                0x000000000800a2c0                StkSendByte.lto_priv.158
                0x000000000800a344                StkSendPacketFooter.lto_priv.159
                0x000000000800a37c                StkSendPacketHeader.lto_priv.157
                0x000000000800a3d8                _CMD_PROGRAM_MEM_ISP.lto_priv.167
                0x000000000800a450                _CMD_READ_MEM_ISP.lto_priv.169
                0x000000000800a488                crc16Byte.lto_priv.175
                0x000000000800a4ac                BL_SendBuf.lto_priv.172
                0x000000000800a518                suart_getc.lto_priv.174
                0x000000000800a59c                BL_GetACK.lto_priv.173
                0x000000000800a5b4                BL_SendCMDSetAddress.isra.1.lto_priv.171
                0x000000000800a5f8                BL_ReadA.lto_priv.170
                0x000000000800a68e                BL_WriteA.lto_priv.168
 .text          0x000000000800a708      0x770 /var/folders/qz/8dvj07d52mjgthd1ds8wvf400000gn/T//ccg5ycur.ltrans16.ltrans.o
                0x000000000800a708                pgResetFn_accelerometerConfig
                0x000000000800a734                rxMspReadRawRC.lto_priv.248
                0x000000000800a740                ppmReadRawRC.lto_priv.247
                0x000000000800a74c                pwmReadRawRC.lto_priv.246
                0x000000000800a758                nullReadRawRC.lto_priv.196
                0x000000000800a75c                pgResetFn_failsafeChannelConfigs
                0x000000000800a7c8                pgResetFn_channelRanges
                0x000000000800a7e2                cliVersion.lto_priv.154
                0x000000000800a818                cliTasks.lto_priv.153
                0x000000000800a8dc                cliStatus.lto_priv.152
                0x000000000800a9fc                cliGet.lto_priv.144
                0x000000000800aa60                cliSet.lto_priv.151
                0x000000000800ac60                alignSensors
                0x000000000800ad64                batteryAdcToVoltage
                0x000000000800ad98                updateBatteryVoltage.lto_priv.218
                0x000000000800ae20                resumeRxSignal
                0x000000000800ae4c                suspendRxSignal
 .text          0x000000000800ae78       0xe4 /var/folders/qz/8dvj07d52mjgthd1ds8wvf400000gn/T//ccg5ycur.ltrans17.ltrans.o
                0x000000000800ae78                spiTransferByte.constprop.79
                0x000000000800aeb8                spiTransfer.constprop.78
                0x000000000800af1c                NVIC_Init.part.0.constprop.73
 .text          0x000000000800af5c       0xc4 /var/folders/qz/8dvj07d52mjgthd1ds8wvf400000gn/T//ccg5ycur.ltrans18.ltrans.o
                0x000000000800af5c                mwArm
                0x000000000800afbc                mwDisarm
                0x000000000800afd0                isCalibrating
                0x000000000800b008                HardFault_Handler
 .text          0x000000000800b020       0xa8 /var/folders/qz/8dvj07d52mjgthd1ds8wvf400000gn/T//ccg5ycur.ltrans19.ltrans.o
                0x000000000800b020                taskUpdateBaro
 .text          0x000000000800b0c8       0x24 /var/folders/qz/8dvj07d52mjgthd1ds8wvf400000gn/T//ccg5ycur.ltrans20.ltrans.o
                0x000000000800b0c8                NRF_Write_Reg.lto_priv.111
 .text          0x000000000800b0ec       0x14 /opt/gcc-arm-none-eabi-5_4-2016q3/bin/../lib/gcc/arm-none-eabi/5.4.1/../../../../arm-none-eabi/lib/armv7e-m/fpu/libc_nano.a(lib_a-strcmp.o)
                0x000000000800b0ec                strcmp
 .text          0x000000000800b100       0x10 /opt/gcc-arm-none-eabi-5_4-2016q3/bin/../lib/gcc/arm-none-eabi/5.4.1/../../../../arm-none-eabi/lib/armv7e-m/fpu/libc_nano.a(lib_a-strlen.o)
                0x000000000800b100                strlen
 .text          0x000000000800b110      0x370 /opt/gcc-arm-none-eabi-5_4-2016q3/bin/../lib/gcc/arm-none-eabi/5.4.1/armv7e-m/fpu/libgcc.a(_arm_addsubdf3.o)
                0x000000000800b110                __aeabi_drsub
                0x000000000800b118                __subdf3
                0x000000000800b118                __aeabi_dsub
                0x000000000800b11c                __aeabi_dadd
                0x000000000800b11c                __adddf3
                0x000000000800b394                __aeabi_ui2d
                0x000000000800b394                __floatunsidf
                0x000000000800b3b4                __floatsidf
                0x000000000800b3b4                __aeabi_i2d
                0x000000000800b3d8                __extendsfdf2
                0x000000000800b3d8                __aeabi_f2d
                0x000000000800b414                __aeabi_ul2d
                0x000000000800b414                __floatundidf
                0x000000000800b424                __aeabi_l2d
                0x000000000800b424                __floatdidf
 .text          0x000000000800b480      0x424 /opt/gcc-arm-none-eabi-5_4-2016q3/bin/../lib/gcc/arm-none-eabi/5.4.1/armv7e-m/fpu/libgcc.a(_arm_muldivdf3.o)
                0x000000000800b480                __aeabi_dmul
                0x000000000800b480                __muldf3
                0x000000000800b6d4                __aeabi_ddiv
                0x000000000800b6d4                __divdf3
 .text          0x000000000800b8a4      0x110 /opt/gcc-arm-none-eabi-5_4-2016q3/bin/../lib/gcc/arm-none-eabi/5.4.1/armv7e-m/fpu/libgcc.a(_arm_cmpdf2.o)
                0x000000000800b8a4                __gtdf2
                0x000000000800b8a4                __gedf2
                0x000000000800b8ac                __ltdf2
                0x000000000800b8ac                __ledf2
                0x000000000800b8b4                __eqdf2
                0x000000000800b8b4                __nedf2
                0x000000000800b8b4                __cmpdf2
                0x000000000800b930                __aeabi_cdrcmple
                0x000000000800b940                __aeabi_cdcmple
                0x000000000800b940                __aeabi_cdcmpeq
                0x000000000800b950                __aeabi_dcmpeq
                0x000000000800b964                __aeabi_dcmplt
                0x000000000800b978                __aeabi_dcmple
                0x000000000800b98c                __aeabi_dcmpge
                0x000000000800b9a0                __aeabi_dcmpgt
 .text          0x000000000800b9b4       0x2c /opt/gcc-arm-none-eabi-5_4-2016q3/bin/../lib/gcc/arm-none-eabi/5.4.1/armv7e-m/fpu/libgcc.a(_arm_unorddf2.o)
                0x000000000800b9b4                __aeabi_dcmpun
                0x000000000800b9b4                __unorddf2
 .text          0x000000000800b9e0       0xa0 /opt/gcc-arm-none-eabi-5_4-2016q3/bin/../lib/gcc/arm-none-eabi/5.4.1/armv7e-m/fpu/libgcc.a(_arm_truncdfsf2.o)
                0x000000000800b9e0                __aeabi_d2f
                0x000000000800b9e0                __truncdfsf2
 .text          0x000000000800ba80       0xa0 /opt/gcc-arm-none-eabi-5_4-2016q3/bin/../lib/gcc/arm-none-eabi/5.4.1/armv7e-m/fpu/libgcc.a(_aeabi_ldivmod.o)
                0x000000000800ba80                __aeabi_ldivmod
 .text          0x000000000800bb20       0x28 /opt/gcc-arm-none-eabi-5_4-2016q3/bin/../lib/gcc/arm-none-eabi/5.4.1/armv7e-m/fpu/libgcc.a(_popcountsi2.o)
                0x000000000800bb20                __popcountsi2
 .text          0x000000000800bb48      0x2e4 /opt/gcc-arm-none-eabi-5_4-2016q3/bin/../lib/gcc/arm-none-eabi/5.4.1/armv7e-m/fpu/libgcc.a(_udivmoddi4.o)
                0x000000000800bb48                __udivmoddi4
 .text          0x000000000800be2c        0x4 /opt/gcc-arm-none-eabi-5_4-2016q3/bin/../lib/gcc/arm-none-eabi/5.4.1/armv7e-m/fpu/libgcc.a(_dvmd_tls.o)
                0x000000000800be2c                __aeabi_ldiv0
                0x000000000800be2c                __aeabi_idiv0
 *(.text*)
 .text.Reset_Handler
                0x000000000800be30       0x68 obj/main/SPRACINGF3/startup_stm32f30x_md_gcc.o
                0x000000000800be30                Reset_Handler
 .text.Default_Handler
                0x000000000800be98        0x2 obj/main/SPRACINGF3/startup_stm32f30x_md_gcc.o
                0x000000000800be98                DMA2_Channel3_IRQHandler
                0x000000000800be98                TIM8_TRG_COM_IRQHandler
                0x000000000800be98                TIM8_CC_IRQHandler
                0x000000000800be98                DebugMon_Handler
                0x000000000800be98                USB_HP_IRQHandler
                0x000000000800be98                PVD_IRQHandler
                0x000000000800be98                PendSV_Handler
                0x000000000800be98                NMI_Handler
                0x000000000800be98                I2C2_EV_IRQHandler
                0x000000000800be98                FPU_IRQHandler
                0x000000000800be98                UsageFault_Handler
                0x000000000800be98                ADC1_2_IRQHandler
                0x000000000800be98                SPI1_IRQHandler
                0x000000000800be98                TIM6_DAC_IRQHandler
                0x000000000800be98                TIM8_UP_IRQHandler
                0x000000000800be98                DMA2_Channel2_IRQHandler
                0x000000000800be98                CAN1_RX1_IRQHandler
                0x000000000800be98                UART5_IRQHandler
                0x000000000800be98                ADC3_IRQHandler
                0x000000000800be98                DMA2_Channel1_IRQHandler
                0x000000000800be98                I2C1_EV_IRQHandler
                0x000000000800be98                UART4_IRQHandler
                0x000000000800be98                DMA2_Channel4_IRQHandler
                0x000000000800be98                RCC_IRQHandler
                0x000000000800be98                Default_Handler
                0x000000000800be98                USBWakeUp_RMP_IRQHandler
                0x000000000800be98                TIM7_IRQHandler
                0x000000000800be98                TAMPER_STAMP_IRQHandler
                0x000000000800be98                RTC_WKUP_IRQHandler
                0x000000000800be98                SPI2_IRQHandler
                0x000000000800be98                MemManage_Handler
                0x000000000800be98                SVC_Handler
                0x000000000800be98                DMA2_Channel5_IRQHandler
                0x000000000800be98                USB_LP_IRQHandler
                0x000000000800be98                USB_LP_CAN1_RX0_IRQHandler
                0x000000000800be98                USB_HP_CAN1_TX_IRQHandler
                0x000000000800be98                ADC4_IRQHandler
                0x000000000800be98                WWDG_IRQHandler
                0x000000000800be98                COMP7_IRQHandler
                0x000000000800be98                COMP1_2_3_IRQHandler
                0x000000000800be98                COMP4_5_6_IRQHandler
                0x000000000800be98                I2C2_ER_IRQHandler
                0x000000000800be98                TIM8_BRK_IRQHandler
                0x000000000800be98                CAN1_SCE_IRQHandler
                0x000000000800be98                FLASH_IRQHandler
                0x000000000800be98                BusFault_Handler
                0x000000000800be98                SPI3_IRQHandler
                0x000000000800be98                I2C1_ER_IRQHandler
                0x000000000800be98                USBWakeUp_IRQHandler
                0x000000000800be98                RTC_Alarm_IRQHandler
 *fill*         0x000000000800be9a        0x2 
 .text.startup  0x000000000800be9c     0x1af0 /var/folders/qz/8dvj07d52mjgthd1ds8wvf400000gn/T//ccg5ycur.ltrans0.ltrans.o
                0x000000000800be9c                main
 .text.atoi     0x000000000800d98c        0x8 /opt/gcc-arm-none-eabi-5_4-2016q3/bin/../lib/gcc/arm-none-eabi/5.4.1/../../../../arm-none-eabi/lib/armv7e-m/fpu/libc_nano.a(lib_a-atoi.o)
                0x000000000800d98c                atoi
 .text.__get_current_locale
                0x000000000800d994       0x18 /opt/gcc-arm-none-eabi-5_4-2016q3/bin/../lib/gcc/arm-none-eabi/5.4.1/../../../../arm-none-eabi/lib/armv7e-m/fpu/libc_nano.a(lib_a-locale.o)
 .text.__locale_ctype_ptr_l
                0x000000000800d9ac        0x6 /opt/gcc-arm-none-eabi-5_4-2016q3/bin/../lib/gcc/arm-none-eabi/5.4.1/../../../../arm-none-eabi/lib/armv7e-m/fpu/libc_nano.a(lib_a-locale.o)
                0x000000000800d9ac                __locale_ctype_ptr_l
 *fill*         0x000000000800d9b2        0x2 
 .text.__locale_ctype_ptr
                0x000000000800d9b4       0x14 /opt/gcc-arm-none-eabi-5_4-2016q3/bin/../lib/gcc/arm-none-eabi/5.4.1/../../../../arm-none-eabi/lib/armv7e-m/fpu/libc_nano.a(lib_a-locale.o)
                0x000000000800d9b4                __locale_ctype_ptr
 .text.__ascii_mbtowc
                0x000000000800d9c8       0x24 /opt/gcc-arm-none-eabi-5_4-2016q3/bin/../lib/gcc/arm-none-eabi/5.4.1/../../../../arm-none-eabi/lib/armv7e-m/fpu/libc_nano.a(lib_a-mbtowc_r.o)
                0x000000000800d9c8                __ascii_mbtowc
 .text.__strtok_r
                0x000000000800d9ec       0x56 /opt/gcc-arm-none-eabi-5_4-2016q3/bin/../lib/gcc/arm-none-eabi/5.4.1/../../../../arm-none-eabi/lib/armv7e-m/fpu/libc_nano.a(lib_a-strtok_r.o)
                0x000000000800d9ec                __strtok_r
 .text.strtok_r
                0x000000000800da42        0x6 /opt/gcc-arm-none-eabi-5_4-2016q3/bin/../lib/gcc/arm-none-eabi/5.4.1/../../../../arm-none-eabi/lib/armv7e-m/fpu/libc_nano.a(lib_a-strtok_r.o)
                0x000000000800da42                strtok_r
 .text._strtol_l.isra.0
                0x000000000800da48      0x110 /opt/gcc-arm-none-eabi-5_4-2016q3/bin/../lib/gcc/arm-none-eabi/5.4.1/../../../../arm-none-eabi/lib/armv7e-m/fpu/libc_nano.a(lib_a-strtol.o)
 .text.strtol   0x000000000800db58       0x2c /opt/gcc-arm-none-eabi-5_4-2016q3/bin/../lib/gcc/arm-none-eabi/5.4.1/../../../../arm-none-eabi/lib/armv7e-m/fpu/libc_nano.a(lib_a-strtol.o)
                0x000000000800db58                strtol
 .text.__ascii_wctomb
                0x000000000800db84       0x1a /opt/gcc-arm-none-eabi-5_4-2016q3/bin/../lib/gcc/arm-none-eabi/5.4.1/../../../../arm-none-eabi/lib/armv7e-m/fpu/libc_nano.a(lib_a-wctomb_r.o)
                0x000000000800db84                __ascii_wctomb
 *fill*         0x000000000800db9e        0x2 
 .text.lrintf   0x000000000800dba0       0x90 /opt/gcc-arm-none-eabi-5_4-2016q3/bin/../lib/gcc/arm-none-eabi/5.4.1/../../../../arm-none-eabi/lib/armv7e-m/fpu/libm.a(lib_a-sf_lrint.o)
                0x000000000800dba0                lrintf
 .text.pow      0x000000000800dc30      0x338 /opt/gcc-arm-none-eabi-5_4-2016q3/bin/../lib/gcc/arm-none-eabi/5.4.1/../../../../arm-none-eabi/lib/armv7e-m/fpu/libm.a(lib_a-w_pow.o)
                0x000000000800dc30                pow
 .text.sqrtf    0x000000000800df68       0xac /opt/gcc-arm-none-eabi-5_4-2016q3/bin/../lib/gcc/arm-none-eabi/5.4.1/../../../../arm-none-eabi/lib/armv7e-m/fpu/libm.a(lib_a-wf_sqrt.o)
                0x000000000800df68                sqrtf
 *fill*         0x000000000800e014        0x4 
 .text.__ieee754_pow
                0x000000000800e018      0xb10 /opt/gcc-arm-none-eabi-5_4-2016q3/bin/../lib/gcc/arm-none-eabi/5.4.1/../../../../arm-none-eabi/lib/armv7e-m/fpu/libm.a(lib_a-e_pow.o)
                0x000000000800e018                __ieee754_pow
 .text.__ieee754_sqrt
                0x000000000800eb28      0x1a0 /opt/gcc-arm-none-eabi-5_4-2016q3/bin/../lib/gcc/arm-none-eabi/5.4.1/../../../../arm-none-eabi/lib/armv7e-m/fpu/libm.a(lib_a-e_sqrt.o)
                0x000000000800eb28                __ieee754_sqrt
 .text.__ieee754_sqrtf
                0x000000000800ecc8       0xa4 /opt/gcc-arm-none-eabi-5_4-2016q3/bin/../lib/gcc/arm-none-eabi/5.4.1/../../../../arm-none-eabi/lib/armv7e-m/fpu/libm.a(lib_a-ef_sqrt.o)
                0x000000000800ecc8                __ieee754_sqrtf
 .text.fabs     0x000000000800ed6c       0x10 /opt/gcc-arm-none-eabi-5_4-2016q3/bin/../lib/gcc/arm-none-eabi/5.4.1/../../../../arm-none-eabi/lib/armv7e-m/fpu/libm.a(lib_a-s_fabs.o)
                0x000000000800ed6c                fabs
 .text.finite   0x000000000800ed7c       0x10 /opt/gcc-arm-none-eabi-5_4-2016q3/bin/../lib/gcc/arm-none-eabi/5.4.1/../../../../arm-none-eabi/lib/armv7e-m/fpu/libm.a(lib_a-s_finite.o)
                0x000000000800ed7c                finite
 .text.matherr  0x000000000800ed8c        0x4 /opt/gcc-arm-none-eabi-5_4-2016q3/bin/../lib/gcc/arm-none-eabi/5.4.1/../../../../arm-none-eabi/lib/armv7e-m/fpu/libm.a(lib_a-s_matherr.o)
                0x000000000800ed8c                matherr
 .text.nan      0x000000000800ed90       0x10 /opt/gcc-arm-none-eabi-5_4-2016q3/bin/../lib/gcc/arm-none-eabi/5.4.1/../../../../arm-none-eabi/lib/armv7e-m/fpu/libm.a(lib_a-s_nan.o)
                0x000000000800ed90                nan
 .text.rint     0x000000000800eda0      0x128 /opt/gcc-arm-none-eabi-5_4-2016q3/bin/../lib/gcc/arm-none-eabi/5.4.1/../../../../arm-none-eabi/lib/armv7e-m/fpu/libm.a(lib_a-s_rint.o)
                0x000000000800eda0                rint
 .text.scalbn   0x000000000800eec8      0x10c /opt/gcc-arm-none-eabi-5_4-2016q3/bin/../lib/gcc/arm-none-eabi/5.4.1/../../../../arm-none-eabi/lib/armv7e-m/fpu/libm.a(lib_a-s_scalbn.o)
                0x000000000800eec8                scalbn
 .text.copysign
                0x000000000800efd4       0x1c /opt/gcc-arm-none-eabi-5_4-2016q3/bin/../lib/gcc/arm-none-eabi/5.4.1/../../../../arm-none-eabi/lib/armv7e-m/fpu/libm.a(lib_a-s_copysign.o)
                0x000000000800efd4                copysign
 .text.__errno  0x000000000800eff0        0xc /opt/gcc-arm-none-eabi-5_4-2016q3/bin/../lib/gcc/arm-none-eabi/5.4.1/../../../../arm-none-eabi/lib/armv7e-m/fpu/libc_nano.a(lib_a-errno.o)
                0x000000000800eff0                __errno
 .text.memcmp   0x000000000800effc       0x1e /opt/gcc-arm-none-eabi-5_4-2016q3/bin/../lib/gcc/arm-none-eabi/5.4.1/../../../../arm-none-eabi/lib/armv7e-m/fpu/libc_nano.a(lib_a-memcmp.o)
                0x000000000800effc                memcmp
 .text.memcpy   0x000000000800f01a       0x16 /opt/gcc-arm-none-eabi-5_4-2016q3/bin/../lib/gcc/arm-none-eabi/5.4.1/../../../../arm-none-eabi/lib/armv7e-m/fpu/libc_nano.a(lib_a-memcpy-stub.o)
                0x000000000800f01a                memcpy
 .text.memmove  0x000000000800f030       0x36 /opt/gcc-arm-none-eabi-5_4-2016q3/bin/../lib/gcc/arm-none-eabi/5.4.1/../../../../arm-none-eabi/lib/armv7e-m/fpu/libc_nano.a(lib_a-memmove.o)
                0x000000000800f030                memmove
 .text.memset   0x000000000800f066       0x10 /opt/gcc-arm-none-eabi-5_4-2016q3/bin/../lib/gcc/arm-none-eabi/5.4.1/../../../../arm-none-eabi/lib/armv7e-m/fpu/libc_nano.a(lib_a-memset.o)
                0x000000000800f066                memset
 .text.strcasecmp
                0x000000000800f076       0x40 /opt/gcc-arm-none-eabi-5_4-2016q3/bin/../lib/gcc/arm-none-eabi/5.4.1/../../../../arm-none-eabi/lib/armv7e-m/fpu/libc_nano.a(lib_a-strcasecmp.o)
                0x000000000800f076                strcasecmp
 .text.strcat   0x000000000800f0b6       0x1e /opt/gcc-arm-none-eabi-5_4-2016q3/bin/../lib/gcc/arm-none-eabi/5.4.1/../../../../arm-none-eabi/lib/armv7e-m/fpu/libc_nano.a(lib_a-strcat.o)
                0x000000000800f0b6                strcat
 .text.strchr   0x000000000800f0d4       0x1c /opt/gcc-arm-none-eabi-5_4-2016q3/bin/../lib/gcc/arm-none-eabi/5.4.1/../../../../arm-none-eabi/lib/armv7e-m/fpu/libc_nano.a(lib_a-strchr.o)
                0x000000000800f0d4                strchr
 .text.strncasecmp
                0x000000000800f0f0       0x52 /opt/gcc-arm-none-eabi-5_4-2016q3/bin/../lib/gcc/arm-none-eabi/5.4.1/../../../../arm-none-eabi/lib/armv7e-m/fpu/libc_nano.a(lib_a-strncasecmp.o)
                0x000000000800f0f0                strncasecmp
 .text.strncpy  0x000000000800f142       0x26 /opt/gcc-arm-none-eabi-5_4-2016q3/bin/../lib/gcc/arm-none-eabi/5.4.1/../../../../arm-none-eabi/lib/armv7e-m/fpu/libc_nano.a(lib_a-strncpy.o)
                0x000000000800f142                strncpy
 .text.strstr   0x000000000800f168       0x34 /opt/gcc-arm-none-eabi-5_4-2016q3/bin/../lib/gcc/arm-none-eabi/5.4.1/../../../../arm-none-eabi/lib/armv7e-m/fpu/libc_nano.a(lib_a-strstr.o)
                0x000000000800f168                strstr
 *(.rodata)
 .rodata        0x000000000800f19c      0x1bc /var/folders/qz/8dvj07d52mjgthd1ds8wvf400000gn/T//ccg5ycur.ltrans0.ltrans.o
                0x000000000800f19c                ioDefUsedMask.lto_priv.271
                0x000000000800f1a8                timerHardware
 .rodata        0x000000000800f358      0x128 /var/folders/qz/8dvj07d52mjgthd1ds8wvf400000gn/T//ccg5ycur.ltrans1.ltrans.o
                0x000000000800f394                boxes.lto_priv.183
                0x000000000800f474                shortGitRevision
                0x000000000800f478                buildTime
                0x000000000800f47c                buildDate
 .rodata        0x000000000800f480      0x788 /var/folders/qz/8dvj07d52mjgthd1ds8wvf400000gn/T//ccg5ycur.ltrans5.ltrans.o
                0x000000000800f480                cmdTable
                0x000000000800f71c                baudRates
                0x000000000800fb58                mixerQuadX.lto_priv.257
 .rodata        0x000000000800fc08       0x12 /var/folders/qz/8dvj07d52mjgthd1ds8wvf400000gn/T//ccg5ycur.ltrans8.ltrans.o
                0x000000000800fc08                serialPortIdentifiers
 *fill*         0x000000000800fc1a        0x2 
 .rodata        0x000000000800fc1c       0x3d /var/folders/qz/8dvj07d52mjgthd1ds8wvf400000gn/T//ccg5ycur.ltrans9.ltrans.o
                0x000000000800fc44                rcChannelLetters
 *fill*         0x000000000800fc59        0x3 
 .rodata        0x000000000800fc5c       0x48 /var/folders/qz/8dvj07d52mjgthd1ds8wvf400000gn/T//ccg5ycur.ltrans10.ltrans.o
 .rodata        0x000000000800fca4       0x1a /var/folders/qz/8dvj07d52mjgthd1ds8wvf400000gn/T//ccg5ycur.ltrans13.ltrans.o
 *fill*         0x000000000800fcbe        0x2 
 .rodata        0x000000000800fcc0       0x68 /var/folders/qz/8dvj07d52mjgthd1ds8wvf400000gn/T//ccg5ycur.ltrans14.ltrans.o
                0x000000000800fcc0                mixerNames.lto_priv.141
 .rodata        0x000000000800fd28      0x9f4 /var/folders/qz/8dvj07d52mjgthd1ds8wvf400000gn/T//ccg5ycur.ltrans16.ltrans.o
                0x000000000800fe08                valueTable
                0x0000000008010624                lookupTables.lto_priv.127
                0x0000000008010674                lookupTablePidDeltaMethod.lto_priv.139
                0x000000000801067c                lookupTableGyroLpf.lto_priv.138
                0x0000000008010694                lookupTableGyroFilter.lto_priv.137
                0x00000000080106a4                lookupTableSerialRX.lto_priv.136
                0x00000000080106c4                lookupTablePidController.lto_priv.135
                0x00000000080106d0                lookupTableGimbalMode.lto_priv.134
                0x00000000080106d8                lookupTableCurrentSensor.lto_priv.133
                0x00000000080106e4                lookupTableAlignment.lto_priv.132
                0x0000000008010708                lookupTableUnit.lto_priv.131
                0x0000000008010710                lookupTableOffOn.lto_priv.130
                0x0000000008010718                SystemCoreClock
 *(.rodata*)
 .rodata.str1.1
                0x000000000801071c      0x12b /var/folders/qz/8dvj07d52mjgthd1ds8wvf400000gn/T//ccg5ycur.ltrans1.ltrans.o
                                        0x12f (size before relaxing)
 .rodata.str1.1
                0x0000000008010847        0x4 /var/folders/qz/8dvj07d52mjgthd1ds8wvf400000gn/T//ccg5ycur.ltrans2.ltrans.o
 .rodata.str1.1
                0x000000000801084b      0x5d6 /var/folders/qz/8dvj07d52mjgthd1ds8wvf400000gn/T//ccg5ycur.ltrans5.ltrans.o
                                        0x649 (size before relaxing)
 .rodata.str1.1
                0x0000000008010e21       0x5f /var/folders/qz/8dvj07d52mjgthd1ds8wvf400000gn/T//ccg5ycur.ltrans7.ltrans.o
                                         0x6d (size before relaxing)
 .rodata.str1.1
                0x0000000008010e80        0x9 /var/folders/qz/8dvj07d52mjgthd1ds8wvf400000gn/T//ccg5ycur.ltrans8.ltrans.o
 .rodata.str1.1
                0x0000000008010e89       0x30 /var/folders/qz/8dvj07d52mjgthd1ds8wvf400000gn/T//ccg5ycur.ltrans12.ltrans.o
                                         0x33 (size before relaxing)
 .rodata.str1.1
                0x0000000008010eb9        0xa /var/folders/qz/8dvj07d52mjgthd1ds8wvf400000gn/T//ccg5ycur.ltrans13.ltrans.o
 .rodata.str1.1
                0x0000000008010ec3      0x15e /var/folders/qz/8dvj07d52mjgthd1ds8wvf400000gn/T//ccg5ycur.ltrans14.ltrans.o
                                        0x1cb (size before relaxing)
 .rodata.str1.1
                0x0000000008011021      0x9ad /var/folders/qz/8dvj07d52mjgthd1ds8wvf400000gn/T//ccg5ycur.ltrans16.ltrans.o
                                        0xa2c (size before relaxing)
 .rodata.str1.1
                0x00000000080119ce        0x8 /opt/gcc-arm-none-eabi-5_4-2016q3/bin/../lib/gcc/arm-none-eabi/5.4.1/../../../../arm-none-eabi/lib/armv7e-m/fpu/libc_nano.a(lib_a-locale.o)
                                          0xb (size before relaxing)
 .rodata._ctype_
                0x00000000080119d6      0x101 /opt/gcc-arm-none-eabi-5_4-2016q3/bin/../lib/gcc/arm-none-eabi/5.4.1/../../../../arm-none-eabi/lib/armv7e-m/fpu/libc_nano.a(lib_a-ctype_.o)
                0x00000000080119d6                _ctype_
 *fill*         0x0000000008011ad7        0x1 
 .rodata.TWO23  0x0000000008011ad8        0x8 /opt/gcc-arm-none-eabi-5_4-2016q3/bin/../lib/gcc/arm-none-eabi/5.4.1/../../../../arm-none-eabi/lib/armv7e-m/fpu/libm.a(lib_a-sf_lrint.o)
 .rodata.str1.4
                0x0000000008011ae0        0x4 /opt/gcc-arm-none-eabi-5_4-2016q3/bin/../lib/gcc/arm-none-eabi/5.4.1/../../../../arm-none-eabi/lib/armv7e-m/fpu/libm.a(lib_a-w_pow.o)
 .rodata.str1.4
                0x0000000008011ae4        0x6 /opt/gcc-arm-none-eabi-5_4-2016q3/bin/../lib/gcc/arm-none-eabi/5.4.1/../../../../arm-none-eabi/lib/armv7e-m/fpu/libm.a(lib_a-wf_sqrt.o)
 *fill*         0x0000000008011aea        0x2 
 .rodata.str1.4
                0x0000000008011aec        0x4 /opt/gcc-arm-none-eabi-5_4-2016q3/bin/../lib/gcc/arm-none-eabi/5.4.1/../../../../arm-none-eabi/lib/armv7e-m/fpu/libm.a(lib_a-e_pow.o)
                                          0x1 (size before relaxing)
 .rodata.TWO52  0x0000000008011af0       0x10 /opt/gcc-arm-none-eabi-5_4-2016q3/bin/../lib/gcc/arm-none-eabi/5.4.1/../../../../arm-none-eabi/lib/armv7e-m/fpu/libm.a(lib_a-s_rint.o)
 *(.glue_7)
 .glue_7        0x0000000008011b00        0x0 linker stubs
 *(.glue_7t)
 .glue_7t       0x0000000008011b00        0x0 linker stubs
 *(.eh_frame)
 *(.init)
 *(.fini)
                0x0000000008011b00                . = ALIGN (0x4)
                0x0000000008011b00                _etext = .

.vfp11_veneer   0x0000000008011b00        0x0
 .vfp11_veneer  0x0000000008011b00        0x0 linker stubs

.v4_bx          0x0000000008011b00        0x0
 .v4_bx         0x0000000008011b00        0x0 linker stubs

.iplt           0x0000000008011b00        0x0
 .iplt          0x0000000008011b00        0x0 obj/main/SPRACINGF3/startup_stm32f30x_md_gcc.o

.ARM.extab
 *(.ARM.extab* .gnu.linkonce.armextab.*)

.ARM            0x0000000008011b00        0x8
                0x0000000008011b00                __exidx_start = .
 *(.ARM.exidx*)
 .ARM.exidx     0x0000000008011b00        0x8 /opt/gcc-arm-none-eabi-5_4-2016q3/bin/../lib/gcc/arm-none-eabi/5.4.1/armv7e-m/fpu/libgcc.a(_udivmoddi4.o)
                0x0000000008011b08                __exidx_end = .

.preinit_array  0x0000000008011b08        0x0
                [!provide]                        PROVIDE (__preinit_array_start, .)
 *(.preinit_array*)
                [!provide]                        PROVIDE (__preinit_array_end, .)

.init_array     0x0000000008011b08        0x0
                [!provide]                        PROVIDE (__init_array_start, .)
 *(SORT(.init_array.*))
 *(.init_array*)
                [!provide]                        PROVIDE (__init_array_end, .)

.fini_array     0x0000000008011b08        0x0
                [!provide]                        PROVIDE (__fini_array_start, .)
 *(.fini_array*)
 *(SORT(.fini_array.*))
                [!provide]                        PROVIDE (__fini_array_end, .)

.pg_registry    0x0000000008011b08      0x200
                0x0000000008011b08                PROVIDE (__pg_registry_start, .)
 *(.pg_registry)
 .pg_registry   0x0000000008011b08       0x20 /var/folders/qz/8dvj07d52mjgthd1ds8wvf400000gn/T//ccg5ycur.ltrans0.ltrans.o
                0x0000000008011b08                sensorSelectionConfig_Registry
                0x0000000008011b18                systemConfig_Registry
 .pg_registry   0x0000000008011b28      0x130 /var/folders/qz/8dvj07d52mjgthd1ds8wvf400000gn/T//ccg5ycur.ltrans1.ltrans.o
                0x0000000008011b28                pidProfile_Registry
                0x0000000008011b38                profileSelection_Registry
                0x0000000008011b48                featureConfig_Registry
                0x0000000008011b58                sensorAlignmentConfig_Registry
                0x0000000008011b68                rcControlsConfig_Registry
                0x0000000008011b78                motor3DConfig_Registry
                0x0000000008011b88                serialConfig_Registry
                0x0000000008011b98                failsafeChannelConfigs_Registry
                0x0000000008011ba8                boardAlignment_Registry
                0x0000000008011bb8                accelerometerConfig_Registry
                0x0000000008011bc8                compassConfig_Registry
                0x0000000008011bd8                failsafeConfig_Registry
                0x0000000008011be8                motorAndServoConfig_Registry
                0x0000000008011bf8                adjustmentProfile_Registry
                0x0000000008011c08                modeActivationProfile_Registry
                0x0000000008011c18                imuConfig_Registry
                0x0000000008011c28                armingConfig_Registry
                0x0000000008011c38                batteryConfig_Registry
                0x0000000008011c48                mixerConfig_Registry
 .pg_registry   0x0000000008011c58       0x20 /var/folders/qz/8dvj07d52mjgthd1ds8wvf400000gn/T//ccg5ycur.ltrans4.ltrans.o
                0x0000000008011c58                gyroConfig_Registry
                0x0000000008011c68                airplaneConfig_Registry
 .pg_registry   0x0000000008011c78       0x10 /var/folders/qz/8dvj07d52mjgthd1ds8wvf400000gn/T//ccg5ycur.ltrans5.ltrans.o
                0x0000000008011c78                customMotorMixer_Registry
 .pg_registry   0x0000000008011c88       0x40 /var/folders/qz/8dvj07d52mjgthd1ds8wvf400000gn/T//ccg5ycur.ltrans8.ltrans.o
                0x0000000008011c88                barometerConfig_Registry
                0x0000000008011c98                throttleCorrectionConfig_Registry
                0x0000000008011ca8                sensorTrims_Registry
                0x0000000008011cb8                rateProfileSelection_Registry
 .pg_registry   0x0000000008011cc8       0x10 /var/folders/qz/8dvj07d52mjgthd1ds8wvf400000gn/T//ccg5ycur.ltrans9.ltrans.o
                0x0000000008011cc8                rxConfig_Registry
 .pg_registry   0x0000000008011cd8       0x10 /var/folders/qz/8dvj07d52mjgthd1ds8wvf400000gn/T//ccg5ycur.ltrans10.ltrans.o
                0x0000000008011cd8                pwmRxConfig_Registry
 .pg_registry   0x0000000008011ce8       0x10 /var/folders/qz/8dvj07d52mjgthd1ds8wvf400000gn/T//ccg5ycur.ltrans14.ltrans.o
                0x0000000008011ce8                controlRateProfiles_Registry
 .pg_registry   0x0000000008011cf8       0x10 /var/folders/qz/8dvj07d52mjgthd1ds8wvf400000gn/T//ccg5ycur.ltrans16.ltrans.o
                0x0000000008011cf8                channelRanges_Registry
 *(SORT(.pg_registry.*))
                0x0000000008011d08                PROVIDE (__pg_registry_end, .)

.pg_resetdata   0x0000000008011d08       0xa6
                0x0000000008011d08                PROVIDE (__pg_resetdata_start, .)
 *(.pg_resetdata)
 .pg_resetdata  0x0000000008011d08        0x2 /var/folders/qz/8dvj07d52mjgthd1ds8wvf400000gn/T//ccg5ycur.ltrans0.ltrans.o
                0x0000000008011d08                pgResetTemplate_systemConfig
 .pg_resetdata  0x0000000008011d0a       0x70 /var/folders/qz/8dvj07d52mjgthd1ds8wvf400000gn/T//ccg5ycur.ltrans1.ltrans.o
                0x0000000008011d0a                pgResetTemplate_rcControlsConfig
                0x0000000008011d12                pgResetTemplate_motor3DConfig
                0x0000000008011d18                pgResetTemplate_compassConfig
                0x0000000008011d1a                pgResetTemplate_failsafeConfig
                0x0000000008011d22                pgResetTemplate_motorAndServoConfig
                0x0000000008011d2e                pgResetTemplate_imuConfig
                0x0000000008011d3a                pgResetTemplate_armingConfig
                0x0000000008011d3e                pgResetTemplate_batteryConfig
                0x0000000008011d4c                pgResetTemplate_mixerConfig
                0x0000000008011d52                pgResetTemplate_pidProfile
 .pg_resetdata  0x0000000008011d7a        0x5 /var/folders/qz/8dvj07d52mjgthd1ds8wvf400000gn/T//ccg5ycur.ltrans4.ltrans.o
                0x0000000008011d7a                pgResetTemplate_gyroConfig
                0x0000000008011d7e                pgResetTemplate_airplaneConfig
 *fill*         0x0000000008011d7f        0x1 
 .pg_resetdata  0x0000000008011d80       0x14 /var/folders/qz/8dvj07d52mjgthd1ds8wvf400000gn/T//ccg5ycur.ltrans8.ltrans.o
                0x0000000008011d80                pgResetTemplate_barometerConfig
                0x0000000008011d90                pgResetTemplate_throttleCorrectionConfig
 .pg_resetdata  0x0000000008011d94       0x1a /var/folders/qz/8dvj07d52mjgthd1ds8wvf400000gn/T//ccg5ycur.ltrans9.ltrans.o
                0x0000000008011d94                pgResetTemplate_rxConfig
                0x0000000008011dae                PROVIDE (__pg_resetdata_end, .)
                0x0000000008011dae                _sidata = .

.rel.dyn        0x0000000008011db0        0x0
 .rel.iplt      0x0000000008011db0        0x0 obj/main/SPRACINGF3/startup_stm32f30x_md_gcc.o

.data           0x0000000020000000      0x4b4 load address 0x0000000008011dae
                0x0000000020000000                . = ALIGN (0x4)
                0x0000000020000000                _sdata = .
 *(.data)
 .data          0x0000000020000000        0x1 /var/folders/qz/8dvj07d52mjgthd1ds8wvf400000gn/T//ccg5ycur.ltrans1.ltrans.o
                0x0000000020000000                isUsingSticksToArm.lto_priv.186
 *fill*         0x0000000020000001        0x3 
 .data          0x0000000020000004        0x4 /var/folders/qz/8dvj07d52mjgthd1ds8wvf400000gn/T//ccg5ycur.ltrans2.ltrans.o
                0x0000000020000004                rcReadRawFunc.lto_priv.245
 .data          0x0000000020000008        0x8 /var/folders/qz/8dvj07d52mjgthd1ds8wvf400000gn/T//ccg5ycur.ltrans6.ltrans.o
                0x0000000020000008                q0.lto_priv.229
                0x000000002000000c                pid_controller
 .data          0x0000000020000010      0x1e4 /var/folders/qz/8dvj07d52mjgthd1ds8wvf400000gn/T//ccg5ycur.ltrans7.ltrans.o
                0x0000000020000010                realtimeGuardInterval.lto_priv.237
                0x0000000020000014                cfTasks
 .data          0x00000000200001f4       0x8c /var/folders/qz/8dvj07d52mjgthd1ds8wvf400000gn/T//ccg5ycur.ltrans9.ltrans.o
                0x00000000200001f4                dmaChannels
 .data          0x0000000020000280       0x35 /var/folders/qz/8dvj07d52mjgthd1ds8wvf400000gn/T//ccg5ycur.ltrans11.ltrans.o
                0x00000000200002b0                RX_ADDRESS
 *fill*         0x00000000200002b5        0x1 
 .data          0x00000000200002b6       0x1c /var/folders/qz/8dvj07d52mjgthd1ds8wvf400000gn/T//ccg5ycur.ltrans13.ltrans.o
                0x00000000200002b6                pwmMotorsEnabled.lto_priv.180
 *fill*         0x00000000200002d2        0x2 
 .data          0x00000000200002d4        0x4 /var/folders/qz/8dvj07d52mjgthd1ds8wvf400000gn/T//ccg5ycur.ltrans14.ltrans.o
 .data          0x00000000200002d8        0x6 /var/folders/qz/8dvj07d52mjgthd1ds8wvf400000gn/T//ccg5ycur.ltrans16.ltrans.o
                0x00000000200002d8                batteryCellCount
                0x00000000200002d9                detectedSensors
                0x00000000200002dd                standardBoardAlignment.lto_priv.255
 *(.data*)
 *fill*         0x00000000200002de        0x2 
 .data.__global_locale
                0x00000000200002e0      0x16c /opt/gcc-arm-none-eabi-5_4-2016q3/bin/../lib/gcc/arm-none-eabi/5.4.1/../../../../arm-none-eabi/lib/armv7e-m/fpu/libc_nano.a(lib_a-locale.o)
                0x00000000200002e0                __global_locale
 .data.impure_data
                0x000000002000044c       0x60 /opt/gcc-arm-none-eabi-5_4-2016q3/bin/../lib/gcc/arm-none-eabi/5.4.1/../../../../arm-none-eabi/lib/armv7e-m/fpu/libc_nano.a(lib_a-impure.o)
 .data._impure_ptr
                0x00000000200004ac        0x4 /opt/gcc-arm-none-eabi-5_4-2016q3/bin/../lib/gcc/arm-none-eabi/5.4.1/../../../../arm-none-eabi/lib/armv7e-m/fpu/libc_nano.a(lib_a-impure.o)
                0x00000000200004ac                _impure_ptr
 .data.__fdlib_version
                0x00000000200004b0        0x1 /opt/gcc-arm-none-eabi-5_4-2016q3/bin/../lib/gcc/arm-none-eabi/5.4.1/../../../../arm-none-eabi/lib/armv7e-m/fpu/libm.a(lib_a-s_lib_ver.o)
                0x00000000200004b0                __fdlib_version
                0x00000000200004b4                . = ALIGN (0x4)
 *fill*         0x00000000200004b1        0x3 
                0x00000000200004b4                _edata = .

.igot.plt       0x00000000200004b4        0x0 load address 0x0000000008012262
 .igot.plt      0x00000000200004b4        0x0 obj/main/SPRACINGF3/startup_stm32f30x_md_gcc.o
                0x00000000200004b4                . = ALIGN (0x4)

.bss            0x00000000200004b8     0x20dc load address 0x0000000008012262
                0x00000000200004b8                _sbss = .
                0x00000000200004b8                __bss_start__ = _sbss
 *(.bss)
 .bss           0x00000000200004b8      0x27c /var/folders/qz/8dvj07d52mjgthd1ds8wvf400000gn/T//ccg5ycur.ltrans0.ltrans.o
                0x00000000200004b8                ioRecs
                0x00000000200005e8                extiGroupPriority.lto_priv.270
                0x00000000200005f0                ppmDev
                0x000000002000071c                mpuDividerDrops.lto_priv.268
                0x000000002000071d                mpuDetectionResult
                0x0000000020000720                mpuConfiguration
                0x000000002000072c                mpuIntExtiConfig.lto_priv.269
 .bss           0x0000000020000734      0x674 /var/folders/qz/8dvj07d52mjgthd1ds8wvf400000gn/T//ccg5ycur.ltrans1.ltrans.o
                0x0000000020000734                mspPorts
                0x00000000200007d4                cliMode
                0x00000000200007d8                cliPort.lto_priv.129
                0x00000000200007dc                printfSerialPort.lto_priv.116
                0x00000000200007fc                cliWriter.lto_priv.128
                0x0000000020000800                armingFlags
                0x0000000020000802                serialConfig_System
                0x000000002000082c                mixerConfig_System
                0x0000000020000832                cycleTime
                0x0000000020000834                I2Cx.lto_priv.120
                0x0000000020000838                i2c1ErrorCount.lto_priv.121
                0x000000002000083a                i2c2ErrorCount.lto_priv.122
                0x000000002000083c                enabledSensors.lto_priv.123
                0x0000000020000840                flightModeFlags
                0x0000000020000844                rcModeActivationMask.lto_priv.181
                0x0000000020000848                activeBoxIds.lto_priv.249
                0x000000002000084c                profileSelection_System
                0x000000002000084e                averageSystemLoadPercent
                0x0000000020000850                acc
                0x000000002000085c                accSmooth
                0x0000000020000864                gyroADC
                0x0000000020000870                motor
                0x0000000020000888                rxRuntimeConfig
                0x000000002000088a                attitude
                0x0000000020000890                EstAlt.lto_priv.188
                0x0000000020000894                vario
                0x0000000020000898                vbat
                0x000000002000089c                mAhDrawn
                0x00000000200008a0                rssi
                0x00000000200008a2                batteryConfig_System
                0x00000000200008b0                amperage
                0x00000000200008b4                armingConfig_System
                0x00000000200008b8                imuConfig_System
                0x00000000200008c4                currentControlRateProfile
                0x00000000200008c8                pidProfile_ProfileCurrent
                0x00000000200008cc                modeActivationProfile_ProfileCurrent
                0x00000000200008d0                adjustmentProfile_ProfileCurrent
                0x00000000200008d4                motorAndServoConfig_System
                0x00000000200008e0                failsafeConfig_System
                0x00000000200008e8                compassConfig_ProfileCurrent
                0x00000000200008ec                debug
                0x00000000200008f4                accelerometerConfig_ProfileCurrent
                0x00000000200008f8                featureConfig_System
                0x00000000200008fc                boardAlignment_System
                0x0000000020000902                failsafeChannelConfigs_SystemArray
                0x0000000020000928                serialPortUsageList.lto_priv.142
                0x0000000020000964                motor3DConfig_System
                0x000000002000096c                rcControlsConfig_ProfileCurrent
                0x0000000020000970                sensorAlignmentConfig_System
                0x0000000020000974                escHardware
                0x0000000020000a34                pwmIOConfiguration.lto_priv.258
                0x0000000020000ac4                escCount.lto_priv.163
                0x0000000020000acc                mspFrame.lto_priv.117
                0x0000000020000af0                rxMspFrameDone.lto_priv.202
                0x0000000020000af2                motor_disarmed
                0x0000000020000b0a                stateFlags
                0x0000000020000d9c                magADC
 .bss           0x0000000020000da8       0x7e /var/folders/qz/8dvj07d52mjgthd1ds8wvf400000gn/T//ccg5ycur.ltrans2.ltrans.o
                0x0000000020000da8                rxUpdateAt.lto_priv.199
                0x0000000020000dac                rcSampleIndex.lto_priv.243
                0x0000000020000daf                RXDATA
                0x0000000020000dd0                mspData
                0x0000000020000e00                disarmAt.lto_priv.235
                0x0000000020000e07                rxSignalReceived.lto_priv.200
                0x0000000020000e08                calibratingG.lto_priv.233
                0x0000000020000e0a                calibratingB
                0x0000000020000e0c                AccInflightCalibrationMeasurementDone
                0x0000000020000e0d                AccInflightCalibrationSavetoEEProm
                0x0000000020000e10                InflightcalibratingA
                0x0000000020000e12                AccInflightCalibrationActive
                0x0000000020000e20                isRXDataNew.lto_priv.222
                0x0000000020000e21                haveUpdatedRcCommandsOnce.lto_priv.219
                0x0000000020000e22                initialRawThrottleHold.lto_priv.220
                0x0000000020000e24                initialThrottleHold.lto_priv.221
 *fill*         0x0000000020000e26        0x2 
 .bss           0x0000000020000e28      0x11d /var/folders/qz/8dvj07d52mjgthd1ds8wvf400000gn/T//ccg5ycur.ltrans3.ltrans.o
 *fill*         0x0000000020000f45        0x3 
 .bss           0x0000000020000f48      0x1ff /var/folders/qz/8dvj07d52mjgthd1ds8wvf400000gn/T//ccg5ycur.ltrans4.ltrans.o
                0x0000000020000f5c                gyroAlign
                0x0000000020000f5e                gyroConfig_System
                0x000000002000104c                gyroScale.lto_priv.250
                0x000000002000105c                smallAngleCosZ
                0x0000000020001068                headFreeModeHold
                0x000000002000106a                rxRefreshRate.lto_priv.244
                0x0000000020001084                currentMixer
                0x0000000020001146                motorControlEnable
 *fill*         0x0000000020001147        0x1 
 .bss           0x0000000020001148      0x105 /var/folders/qz/8dvj07d52mjgthd1ds8wvf400000gn/T//ccg5ycur.ltrans5.ltrans.o
                0x0000000020001148                cliBuffer.lto_priv.205
                0x0000000020001178                bufferIndex.lto_priv.204
                0x000000002000117c                customMotorMixer_SystemArray
                0x000000002000123c                StkCmd.lto_priv.161
                0x000000002000123d                stkInBuf.lto_priv.162
 *fill*         0x000000002000124d        0x3 
 .bss           0x0000000020001250      0x288 /var/folders/qz/8dvj07d52mjgthd1ds8wvf400000gn/T//ccg5ycur.ltrans6.ltrans.o
                0x0000000020001250                extiChannelRecs
                0x0000000020001290                rcCommand
                0x0000000020001298                lastITerm
                0x00000000200012a4                motorLimitReached
                0x00000000200012b4                ITermAngle.lto_priv.193
                0x00000000200012bc                dynP8
                0x00000000200012c4                dT
                0x00000000200012fc                dynD8
                0x0000000020001300                axisPID
                0x0000000020001306                motorCount
                0x0000000020001307                PIDweight
                0x0000000020001318                targetLooptime
                0x0000000020001334                gyro
                0x0000000020001348                lastITermf
                0x0000000020001360                motors.lto_priv.185
                0x0000000020001390                timerConfig
                0x00000000200014a8                q1.lto_priv.230
                0x00000000200014ac                q2.lto_priv.231
                0x00000000200014b0                q3.lto_priv.232
                0x00000000200014b4                rMat.lto_priv.192
 .bss           0x00000000200014d8       0x48 /var/folders/qz/8dvj07d52mjgthd1ds8wvf400000gn/T//ccg5ycur.ltrans7.ltrans.o
                0x00000000200014d8                totalWaitingTasksSamples.lto_priv.238
                0x00000000200014dc                totalWaitingTasks.lto_priv.239
                0x00000000200014e0                taskQueuePos.lto_priv.236
                0x00000000200014e4                taskQueueArray
                0x0000000020001510                currentTask.lto_priv.191
                0x0000000020001514                taskQueueSize.lto_priv.119
                0x0000000020001518                sysTickUptime.lto_priv.118
                0x000000002000151c                usTicks.lto_priv.265
 .bss           0x0000000020001520      0x128 /var/folders/qz/8dvj07d52mjgthd1ds8wvf400000gn/T//ccg5ycur.ltrans8.ltrans.o
                0x0000000020001520                currentTime
                0x0000000020001534                accTimeSum
                0x0000000020001538                accSumCount
                0x000000002000153c                accSum
                0x0000000020001548                accVelScale
                0x000000002000154c                barometerConfig_ProfileCurrent
                0x0000000020001554                AltHold
                0x0000000020001558                setVelocity
                0x0000000020001560                errorVelocityI
                0x0000000020001564                altHoldThrottleAdjustment
                0x0000000020001568                velocityControl
                0x000000002000156c                lookupThrottleRC.lto_priv.223
                0x0000000020001584                lookupYawRC.lto_priv.224
                0x0000000020001592                lookupPitchRollRC.lto_priv.225
                0x00000000200015a4                adjustmentStates
                0x00000000200015d4                accelerationTrims.lto_priv.206
                0x00000000200015e4                magneticDeclination
                0x00000000200015f8                throttleCorrectionConfig_ProfileCurrent
                0x00000000200015fc                imuRuntimeConfig.lto_priv.227
                0x0000000020001600                accDeadband.lto_priv.228
                0x0000000020001604                fc_acc
                0x0000000020001608                throttleAngleScale
 .bss           0x0000000020001648      0x770 /var/folders/qz/8dvj07d52mjgthd1ds8wvf400000gn/T//ccg5ycur.ltrans9.ltrans.o
                0x0000000020001648                uartPort1.lto_priv.275
                0x00000000200016ac                uartPort2.lto_priv.274
                0x0000000020001710                uartPort3.lto_priv.273
                0x0000000020001d74                calibratingA
                0x0000000020001d76                rxConfig_System
                0x0000000020001d90                activeFeaturesLatch.lto_priv.179
                0x0000000020001d94                rcData
 .bss           0x0000000020001db8      0x4a9 /var/folders/qz/8dvj07d52mjgthd1ds8wvf400000gn/T//ccg5ycur.ltrans10.ltrans.o
 *fill*         0x0000000020002261        0x3 
 .bss           0x0000000020002264       0xd4 /var/folders/qz/8dvj07d52mjgthd1ds8wvf400000gn/T//ccg5ycur.ltrans11.ltrans.o
                0x0000000020002268                flag
                0x0000000020002287                App_data
                0x000000002000228c                APP_DATA_FLAG
                0x0000000020002290                FB
 .bss           0x0000000020002338       0x65 /var/folders/qz/8dvj07d52mjgthd1ds8wvf400000gn/T//ccg5ycur.ltrans12.ltrans.o
                0x000000002000233d                ppmFrameCount.lto_priv.272
                0x0000000020002344                batteryWarningVoltage
                0x0000000020002346                batteryCriticalVoltage
                0x0000000020002368                accADC
                0x0000000020002374                accAlign
                0x000000002000239c                isAccelUpdatedAtLeastOnce.lto_priv.226
 *fill*         0x000000002000239d        0x3 
 .bss           0x00000000200023a0       0x10 /var/folders/qz/8dvj07d52mjgthd1ds8wvf400000gn/T//ccg5ycur.ltrans13.ltrans.o
                0x00000000200023a0                port.lto_priv.177
                0x00000000200023a6                crcIn.lto_priv.178
                0x00000000200023ae                crcOut.lto_priv.176
 .bss           0x00000000200023b0       0x26 /var/folders/qz/8dvj07d52mjgthd1ds8wvf400000gn/T//ccg5ycur.ltrans14.ltrans.o
                0x00000000200023b0                currentControlRateProfileIndex.lto_priv.187
                0x00000000200023b2                controlRateProfiles_SystemArray
 *fill*         0x00000000200023d6        0x2 
 .bss           0x00000000200023d8        0xf /var/folders/qz/8dvj07d52mjgthd1ds8wvf400000gn/T//ccg5ycur.ltrans15.ltrans.o
                0x00000000200023d8                escSelected
 *fill*         0x00000000200023e7        0x1 
 .bss           0x00000000200023e8       0xc0 /var/folders/qz/8dvj07d52mjgthd1ds8wvf400000gn/T//ccg5ycur.ltrans16.ltrans.o
                0x00000000200023e8                captures.lto_priv.201
                0x0000000020002400                batteryState.lto_priv.203
                0x0000000020002410                boardRotation.lto_priv.256
                0x0000000020002434                adcConfig
                0x0000000020002440                adcValues
                0x0000000020002446                vbatLatestADC
                0x0000000020002448                vbatFilterState.lto_priv.242
                0x000000002000246c                suspendRxSignalUntil.lto_priv.195
                0x0000000020002470                skipRxSamples.lto_priv.194
                0x0000000020002474                failsafeState.lto_priv.182
                0x0000000020002498                channelRanges_SystemArray
 .bss           0x00000000200024a8        0x1 /var/folders/qz/8dvj07d52mjgthd1ds8wvf400000gn/T//ccg5ycur.ltrans18.ltrans.o
                0x00000000200024a8                systemState.lto_priv.241
 *fill*         0x00000000200024a9        0x3 
 .bss           0x00000000200024ac       0xe8 /var/folders/qz/8dvj07d52mjgthd1ds8wvf400000gn/T//ccg5ycur.ltrans19.ltrans.o
 *(SORT(.bss*))
 *(COMMON)
                0x0000000020002594                . = ALIGN (0x4)
                0x0000000020002594                _ebss = .
                0x0000000020002594                __bss_end__ = _ebss

._user_heap_stack
                0x0000000020002594      0x400 load address 0x0000000008012262
                0x0000000020002594                . = ALIGN (0x4)
                [!provide]                        PROVIDE (end, .)
                [!provide]                        PROVIDE (_end, .)
                0x0000000020002594                . = (. + _Min_Heap_Size)
                0x0000000020002994                . = (. + _Min_Stack_Size)
 *fill*         0x0000000020002594      0x400 
                0x0000000020002994                . = ALIGN (0x4)

.memory_b1_text
 *(.mb1text)
 *(.mb1text*)
 *(.mb1rodata)
 *(.mb1rodata*)

/DISCARD/
 libc.a(*)
 libm.a(*)
 libgcc.a(*)

.ARM.attributes
                0x0000000000000000       0x35
 *(.ARM.attributes)
 .ARM.attributes
                0x0000000000000000       0x21 obj/main/SPRACINGF3/startup_stm32f30x_md_gcc.o
 .ARM.attributes
                0x0000000000000021       0x37 /var/folders/qz/8dvj07d52mjgthd1ds8wvf400000gn/T//ccg5ycur.ltrans0.ltrans.o
 .ARM.attributes
                0x0000000000000058       0x37 /var/folders/qz/8dvj07d52mjgthd1ds8wvf400000gn/T//ccg5ycur.ltrans1.ltrans.o
 .ARM.attributes
                0x000000000000008f       0x37 /var/folders/qz/8dvj07d52mjgthd1ds8wvf400000gn/T//ccg5ycur.ltrans2.ltrans.o
 .ARM.attributes
                0x00000000000000c6       0x37 /var/folders/qz/8dvj07d52mjgthd1ds8wvf400000gn/T//ccg5ycur.ltrans3.ltrans.o
 .ARM.attributes
                0x00000000000000fd       0x37 /var/folders/qz/8dvj07d52mjgthd1ds8wvf400000gn/T//ccg5ycur.ltrans4.ltrans.o
 .ARM.attributes
                0x0000000000000134       0x37 /var/folders/qz/8dvj07d52mjgthd1ds8wvf400000gn/T//ccg5ycur.ltrans5.ltrans.o
 .ARM.attributes
                0x000000000000016b       0x37 /var/folders/qz/8dvj07d52mjgthd1ds8wvf400000gn/T//ccg5ycur.ltrans6.ltrans.o
 .ARM.attributes
                0x00000000000001a2       0x37 /var/folders/qz/8dvj07d52mjgthd1ds8wvf400000gn/T//ccg5ycur.ltrans7.ltrans.o
 .ARM.attributes
                0x00000000000001d9       0x37 /var/folders/qz/8dvj07d52mjgthd1ds8wvf400000gn/T//ccg5ycur.ltrans8.ltrans.o
 .ARM.attributes
                0x0000000000000210       0x37 /var/folders/qz/8dvj07d52mjgthd1ds8wvf400000gn/T//ccg5ycur.ltrans9.ltrans.o
 .ARM.attributes
                0x0000000000000247       0x37 /var/folders/qz/8dvj07d52mjgthd1ds8wvf400000gn/T//ccg5ycur.ltrans10.ltrans.o
 .ARM.attributes
                0x000000000000027e       0x37 /var/folders/qz/8dvj07d52mjgthd1ds8wvf400000gn/T//ccg5ycur.ltrans11.ltrans.o
 .ARM.attributes
                0x00000000000002b5       0x37 /var/folders/qz/8dvj07d52mjgthd1ds8wvf400000gn/T//ccg5ycur.ltrans12.ltrans.o
 .ARM.attributes
                0x00000000000002ec       0x37 /var/folders/qz/8dvj07d52mjgthd1ds8wvf400000gn/T//ccg5ycur.ltrans13.ltrans.o
 .ARM.attributes
                0x0000000000000323       0x37 /var/folders/qz/8dvj07d52mjgthd1ds8wvf400000gn/T//ccg5ycur.ltrans14.ltrans.o
 .ARM.attributes
                0x000000000000035a       0x37 /var/folders/qz/8dvj07d52mjgthd1ds8wvf400000gn/T//ccg5ycur.ltrans15.ltrans.o
 .ARM.attributes
                0x0000000000000391       0x37 /var/folders/qz/8dvj07d52mjgthd1ds8wvf400000gn/T//ccg5ycur.ltrans16.ltrans.o
 .ARM.attributes
                0x00000000000003c8       0x37 /var/folders/qz/8dvj07d52mjgthd1ds8wvf400000gn/T//ccg5ycur.ltrans17.ltrans.o
 .ARM.attributes
                0x00000000000003ff       0x37 /var/folders/qz/8dvj07d52mjgthd1ds8wvf400000gn/T//ccg5ycur.ltrans18.ltrans.o
 .ARM.attributes
                0x0000000000000436       0x37 /var/folders/qz/8dvj07d52mjgthd1ds8wvf400000gn/T//ccg5ycur.ltrans19.ltrans.o
 .ARM.attributes
                0x000000000000046d       0x37 /var/folders/qz/8dvj07d52mjgthd1ds8wvf400000gn/T//ccg5ycur.ltrans20.ltrans.o
 .ARM.attributes
                0x00000000000004a4       0x34 /opt/gcc-arm-none-eabi-5_4-2016q3/bin/../lib/gcc/arm-none-eabi/5.4.1/../../../../arm-none-eabi/lib/armv7e-m/fpu/libc_nano.a(lib_a-atoi.o)
 .ARM.attributes
                0x00000000000004d8       0x34 /opt/gcc-arm-none-eabi-5_4-2016q3/bin/../lib/gcc/arm-none-eabi/5.4.1/../../../../arm-none-eabi/lib/armv7e-m/fpu/libc_nano.a(lib_a-locale.o)
 .ARM.attributes
                0x000000000000050c       0x34 /opt/gcc-arm-none-eabi-5_4-2016q3/bin/../lib/gcc/arm-none-eabi/5.4.1/../../../../arm-none-eabi/lib/armv7e-m/fpu/libc_nano.a(lib_a-mbtowc_r.o)
 .ARM.attributes
                0x0000000000000540       0x20 /opt/gcc-arm-none-eabi-5_4-2016q3/bin/../lib/gcc/arm-none-eabi/5.4.1/../../../../arm-none-eabi/lib/armv7e-m/fpu/libc_nano.a(lib_a-strcmp.o)
 .ARM.attributes
                0x0000000000000560       0x34 /opt/gcc-arm-none-eabi-5_4-2016q3/bin/../lib/gcc/arm-none-eabi/5.4.1/../../../../arm-none-eabi/lib/armv7e-m/fpu/libc_nano.a(lib_a-strtok_r.o)
 .ARM.attributes
                0x0000000000000594       0x34 /opt/gcc-arm-none-eabi-5_4-2016q3/bin/../lib/gcc/arm-none-eabi/5.4.1/../../../../arm-none-eabi/lib/armv7e-m/fpu/libc_nano.a(lib_a-strtol.o)
 .ARM.attributes
                0x00000000000005c8       0x34 /opt/gcc-arm-none-eabi-5_4-2016q3/bin/../lib/gcc/arm-none-eabi/5.4.1/../../../../arm-none-eabi/lib/armv7e-m/fpu/libc_nano.a(lib_a-wctomb_r.o)
 .ARM.attributes
                0x00000000000005fc       0x34 /opt/gcc-arm-none-eabi-5_4-2016q3/bin/../lib/gcc/arm-none-eabi/5.4.1/../../../../arm-none-eabi/lib/armv7e-m/fpu/libc_nano.a(lib_a-ctype_.o)
 .ARM.attributes
                0x0000000000000630       0x34 /opt/gcc-arm-none-eabi-5_4-2016q3/bin/../lib/gcc/arm-none-eabi/5.4.1/../../../../arm-none-eabi/lib/armv7e-m/fpu/libc_nano.a(lib_a-impure.o)
 .ARM.attributes
                0x0000000000000664       0x34 /opt/gcc-arm-none-eabi-5_4-2016q3/bin/../lib/gcc/arm-none-eabi/5.4.1/../../../../arm-none-eabi/lib/armv7e-m/fpu/libm.a(lib_a-sf_lrint.o)
 .ARM.attributes
                0x0000000000000698       0x34 /opt/gcc-arm-none-eabi-5_4-2016q3/bin/../lib/gcc/arm-none-eabi/5.4.1/../../../../arm-none-eabi/lib/armv7e-m/fpu/libm.a(lib_a-w_pow.o)
 .ARM.attributes
                0x00000000000006cc       0x34 /opt/gcc-arm-none-eabi-5_4-2016q3/bin/../lib/gcc/arm-none-eabi/5.4.1/../../../../arm-none-eabi/lib/armv7e-m/fpu/libm.a(lib_a-wf_sqrt.o)
 .ARM.attributes
                0x0000000000000700       0x34 /opt/gcc-arm-none-eabi-5_4-2016q3/bin/../lib/gcc/arm-none-eabi/5.4.1/../../../../arm-none-eabi/lib/armv7e-m/fpu/libm.a(lib_a-e_pow.o)
 .ARM.attributes
                0x0000000000000734       0x34 /opt/gcc-arm-none-eabi-5_4-2016q3/bin/../lib/gcc/arm-none-eabi/5.4.1/../../../../arm-none-eabi/lib/armv7e-m/fpu/libm.a(lib_a-e_sqrt.o)
 .ARM.attributes
                0x0000000000000768       0x34 /opt/gcc-arm-none-eabi-5_4-2016q3/bin/../lib/gcc/arm-none-eabi/5.4.1/../../../../arm-none-eabi/lib/armv7e-m/fpu/libm.a(lib_a-ef_sqrt.o)
 .ARM.attributes
                0x000000000000079c       0x34 /opt/gcc-arm-none-eabi-5_4-2016q3/bin/../lib/gcc/arm-none-eabi/5.4.1/../../../../arm-none-eabi/lib/armv7e-m/fpu/libm.a(lib_a-s_fabs.o)
 .ARM.attributes
                0x00000000000007d0       0x34 /opt/gcc-arm-none-eabi-5_4-2016q3/bin/../lib/gcc/arm-none-eabi/5.4.1/../../../../arm-none-eabi/lib/armv7e-m/fpu/libm.a(lib_a-s_finite.o)
 .ARM.attributes
                0x0000000000000804       0x34 /opt/gcc-arm-none-eabi-5_4-2016q3/bin/../lib/gcc/arm-none-eabi/5.4.1/../../../../arm-none-eabi/lib/armv7e-m/fpu/libm.a(lib_a-s_lib_ver.o)
 .ARM.attributes
                0x0000000000000838       0x34 /opt/gcc-arm-none-eabi-5_4-2016q3/bin/../lib/gcc/arm-none-eabi/5.4.1/../../../../arm-none-eabi/lib/armv7e-m/fpu/libm.a(lib_a-s_matherr.o)
 .ARM.attributes
                0x000000000000086c       0x34 /opt/gcc-arm-none-eabi-5_4-2016q3/bin/../lib/gcc/arm-none-eabi/5.4.1/../../../../arm-none-eabi/lib/armv7e-m/fpu/libm.a(lib_a-s_nan.o)
 .ARM.attributes
                0x00000000000008a0       0x34 /opt/gcc-arm-none-eabi-5_4-2016q3/bin/../lib/gcc/arm-none-eabi/5.4.1/../../../../arm-none-eabi/lib/armv7e-m/fpu/libm.a(lib_a-s_rint.o)
 .ARM.attributes
                0x00000000000008d4       0x34 /opt/gcc-arm-none-eabi-5_4-2016q3/bin/../lib/gcc/arm-none-eabi/5.4.1/../../../../arm-none-eabi/lib/armv7e-m/fpu/libm.a(lib_a-s_scalbn.o)
 .ARM.attributes
                0x0000000000000908       0x34 /opt/gcc-arm-none-eabi-5_4-2016q3/bin/../lib/gcc/arm-none-eabi/5.4.1/../../../../arm-none-eabi/lib/armv7e-m/fpu/libm.a(lib_a-s_copysign.o)
 .ARM.attributes
                0x000000000000093c       0x34 /opt/gcc-arm-none-eabi-5_4-2016q3/bin/../lib/gcc/arm-none-eabi/5.4.1/../../../../arm-none-eabi/lib/armv7e-m/fpu/libc_nano.a(lib_a-errno.o)
 .ARM.attributes
                0x0000000000000970       0x34 /opt/gcc-arm-none-eabi-5_4-2016q3/bin/../lib/gcc/arm-none-eabi/5.4.1/../../../../arm-none-eabi/lib/armv7e-m/fpu/libc_nano.a(lib_a-memcmp.o)
 .ARM.attributes
                0x00000000000009a4       0x34 /opt/gcc-arm-none-eabi-5_4-2016q3/bin/../lib/gcc/arm-none-eabi/5.4.1/../../../../arm-none-eabi/lib/armv7e-m/fpu/libc_nano.a(lib_a-memcpy-stub.o)
 .ARM.attributes
                0x00000000000009d8       0x34 /opt/gcc-arm-none-eabi-5_4-2016q3/bin/../lib/gcc/arm-none-eabi/5.4.1/../../../../arm-none-eabi/lib/armv7e-m/fpu/libc_nano.a(lib_a-memmove.o)
 .ARM.attributes
                0x0000000000000a0c       0x34 /opt/gcc-arm-none-eabi-5_4-2016q3/bin/../lib/gcc/arm-none-eabi/5.4.1/../../../../arm-none-eabi/lib/armv7e-m/fpu/libc_nano.a(lib_a-memset.o)
 .ARM.attributes
                0x0000000000000a40       0x34 /opt/gcc-arm-none-eabi-5_4-2016q3/bin/../lib/gcc/arm-none-eabi/5.4.1/../../../../arm-none-eabi/lib/armv7e-m/fpu/libc_nano.a(lib_a-strcasecmp.o)
 .ARM.attributes
                0x0000000000000a74       0x34 /opt/gcc-arm-none-eabi-5_4-2016q3/bin/../lib/gcc/arm-none-eabi/5.4.1/../../../../arm-none-eabi/lib/armv7e-m/fpu/libc_nano.a(lib_a-strcat.o)
 .ARM.attributes
                0x0000000000000aa8       0x34 /opt/gcc-arm-none-eabi-5_4-2016q3/bin/../lib/gcc/arm-none-eabi/5.4.1/../../../../arm-none-eabi/lib/armv7e-m/fpu/libc_nano.a(lib_a-strchr.o)
 .ARM.attributes
                0x0000000000000adc       0x1b /opt/gcc-arm-none-eabi-5_4-2016q3/bin/../lib/gcc/arm-none-eabi/5.4.1/../../../../arm-none-eabi/lib/armv7e-m/fpu/libc_nano.a(lib_a-strlen.o)
 .ARM.attributes
                0x0000000000000af7       0x34 /opt/gcc-arm-none-eabi-5_4-2016q3/bin/../lib/gcc/arm-none-eabi/5.4.1/../../../../arm-none-eabi/lib/armv7e-m/fpu/libc_nano.a(lib_a-strncasecmp.o)
 .ARM.attributes
                0x0000000000000b2b       0x34 /opt/gcc-arm-none-eabi-5_4-2016q3/bin/../lib/gcc/arm-none-eabi/5.4.1/../../../../arm-none-eabi/lib/armv7e-m/fpu/libc_nano.a(lib_a-strncpy.o)
 .ARM.attributes
                0x0000000000000b5f       0x34 /opt/gcc-arm-none-eabi-5_4-2016q3/bin/../lib/gcc/arm-none-eabi/5.4.1/../../../../arm-none-eabi/lib/armv7e-m/fpu/libc_nano.a(lib_a-strstr.o)
 .ARM.attributes
                0x0000000000000b93       0x22 /opt/gcc-arm-none-eabi-5_4-2016q3/bin/../lib/gcc/arm-none-eabi/5.4.1/armv7e-m/fpu/libgcc.a(_arm_addsubdf3.o)
 .ARM.attributes
                0x0000000000000bb5       0x22 /opt/gcc-arm-none-eabi-5_4-2016q3/bin/../lib/gcc/arm-none-eabi/5.4.1/armv7e-m/fpu/libgcc.a(_arm_muldivdf3.o)
 .ARM.attributes
                0x0000000000000bd7       0x22 /opt/gcc-arm-none-eabi-5_4-2016q3/bin/../lib/gcc/arm-none-eabi/5.4.1/armv7e-m/fpu/libgcc.a(_arm_cmpdf2.o)
 .ARM.attributes
                0x0000000000000bf9       0x22 /opt/gcc-arm-none-eabi-5_4-2016q3/bin/../lib/gcc/arm-none-eabi/5.4.1/armv7e-m/fpu/libgcc.a(_arm_unorddf2.o)
 .ARM.attributes
                0x0000000000000c1b       0x22 /opt/gcc-arm-none-eabi-5_4-2016q3/bin/../lib/gcc/arm-none-eabi/5.4.1/armv7e-m/fpu/libgcc.a(_arm_truncdfsf2.o)
 .ARM.attributes
                0x0000000000000c3d       0x22 /opt/gcc-arm-none-eabi-5_4-2016q3/bin/../lib/gcc/arm-none-eabi/5.4.1/armv7e-m/fpu/libgcc.a(_aeabi_ldivmod.o)
 .ARM.attributes
                0x0000000000000c5f       0x34 /opt/gcc-arm-none-eabi-5_4-2016q3/bin/../lib/gcc/arm-none-eabi/5.4.1/armv7e-m/fpu/libgcc.a(_popcountsi2.o)
 .ARM.attributes
                0x0000000000000c93       0x34 /opt/gcc-arm-none-eabi-5_4-2016q3/bin/../lib/gcc/arm-none-eabi/5.4.1/armv7e-m/fpu/libgcc.a(_udivmoddi4.o)
 .ARM.attributes
                0x0000000000000cc7       0x22 /opt/gcc-arm-none-eabi-5_4-2016q3/bin/../lib/gcc/arm-none-eabi/5.4.1/armv7e-m/fpu/libgcc.a(_dvmd_tls.o)
OUTPUT(obj/main/cleanflight_SPRACINGF3.elf elf32-littlearm)

.debug_info     0x0000000000000000    0x291dc
 .debug_info    0x0000000000000000     0x659c /var/folders/qz/8dvj07d52mjgthd1ds8wvf400000gn/T//ccg5ycur.ltrans0.ltrans.o
 .debug_info    0x000000000000659c     0x4e95 /var/folders/qz/8dvj07d52mjgthd1ds8wvf400000gn/T//ccg5ycur.ltrans1.ltrans.o
 .debug_info    0x000000000000b431     0x2327 /var/folders/qz/8dvj07d52mjgthd1ds8wvf400000gn/T//ccg5ycur.ltrans2.ltrans.o
 .debug_info    0x000000000000d758     0x3518 /var/folders/qz/8dvj07d52mjgthd1ds8wvf400000gn/T//ccg5ycur.ltrans3.ltrans.o
 .debug_info    0x0000000000010c70     0x1f06 /var/folders/qz/8dvj07d52mjgthd1ds8wvf400000gn/T//ccg5ycur.ltrans4.ltrans.o
 .debug_info    0x0000000000012b76     0x24c2 /var/folders/qz/8dvj07d52mjgthd1ds8wvf400000gn/T//ccg5ycur.ltrans5.ltrans.o
 .debug_info    0x0000000000015038     0x2146 /var/folders/qz/8dvj07d52mjgthd1ds8wvf400000gn/T//ccg5ycur.ltrans6.ltrans.o
 .debug_info    0x000000000001717e     0x28c4 /var/folders/qz/8dvj07d52mjgthd1ds8wvf400000gn/T//ccg5ycur.ltrans7.ltrans.o
 .debug_info    0x0000000000019a42     0x2426 /var/folders/qz/8dvj07d52mjgthd1ds8wvf400000gn/T//ccg5ycur.ltrans8.ltrans.o
 .debug_info    0x000000000001be68     0x2846 /var/folders/qz/8dvj07d52mjgthd1ds8wvf400000gn/T//ccg5ycur.ltrans9.ltrans.o
 .debug_info    0x000000000001e6ae     0x23ff /var/folders/qz/8dvj07d52mjgthd1ds8wvf400000gn/T//ccg5ycur.ltrans10.ltrans.o
 .debug_info    0x0000000000020aad     0x149c /var/folders/qz/8dvj07d52mjgthd1ds8wvf400000gn/T//ccg5ycur.ltrans11.ltrans.o
 .debug_info    0x0000000000021f49      0xf6a /var/folders/qz/8dvj07d52mjgthd1ds8wvf400000gn/T//ccg5ycur.ltrans12.ltrans.o
 .debug_info    0x0000000000022eb3     0x1448 /var/folders/qz/8dvj07d52mjgthd1ds8wvf400000gn/T//ccg5ycur.ltrans13.ltrans.o
 .debug_info    0x00000000000242fb     0x124f /var/folders/qz/8dvj07d52mjgthd1ds8wvf400000gn/T//ccg5ycur.ltrans14.ltrans.o
 .debug_info    0x000000000002554a     0x1331 /var/folders/qz/8dvj07d52mjgthd1ds8wvf400000gn/T//ccg5ycur.ltrans15.ltrans.o
 .debug_info    0x000000000002687b     0x191c /var/folders/qz/8dvj07d52mjgthd1ds8wvf400000gn/T//ccg5ycur.ltrans16.ltrans.o
 .debug_info    0x0000000000028197      0x5eb /var/folders/qz/8dvj07d52mjgthd1ds8wvf400000gn/T//ccg5ycur.ltrans17.ltrans.o
 .debug_info    0x0000000000028782      0x345 /var/folders/qz/8dvj07d52mjgthd1ds8wvf400000gn/T//ccg5ycur.ltrans18.ltrans.o
 .debug_info    0x0000000000028ac7      0x4c3 /var/folders/qz/8dvj07d52mjgthd1ds8wvf400000gn/T//ccg5ycur.ltrans19.ltrans.o
 .debug_info    0x0000000000028f8a      0x252 /var/folders/qz/8dvj07d52mjgthd1ds8wvf400000gn/T//ccg5ycur.ltrans20.ltrans.o

.debug_abbrev   0x0000000000000000     0x569a
 .debug_abbrev  0x0000000000000000      0x4a8 /var/folders/qz/8dvj07d52mjgthd1ds8wvf400000gn/T//ccg5ycur.ltrans0.ltrans.o
 .debug_abbrev  0x00000000000004a8      0x48b /var/folders/qz/8dvj07d52mjgthd1ds8wvf400000gn/T//ccg5ycur.ltrans1.ltrans.o
 .debug_abbrev  0x0000000000000933      0x3f3 /var/folders/qz/8dvj07d52mjgthd1ds8wvf400000gn/T//ccg5ycur.ltrans2.ltrans.o
 .debug_abbrev  0x0000000000000d26      0x5df /var/folders/qz/8dvj07d52mjgthd1ds8wvf400000gn/T//ccg5ycur.ltrans3.ltrans.o
 .debug_abbrev  0x0000000000001305      0x36c /var/folders/qz/8dvj07d52mjgthd1ds8wvf400000gn/T//ccg5ycur.ltrans4.ltrans.o
 .debug_abbrev  0x0000000000001671      0x4af /var/folders/qz/8dvj07d52mjgthd1ds8wvf400000gn/T//ccg5ycur.ltrans5.ltrans.o
 .debug_abbrev  0x0000000000001b20      0x5e2 /var/folders/qz/8dvj07d52mjgthd1ds8wvf400000gn/T//ccg5ycur.ltrans6.ltrans.o
 .debug_abbrev  0x0000000000002102      0x5c3 /var/folders/qz/8dvj07d52mjgthd1ds8wvf400000gn/T//ccg5ycur.ltrans7.ltrans.o
 .debug_abbrev  0x00000000000026c5      0x501 /var/folders/qz/8dvj07d52mjgthd1ds8wvf400000gn/T//ccg5ycur.ltrans8.ltrans.o
 .debug_abbrev  0x0000000000002bc6      0x3c8 /var/folders/qz/8dvj07d52mjgthd1ds8wvf400000gn/T//ccg5ycur.ltrans9.ltrans.o
 .debug_abbrev  0x0000000000002f8e      0x56b /var/folders/qz/8dvj07d52mjgthd1ds8wvf400000gn/T//ccg5ycur.ltrans10.ltrans.o
 .debug_abbrev  0x00000000000034f9      0x4ea /var/folders/qz/8dvj07d52mjgthd1ds8wvf400000gn/T//ccg5ycur.ltrans11.ltrans.o
 .debug_abbrev  0x00000000000039e3      0x40d /var/folders/qz/8dvj07d52mjgthd1ds8wvf400000gn/T//ccg5ycur.ltrans12.ltrans.o
 .debug_abbrev  0x0000000000003df0      0x397 /var/folders/qz/8dvj07d52mjgthd1ds8wvf400000gn/T//ccg5ycur.ltrans13.ltrans.o
 .debug_abbrev  0x0000000000004187      0x4f7 /var/folders/qz/8dvj07d52mjgthd1ds8wvf400000gn/T//ccg5ycur.ltrans14.ltrans.o
 .debug_abbrev  0x000000000000467e      0x408 /var/folders/qz/8dvj07d52mjgthd1ds8wvf400000gn/T//ccg5ycur.ltrans15.ltrans.o
 .debug_abbrev  0x0000000000004a86      0x58d /var/folders/qz/8dvj07d52mjgthd1ds8wvf400000gn/T//ccg5ycur.ltrans16.ltrans.o
 .debug_abbrev  0x0000000000005013      0x1cd /var/folders/qz/8dvj07d52mjgthd1ds8wvf400000gn/T//ccg5ycur.ltrans17.ltrans.o
 .debug_abbrev  0x00000000000051e0      0x1a2 /var/folders/qz/8dvj07d52mjgthd1ds8wvf400000gn/T//ccg5ycur.ltrans18.ltrans.o
 .debug_abbrev  0x0000000000005382      0x1f3 /var/folders/qz/8dvj07d52mjgthd1ds8wvf400000gn/T//ccg5ycur.ltrans19.ltrans.o
 .debug_abbrev  0x0000000000005575      0x125 /var/folders/qz/8dvj07d52mjgthd1ds8wvf400000gn/T//ccg5ycur.ltrans20.ltrans.o

.debug_loc      0x0000000000000000    0x1422e
 .debug_loc     0x0000000000000000     0x2431 /var/folders/qz/8dvj07d52mjgthd1ds8wvf400000gn/T//ccg5ycur.ltrans0.ltrans.o
 .debug_loc     0x0000000000002431     0x36a1 /var/folders/qz/8dvj07d52mjgthd1ds8wvf400000gn/T//ccg5ycur.ltrans1.ltrans.o
 .debug_loc     0x0000000000005ad2      0x9a9 /var/folders/qz/8dvj07d52mjgthd1ds8wvf400000gn/T//ccg5ycur.ltrans2.ltrans.o
 .debug_loc     0x000000000000647b     0x1f82 /var/folders/qz/8dvj07d52mjgthd1ds8wvf400000gn/T//ccg5ycur.ltrans3.ltrans.o
 .debug_loc     0x00000000000083fd      0xe07 /var/folders/qz/8dvj07d52mjgthd1ds8wvf400000gn/T//ccg5ycur.ltrans4.ltrans.o
 .debug_loc     0x0000000000009204     0x1306 /var/folders/qz/8dvj07d52mjgthd1ds8wvf400000gn/T//ccg5ycur.ltrans5.ltrans.o
 .debug_loc     0x000000000000a50a     0x1332 /var/folders/qz/8dvj07d52mjgthd1ds8wvf400000gn/T//ccg5ycur.ltrans6.ltrans.o
 .debug_loc     0x000000000000b83c     0x1751 /var/folders/qz/8dvj07d52mjgthd1ds8wvf400000gn/T//ccg5ycur.ltrans7.ltrans.o
 .debug_loc     0x000000000000cf8d      0xb3e /var/folders/qz/8dvj07d52mjgthd1ds8wvf400000gn/T//ccg5ycur.ltrans8.ltrans.o
 .debug_loc     0x000000000000dacb     0x136a /var/folders/qz/8dvj07d52mjgthd1ds8wvf400000gn/T//ccg5ycur.ltrans9.ltrans.o
 .debug_loc     0x000000000000ee35     0x1063 /var/folders/qz/8dvj07d52mjgthd1ds8wvf400000gn/T//ccg5ycur.ltrans10.ltrans.o
 .debug_loc     0x000000000000fe98     0x10ee /var/folders/qz/8dvj07d52mjgthd1ds8wvf400000gn/T//ccg5ycur.ltrans11.ltrans.o
 .debug_loc     0x0000000000010f86      0x3fa /var/folders/qz/8dvj07d52mjgthd1ds8wvf400000gn/T//ccg5ycur.ltrans12.ltrans.o
 .debug_loc     0x0000000000011380      0x9b0 /var/folders/qz/8dvj07d52mjgthd1ds8wvf400000gn/T//ccg5ycur.ltrans13.ltrans.o
 .debug_loc     0x0000000000011d30      0xb57 /var/folders/qz/8dvj07d52mjgthd1ds8wvf400000gn/T//ccg5ycur.ltrans14.ltrans.o
 .debug_loc     0x0000000000012887      0xa38 /var/folders/qz/8dvj07d52mjgthd1ds8wvf400000gn/T//ccg5ycur.ltrans15.ltrans.o
 .debug_loc     0x00000000000132bf      0x9cf /var/folders/qz/8dvj07d52mjgthd1ds8wvf400000gn/T//ccg5ycur.ltrans16.ltrans.o
 .debug_loc     0x0000000000013c8e      0x402 /var/folders/qz/8dvj07d52mjgthd1ds8wvf400000gn/T//ccg5ycur.ltrans17.ltrans.o
 .debug_loc     0x0000000000014090       0x14 /var/folders/qz/8dvj07d52mjgthd1ds8wvf400000gn/T//ccg5ycur.ltrans18.ltrans.o
 .debug_loc     0x00000000000140a4       0xec /var/folders/qz/8dvj07d52mjgthd1ds8wvf400000gn/T//ccg5ycur.ltrans19.ltrans.o
 .debug_loc     0x0000000000014190       0x9e /var/folders/qz/8dvj07d52mjgthd1ds8wvf400000gn/T//ccg5ycur.ltrans20.ltrans.o

.debug_aranges  0x0000000000000000      0x2a0
 .debug_aranges
                0x0000000000000000       0x20 /var/folders/qz/8dvj07d52mjgthd1ds8wvf400000gn/T//ccg5ycur.ltrans0.ltrans.o
 .debug_aranges
                0x0000000000000020       0x20 /var/folders/qz/8dvj07d52mjgthd1ds8wvf400000gn/T//ccg5ycur.ltrans1.ltrans.o
 .debug_aranges
                0x0000000000000040       0x20 /var/folders/qz/8dvj07d52mjgthd1ds8wvf400000gn/T//ccg5ycur.ltrans2.ltrans.o
 .debug_aranges
                0x0000000000000060       0x20 /var/folders/qz/8dvj07d52mjgthd1ds8wvf400000gn/T//ccg5ycur.ltrans3.ltrans.o
 .debug_aranges
                0x0000000000000080       0x20 /var/folders/qz/8dvj07d52mjgthd1ds8wvf400000gn/T//ccg5ycur.ltrans4.ltrans.o
 .debug_aranges
                0x00000000000000a0       0x20 /var/folders/qz/8dvj07d52mjgthd1ds8wvf400000gn/T//ccg5ycur.ltrans5.ltrans.o
 .debug_aranges
                0x00000000000000c0       0x20 /var/folders/qz/8dvj07d52mjgthd1ds8wvf400000gn/T//ccg5ycur.ltrans6.ltrans.o
 .debug_aranges
                0x00000000000000e0       0x20 /var/folders/qz/8dvj07d52mjgthd1ds8wvf400000gn/T//ccg5ycur.ltrans7.ltrans.o
 .debug_aranges
                0x0000000000000100       0x20 /var/folders/qz/8dvj07d52mjgthd1ds8wvf400000gn/T//ccg5ycur.ltrans8.ltrans.o
 .debug_aranges
                0x0000000000000120       0x20 /var/folders/qz/8dvj07d52mjgthd1ds8wvf400000gn/T//ccg5ycur.ltrans9.ltrans.o
 .debug_aranges
                0x0000000000000140       0x20 /var/folders/qz/8dvj07d52mjgthd1ds8wvf400000gn/T//ccg5ycur.ltrans10.ltrans.o
 .debug_aranges
                0x0000000000000160       0x20 /var/folders/qz/8dvj07d52mjgthd1ds8wvf400000gn/T//ccg5ycur.ltrans11.ltrans.o
 .debug_aranges
                0x0000000000000180       0x20 /var/folders/qz/8dvj07d52mjgthd1ds8wvf400000gn/T//ccg5ycur.ltrans12.ltrans.o
 .debug_aranges
                0x00000000000001a0       0x20 /var/folders/qz/8dvj07d52mjgthd1ds8wvf400000gn/T//ccg5ycur.ltrans13.ltrans.o
 .debug_aranges
                0x00000000000001c0       0x20 /var/folders/qz/8dvj07d52mjgthd1ds8wvf400000gn/T//ccg5ycur.ltrans14.ltrans.o
 .debug_aranges
                0x00000000000001e0       0x20 /var/folders/qz/8dvj07d52mjgthd1ds8wvf400000gn/T//ccg5ycur.ltrans15.ltrans.o
 .debug_aranges
                0x0000000000000200       0x20 /var/folders/qz/8dvj07d52mjgthd1ds8wvf400000gn/T//ccg5ycur.ltrans16.ltrans.o
 .debug_aranges
                0x0000000000000220       0x20 /var/folders/qz/8dvj07d52mjgthd1ds8wvf400000gn/T//ccg5ycur.ltrans17.ltrans.o
 .debug_aranges
                0x0000000000000240       0x20 /var/folders/qz/8dvj07d52mjgthd1ds8wvf400000gn/T//ccg5ycur.ltrans18.ltrans.o
 .debug_aranges
                0x0000000000000260       0x20 /var/folders/qz/8dvj07d52mjgthd1ds8wvf400000gn/T//ccg5ycur.ltrans19.ltrans.o
 .debug_aranges
                0x0000000000000280       0x20 /var/folders/qz/8dvj07d52mjgthd1ds8wvf400000gn/T//ccg5ycur.ltrans20.ltrans.o

.debug_ranges   0x0000000000000000     0x44a0
 .debug_ranges  0x0000000000000000      0xdf0 /var/folders/qz/8dvj07d52mjgthd1ds8wvf400000gn/T//ccg5ycur.ltrans0.ltrans.o
 .debug_ranges  0x0000000000000df0      0xf60 /var/folders/qz/8dvj07d52mjgthd1ds8wvf400000gn/T//ccg5ycur.ltrans1.ltrans.o
 .debug_ranges  0x0000000000001d50      0x500 /var/folders/qz/8dvj07d52mjgthd1ds8wvf400000gn/T//ccg5ycur.ltrans2.ltrans.o
 .debug_ranges  0x0000000000002250      0x170 /var/folders/qz/8dvj07d52mjgthd1ds8wvf400000gn/T//ccg5ycur.ltrans3.ltrans.o
 .debug_ranges  0x00000000000023c0      0x5e8 /var/folders/qz/8dvj07d52mjgthd1ds8wvf400000gn/T//ccg5ycur.ltrans4.ltrans.o
 .debug_ranges  0x00000000000029a8      0x208 /var/folders/qz/8dvj07d52mjgthd1ds8wvf400000gn/T//ccg5ycur.ltrans5.ltrans.o
 .debug_ranges  0x0000000000002bb0      0x298 /var/folders/qz/8dvj07d52mjgthd1ds8wvf400000gn/T//ccg5ycur.ltrans6.ltrans.o
 .debug_ranges  0x0000000000002e48      0x208 /var/folders/qz/8dvj07d52mjgthd1ds8wvf400000gn/T//ccg5ycur.ltrans7.ltrans.o
 .debug_ranges  0x0000000000003050      0x3c0 /var/folders/qz/8dvj07d52mjgthd1ds8wvf400000gn/T//ccg5ycur.ltrans8.ltrans.o
 .debug_ranges  0x0000000000003410      0x160 /var/folders/qz/8dvj07d52mjgthd1ds8wvf400000gn/T//ccg5ycur.ltrans9.ltrans.o
 .debug_ranges  0x0000000000003570      0x1e8 /var/folders/qz/8dvj07d52mjgthd1ds8wvf400000gn/T//ccg5ycur.ltrans10.ltrans.o
 .debug_ranges  0x0000000000003758      0x120 /var/folders/qz/8dvj07d52mjgthd1ds8wvf400000gn/T//ccg5ycur.ltrans11.ltrans.o
 .debug_ranges  0x0000000000003878      0x218 /var/folders/qz/8dvj07d52mjgthd1ds8wvf400000gn/T//ccg5ycur.ltrans12.ltrans.o
 .debug_ranges  0x0000000000003a90      0x2e8 /var/folders/qz/8dvj07d52mjgthd1ds8wvf400000gn/T//ccg5ycur.ltrans13.ltrans.o
 .debug_ranges  0x0000000000003d78      0x1b0 /var/folders/qz/8dvj07d52mjgthd1ds8wvf400000gn/T//ccg5ycur.ltrans14.ltrans.o
 .debug_ranges  0x0000000000003f28      0x220 /var/folders/qz/8dvj07d52mjgthd1ds8wvf400000gn/T//ccg5ycur.ltrans15.ltrans.o
 .debug_ranges  0x0000000000004148      0x240 /var/folders/qz/8dvj07d52mjgthd1ds8wvf400000gn/T//ccg5ycur.ltrans16.ltrans.o
 .debug_ranges  0x0000000000004388       0x60 /var/folders/qz/8dvj07d52mjgthd1ds8wvf400000gn/T//ccg5ycur.ltrans17.ltrans.o
 .debug_ranges  0x00000000000043e8       0x18 /var/folders/qz/8dvj07d52mjgthd1ds8wvf400000gn/T//ccg5ycur.ltrans18.ltrans.o
 .debug_ranges  0x0000000000004400       0x88 /var/folders/qz/8dvj07d52mjgthd1ds8wvf400000gn/T//ccg5ycur.ltrans19.ltrans.o
 .debug_ranges  0x0000000000004488       0x18 /var/folders/qz/8dvj07d52mjgthd1ds8wvf400000gn/T//ccg5ycur.ltrans20.ltrans.o

.debug_line     0x0000000000000000     0x8ae9
 .debug_line    0x0000000000000000     0x13c9 /var/folders/qz/8dvj07d52mjgthd1ds8wvf400000gn/T//ccg5ycur.ltrans0.ltrans.o
 .debug_line    0x00000000000013c9     0x107a /var/folders/qz/8dvj07d52mjgthd1ds8wvf400000gn/T//ccg5ycur.ltrans1.ltrans.o
 .debug_line    0x0000000000002443      0x999 /var/folders/qz/8dvj07d52mjgthd1ds8wvf400000gn/T//ccg5ycur.ltrans2.ltrans.o
 .debug_line    0x0000000000002ddc      0x8f7 /var/folders/qz/8dvj07d52mjgthd1ds8wvf400000gn/T//ccg5ycur.ltrans3.ltrans.o
 .debug_line    0x00000000000036d3      0x870 /var/folders/qz/8dvj07d52mjgthd1ds8wvf400000gn/T//ccg5ycur.ltrans4.ltrans.o
 .debug_line    0x0000000000003f43      0x59c /var/folders/qz/8dvj07d52mjgthd1ds8wvf400000gn/T//ccg5ycur.ltrans5.ltrans.o
 .debug_line    0x00000000000044df      0x794 /var/folders/qz/8dvj07d52mjgthd1ds8wvf400000gn/T//ccg5ycur.ltrans6.ltrans.o
 .debug_line    0x0000000000004c73      0x712 /var/folders/qz/8dvj07d52mjgthd1ds8wvf400000gn/T//ccg5ycur.ltrans7.ltrans.o
 .debug_line    0x0000000000005385      0x854 /var/folders/qz/8dvj07d52mjgthd1ds8wvf400000gn/T//ccg5ycur.ltrans8.ltrans.o
 .debug_line    0x0000000000005bd9      0x722 /var/folders/qz/8dvj07d52mjgthd1ds8wvf400000gn/T//ccg5ycur.ltrans9.ltrans.o
 .debug_line    0x00000000000062fb      0x600 /var/folders/qz/8dvj07d52mjgthd1ds8wvf400000gn/T//ccg5ycur.ltrans10.ltrans.o
 .debug_line    0x00000000000068fb      0x4f3 /var/folders/qz/8dvj07d52mjgthd1ds8wvf400000gn/T//ccg5ycur.ltrans11.ltrans.o
 .debug_line    0x0000000000006dee      0x4dc /var/folders/qz/8dvj07d52mjgthd1ds8wvf400000gn/T//ccg5ycur.ltrans12.ltrans.o
 .debug_line    0x00000000000072ca      0x378 /var/folders/qz/8dvj07d52mjgthd1ds8wvf400000gn/T//ccg5ycur.ltrans13.ltrans.o
 .debug_line    0x0000000000007642      0x453 /var/folders/qz/8dvj07d52mjgthd1ds8wvf400000gn/T//ccg5ycur.ltrans14.ltrans.o
 .debug_line    0x0000000000007a95      0x3d9 /var/folders/qz/8dvj07d52mjgthd1ds8wvf400000gn/T//ccg5ycur.ltrans15.ltrans.o
 .debug_line    0x0000000000007e6e      0x525 /var/folders/qz/8dvj07d52mjgthd1ds8wvf400000gn/T//ccg5ycur.ltrans16.ltrans.o
 .debug_line    0x0000000000008393      0x244 /var/folders/qz/8dvj07d52mjgthd1ds8wvf400000gn/T//ccg5ycur.ltrans17.ltrans.o
 .debug_line    0x00000000000085d7      0x218 /var/folders/qz/8dvj07d52mjgthd1ds8wvf400000gn/T//ccg5ycur.ltrans18.ltrans.o
 .debug_line    0x00000000000087ef      0x19d /var/folders/qz/8dvj07d52mjgthd1ds8wvf400000gn/T//ccg5ycur.ltrans19.ltrans.o
 .debug_line    0x000000000000898c      0x15d /var/folders/qz/8dvj07d52mjgthd1ds8wvf400000gn/T//ccg5ycur.ltrans20.ltrans.o

.debug_str      0x0000000000000000     0xbe46
 .debug_str     0x0000000000000000     0x3359 /var/folders/qz/8dvj07d52mjgthd1ds8wvf400000gn/T//ccg5ycur.ltrans0.ltrans.o
                                       0x347a (size before relaxing)
 .debug_str     0x0000000000003359     0x16b2 /var/folders/qz/8dvj07d52mjgthd1ds8wvf400000gn/T//ccg5ycur.ltrans1.ltrans.o
                                       0x2731 (size before relaxing)
 .debug_str     0x0000000000004a0b      0xcec /var/folders/qz/8dvj07d52mjgthd1ds8wvf400000gn/T//ccg5ycur.ltrans2.ltrans.o
                                       0x17b8 (size before relaxing)
 .debug_str     0x00000000000056f7     0x1185 /var/folders/qz/8dvj07d52mjgthd1ds8wvf400000gn/T//ccg5ycur.ltrans3.ltrans.o
                                       0x1d08 (size before relaxing)
 .debug_str     0x000000000000687c      0x7b6 /var/folders/qz/8dvj07d52mjgthd1ds8wvf400000gn/T//ccg5ycur.ltrans4.ltrans.o
                                       0x1092 (size before relaxing)
 .debug_str     0x0000000000007032      0x848 /var/folders/qz/8dvj07d52mjgthd1ds8wvf400000gn/T//ccg5ycur.ltrans5.ltrans.o
                                       0x1005 (size before relaxing)
 .debug_str     0x000000000000787a      0x567 /var/folders/qz/8dvj07d52mjgthd1ds8wvf400000gn/T//ccg5ycur.ltrans6.ltrans.o
                                       0x137c (size before relaxing)
 .debug_str     0x0000000000007de1      0x7dd /var/folders/qz/8dvj07d52mjgthd1ds8wvf400000gn/T//ccg5ycur.ltrans7.ltrans.o
                                       0x1585 (size before relaxing)
 .debug_str     0x00000000000085be      0x9bd /var/folders/qz/8dvj07d52mjgthd1ds8wvf400000gn/T//ccg5ycur.ltrans8.ltrans.o
                                       0x17f1 (size before relaxing)
 .debug_str     0x0000000000008f7b      0x489 /var/folders/qz/8dvj07d52mjgthd1ds8wvf400000gn/T//ccg5ycur.ltrans9.ltrans.o
                                       0x170d (size before relaxing)
 .debug_str     0x0000000000009404      0x920 /var/folders/qz/8dvj07d52mjgthd1ds8wvf400000gn/T//ccg5ycur.ltrans10.ltrans.o
                                       0x1305 (size before relaxing)
 .debug_str     0x0000000000009d24      0x365 /var/folders/qz/8dvj07d52mjgthd1ds8wvf400000gn/T//ccg5ycur.ltrans11.ltrans.o
                                        0xaf9 (size before relaxing)
 .debug_str     0x000000000000a089      0x438 /var/folders/qz/8dvj07d52mjgthd1ds8wvf400000gn/T//ccg5ycur.ltrans12.ltrans.o
                                        0xaad (size before relaxing)
 .debug_str     0x000000000000a4c1      0x5d1 /var/folders/qz/8dvj07d52mjgthd1ds8wvf400000gn/T//ccg5ycur.ltrans13.ltrans.o
                                        0xa33 (size before relaxing)
 .debug_str     0x000000000000aa92      0x362 /var/folders/qz/8dvj07d52mjgthd1ds8wvf400000gn/T//ccg5ycur.ltrans14.ltrans.o
                                        0xa47 (size before relaxing)
 .debug_str     0x000000000000adf4      0x354 /var/folders/qz/8dvj07d52mjgthd1ds8wvf400000gn/T//ccg5ycur.ltrans15.ltrans.o
                                        0x615 (size before relaxing)
 .debug_str     0x000000000000b148      0xa80 /var/folders/qz/8dvj07d52mjgthd1ds8wvf400000gn/T//ccg5ycur.ltrans16.ltrans.o
                                       0x12b2 (size before relaxing)
 .debug_str     0x000000000000bbc8       0xd7 /var/folders/qz/8dvj07d52mjgthd1ds8wvf400000gn/T//ccg5ycur.ltrans17.ltrans.o
                                        0x439 (size before relaxing)
 .debug_str     0x000000000000bc9f       0x83 /var/folders/qz/8dvj07d52mjgthd1ds8wvf400000gn/T//ccg5ycur.ltrans18.ltrans.o
                                        0x56f (size before relaxing)
 .debug_str     0x000000000000bd22       0xfb /var/folders/qz/8dvj07d52mjgthd1ds8wvf400000gn/T//ccg5ycur.ltrans19.ltrans.o
                                        0x4be (size before relaxing)
 .debug_str     0x000000000000be1d       0x29 /var/folders/qz/8dvj07d52mjgthd1ds8wvf400000gn/T//ccg5ycur.ltrans20.ltrans.o
                                        0x2a0 (size before relaxing)

.comment        0x0000000000000000       0x6e
 .comment       0x0000000000000000       0x6e /var/folders/qz/8dvj07d52mjgthd1ds8wvf400000gn/T//ccg5ycur.ltrans0.ltrans.o
                                         0x6f (size before relaxing)
 .comment       0x000000000000006e       0x6f /var/folders/qz/8dvj07d52mjgthd1ds8wvf400000gn/T//ccg5ycur.ltrans1.ltrans.o
 .comment       0x000000000000006e       0x6f /var/folders/qz/8dvj07d52mjgthd1ds8wvf400000gn/T//ccg5ycur.ltrans2.ltrans.o
 .comment       0x000000000000006e       0x6f /var/folders/qz/8dvj07d52mjgthd1ds8wvf400000gn/T//ccg5ycur.ltrans3.ltrans.o
 .comment       0x000000000000006e       0x6f /var/folders/qz/8dvj07d52mjgthd1ds8wvf400000gn/T//ccg5ycur.ltrans4.ltrans.o
 .comment       0x000000000000006e       0x6f /var/folders/qz/8dvj07d52mjgthd1ds8wvf400000gn/T//ccg5ycur.ltrans5.ltrans.o
 .comment       0x000000000000006e       0x6f /var/folders/qz/8dvj07d52mjgthd1ds8wvf400000gn/T//ccg5ycur.ltrans6.ltrans.o
 .comment       0x000000000000006e       0x6f /var/folders/qz/8dvj07d52mjgthd1ds8wvf400000gn/T//ccg5ycur.ltrans7.ltrans.o
 .comment       0x000000000000006e       0x6f /var/folders/qz/8dvj07d52mjgthd1ds8wvf400000gn/T//ccg5ycur.ltrans8.ltrans.o
 .comment       0x000000000000006e       0x6f /var/folders/qz/8dvj07d52mjgthd1ds8wvf400000gn/T//ccg5ycur.ltrans9.ltrans.o
 .comment       0x000000000000006e       0x6f /var/folders/qz/8dvj07d52mjgthd1ds8wvf400000gn/T//ccg5ycur.ltrans10.ltrans.o
 .comment       0x000000000000006e       0x6f /var/folders/qz/8dvj07d52mjgthd1ds8wvf400000gn/T//ccg5ycur.ltrans11.ltrans.o
 .comment       0x000000000000006e       0x6f /var/folders/qz/8dvj07d52mjgthd1ds8wvf400000gn/T//ccg5ycur.ltrans12.ltrans.o
 .comment       0x000000000000006e       0x6f /var/folders/qz/8dvj07d52mjgthd1ds8wvf400000gn/T//ccg5ycur.ltrans13.ltrans.o
 .comment       0x000000000000006e       0x6f /var/folders/qz/8dvj07d52mjgthd1ds8wvf400000gn/T//ccg5ycur.ltrans14.ltrans.o
 .comment       0x000000000000006e       0x6f /var/folders/qz/8dvj07d52mjgthd1ds8wvf400000gn/T//ccg5ycur.ltrans15.ltrans.o
 .comment       0x000000000000006e       0x6f /var/folders/qz/8dvj07d52mjgthd1ds8wvf400000gn/T//ccg5ycur.ltrans16.ltrans.o
 .comment       0x000000000000006e       0x6f /var/folders/qz/8dvj07d52mjgthd1ds8wvf400000gn/T//ccg5ycur.ltrans17.ltrans.o
 .comment       0x000000000000006e       0x6f /var/folders/qz/8dvj07d52mjgthd1ds8wvf400000gn/T//ccg5ycur.ltrans18.ltrans.o
 .comment       0x000000000000006e       0x6f /var/folders/qz/8dvj07d52mjgthd1ds8wvf400000gn/T//ccg5ycur.ltrans19.ltrans.o
 .comment       0x000000000000006e       0x6f /var/folders/qz/8dvj07d52mjgthd1ds8wvf400000gn/T//ccg5ycur.ltrans20.ltrans.o

.debug_frame    0x0000000000000000     0x24c4
 .debug_frame   0x0000000000000000       0x30 /var/folders/qz/8dvj07d52mjgthd1ds8wvf400000gn/T//ccg5ycur.ltrans0.ltrans.o
 .debug_frame   0x0000000000000030       0x44 /var/folders/qz/8dvj07d52mjgthd1ds8wvf400000gn/T//ccg5ycur.ltrans1.ltrans.o
 .debug_frame   0x0000000000000074       0x50 /var/folders/qz/8dvj07d52mjgthd1ds8wvf400000gn/T//ccg5ycur.ltrans2.ltrans.o
 .debug_frame   0x00000000000000c4      0x364 /var/folders/qz/8dvj07d52mjgthd1ds8wvf400000gn/T//ccg5ycur.ltrans3.ltrans.o
 .debug_frame   0x0000000000000428       0xb0 /var/folders/qz/8dvj07d52mjgthd1ds8wvf400000gn/T//ccg5ycur.ltrans4.ltrans.o
 .debug_frame   0x00000000000004d8      0x2b8 /var/folders/qz/8dvj07d52mjgthd1ds8wvf400000gn/T//ccg5ycur.ltrans5.ltrans.o
 .debug_frame   0x0000000000000790      0x284 /var/folders/qz/8dvj07d52mjgthd1ds8wvf400000gn/T//ccg5ycur.ltrans6.ltrans.o
 .debug_frame   0x0000000000000a14      0x488 /var/folders/qz/8dvj07d52mjgthd1ds8wvf400000gn/T//ccg5ycur.ltrans7.ltrans.o
 .debug_frame   0x0000000000000e9c      0x1b4 /var/folders/qz/8dvj07d52mjgthd1ds8wvf400000gn/T//ccg5ycur.ltrans8.ltrans.o
 .debug_frame   0x0000000000001050      0x110 /var/folders/qz/8dvj07d52mjgthd1ds8wvf400000gn/T//ccg5ycur.ltrans9.ltrans.o
 .debug_frame   0x0000000000001160      0x23c /var/folders/qz/8dvj07d52mjgthd1ds8wvf400000gn/T//ccg5ycur.ltrans10.ltrans.o
 .debug_frame   0x000000000000139c      0x188 /var/folders/qz/8dvj07d52mjgthd1ds8wvf400000gn/T//ccg5ycur.ltrans11.ltrans.o
 .debug_frame   0x0000000000001524       0xc8 /var/folders/qz/8dvj07d52mjgthd1ds8wvf400000gn/T//ccg5ycur.ltrans12.ltrans.o
 .debug_frame   0x00000000000015ec       0x40 /var/folders/qz/8dvj07d52mjgthd1ds8wvf400000gn/T//ccg5ycur.ltrans13.ltrans.o
 .debug_frame   0x000000000000162c      0x1e4 /var/folders/qz/8dvj07d52mjgthd1ds8wvf400000gn/T//ccg5ycur.ltrans14.ltrans.o
 .debug_frame   0x0000000000001810      0x218 /var/folders/qz/8dvj07d52mjgthd1ds8wvf400000gn/T//ccg5ycur.ltrans15.ltrans.o
 .debug_frame   0x0000000000001a28      0x25c /var/folders/qz/8dvj07d52mjgthd1ds8wvf400000gn/T//ccg5ycur.ltrans16.ltrans.o
 .debug_frame   0x0000000000001c84       0x50 /var/folders/qz/8dvj07d52mjgthd1ds8wvf400000gn/T//ccg5ycur.ltrans17.ltrans.o
 .debug_frame   0x0000000000001cd4       0x58 /var/folders/qz/8dvj07d52mjgthd1ds8wvf400000gn/T//ccg5ycur.ltrans18.ltrans.o
 .debug_frame   0x0000000000001d2c       0x34 /var/folders/qz/8dvj07d52mjgthd1ds8wvf400000gn/T//ccg5ycur.ltrans19.ltrans.o
 .debug_frame   0x0000000000001d60       0x2c /var/folders/qz/8dvj07d52mjgthd1ds8wvf400000gn/T//ccg5ycur.ltrans20.ltrans.o
 .debug_frame   0x0000000000001d8c       0x30 /opt/gcc-arm-none-eabi-5_4-2016q3/bin/../lib/gcc/arm-none-eabi/5.4.1/../../../../arm-none-eabi/lib/armv7e-m/fpu/libc_nano.a(lib_a-atoi.o)
 .debug_frame   0x0000000000001dbc       0x88 /opt/gcc-arm-none-eabi-5_4-2016q3/bin/../lib/gcc/arm-none-eabi/5.4.1/../../../../arm-none-eabi/lib/armv7e-m/fpu/libc_nano.a(lib_a-locale.o)
 .debug_frame   0x0000000000001e44       0x44 /opt/gcc-arm-none-eabi-5_4-2016q3/bin/../lib/gcc/arm-none-eabi/5.4.1/../../../../arm-none-eabi/lib/armv7e-m/fpu/libc_nano.a(lib_a-mbtowc_r.o)
 .debug_frame   0x0000000000001e88       0x20 /opt/gcc-arm-none-eabi-5_4-2016q3/bin/../lib/gcc/arm-none-eabi/5.4.1/../../../../arm-none-eabi/lib/armv7e-m/fpu/libc_nano.a(lib_a-strcmp.o)
 .debug_frame   0x0000000000001ea8       0x40 /opt/gcc-arm-none-eabi-5_4-2016q3/bin/../lib/gcc/arm-none-eabi/5.4.1/../../../../arm-none-eabi/lib/armv7e-m/fpu/libc_nano.a(lib_a-strtok_r.o)
 .debug_frame   0x0000000000001ee8       0x84 /opt/gcc-arm-none-eabi-5_4-2016q3/bin/../lib/gcc/arm-none-eabi/5.4.1/../../../../arm-none-eabi/lib/armv7e-m/fpu/libc_nano.a(lib_a-strtol.o)
 .debug_frame   0x0000000000001f6c       0x3c /opt/gcc-arm-none-eabi-5_4-2016q3/bin/../lib/gcc/arm-none-eabi/5.4.1/../../../../arm-none-eabi/lib/armv7e-m/fpu/libc_nano.a(lib_a-wctomb_r.o)
 .debug_frame   0x0000000000001fa8       0x38 /opt/gcc-arm-none-eabi-5_4-2016q3/bin/../lib/gcc/arm-none-eabi/5.4.1/../../../../arm-none-eabi/lib/armv7e-m/fpu/libm.a(lib_a-sf_lrint.o)
 .debug_frame   0x0000000000001fe0       0x6c /opt/gcc-arm-none-eabi-5_4-2016q3/bin/../lib/gcc/arm-none-eabi/5.4.1/../../../../arm-none-eabi/lib/armv7e-m/fpu/libm.a(lib_a-w_pow.o)
 .debug_frame   0x000000000000204c       0x50 /opt/gcc-arm-none-eabi-5_4-2016q3/bin/../lib/gcc/arm-none-eabi/5.4.1/../../../../arm-none-eabi/lib/armv7e-m/fpu/libm.a(lib_a-wf_sqrt.o)
 .debug_frame   0x000000000000209c       0x64 /opt/gcc-arm-none-eabi-5_4-2016q3/bin/../lib/gcc/arm-none-eabi/5.4.1/../../../../arm-none-eabi/lib/armv7e-m/fpu/libm.a(lib_a-e_pow.o)
 .debug_frame   0x0000000000002100       0x30 /opt/gcc-arm-none-eabi-5_4-2016q3/bin/../lib/gcc/arm-none-eabi/5.4.1/../../../../arm-none-eabi/lib/armv7e-m/fpu/libm.a(lib_a-e_sqrt.o)
 .debug_frame   0x0000000000002130       0x3c /opt/gcc-arm-none-eabi-5_4-2016q3/bin/../lib/gcc/arm-none-eabi/5.4.1/../../../../arm-none-eabi/lib/armv7e-m/fpu/libm.a(lib_a-ef_sqrt.o)
 .debug_frame   0x000000000000216c       0x20 /opt/gcc-arm-none-eabi-5_4-2016q3/bin/../lib/gcc/arm-none-eabi/5.4.1/../../../../arm-none-eabi/lib/armv7e-m/fpu/libm.a(lib_a-s_fabs.o)
 .debug_frame   0x000000000000218c       0x20 /opt/gcc-arm-none-eabi-5_4-2016q3/bin/../lib/gcc/arm-none-eabi/5.4.1/../../../../arm-none-eabi/lib/armv7e-m/fpu/libm.a(lib_a-s_finite.o)
 .debug_frame   0x00000000000021ac       0x20 /opt/gcc-arm-none-eabi-5_4-2016q3/bin/../lib/gcc/arm-none-eabi/5.4.1/../../../../arm-none-eabi/lib/armv7e-m/fpu/libm.a(lib_a-s_matherr.o)
 .debug_frame   0x00000000000021cc       0x20 /opt/gcc-arm-none-eabi-5_4-2016q3/bin/../lib/gcc/arm-none-eabi/5.4.1/../../../../arm-none-eabi/lib/armv7e-m/fpu/libm.a(lib_a-s_nan.o)
 .debug_frame   0x00000000000021ec       0x3c /opt/gcc-arm-none-eabi-5_4-2016q3/bin/../lib/gcc/arm-none-eabi/5.4.1/../../../../arm-none-eabi/lib/armv7e-m/fpu/libm.a(lib_a-s_rint.o)
 .debug_frame   0x0000000000002228       0x2c /opt/gcc-arm-none-eabi-5_4-2016q3/bin/../lib/gcc/arm-none-eabi/5.4.1/../../../../arm-none-eabi/lib/armv7e-m/fpu/libm.a(lib_a-s_scalbn.o)
 .debug_frame   0x0000000000002254       0x20 /opt/gcc-arm-none-eabi-5_4-2016q3/bin/../lib/gcc/arm-none-eabi/5.4.1/../../../../arm-none-eabi/lib/armv7e-m/fpu/libm.a(lib_a-s_copysign.o)
 .debug_frame   0x0000000000002274       0x20 /opt/gcc-arm-none-eabi-5_4-2016q3/bin/../lib/gcc/arm-none-eabi/5.4.1/../../../../arm-none-eabi/lib/armv7e-m/fpu/libc_nano.a(lib_a-errno.o)
 .debug_frame   0x0000000000002294       0x28 /opt/gcc-arm-none-eabi-5_4-2016q3/bin/../lib/gcc/arm-none-eabi/5.4.1/../../../../arm-none-eabi/lib/armv7e-m/fpu/libc_nano.a(lib_a-memcmp.o)
 .debug_frame   0x00000000000022bc       0x28 /opt/gcc-arm-none-eabi-5_4-2016q3/bin/../lib/gcc/arm-none-eabi/5.4.1/../../../../arm-none-eabi/lib/armv7e-m/fpu/libc_nano.a(lib_a-memcpy-stub.o)
 .debug_frame   0x00000000000022e4       0x28 /opt/gcc-arm-none-eabi-5_4-2016q3/bin/../lib/gcc/arm-none-eabi/5.4.1/../../../../arm-none-eabi/lib/armv7e-m/fpu/libc_nano.a(lib_a-memmove.o)
 .debug_frame   0x000000000000230c       0x20 /opt/gcc-arm-none-eabi-5_4-2016q3/bin/../lib/gcc/arm-none-eabi/5.4.1/../../../../arm-none-eabi/lib/armv7e-m/fpu/libc_nano.a(lib_a-memset.o)
 .debug_frame   0x000000000000232c       0x30 /opt/gcc-arm-none-eabi-5_4-2016q3/bin/../lib/gcc/arm-none-eabi/5.4.1/../../../../arm-none-eabi/lib/armv7e-m/fpu/libc_nano.a(lib_a-strcasecmp.o)
 .debug_frame   0x000000000000235c       0x28 /opt/gcc-arm-none-eabi-5_4-2016q3/bin/../lib/gcc/arm-none-eabi/5.4.1/../../../../arm-none-eabi/lib/armv7e-m/fpu/libc_nano.a(lib_a-strcat.o)
 .debug_frame   0x0000000000002384       0x20 /opt/gcc-arm-none-eabi-5_4-2016q3/bin/../lib/gcc/arm-none-eabi/5.4.1/../../../../arm-none-eabi/lib/armv7e-m/fpu/libc_nano.a(lib_a-strchr.o)
 .debug_frame   0x00000000000023a4       0x30 /opt/gcc-arm-none-eabi-5_4-2016q3/bin/../lib/gcc/arm-none-eabi/5.4.1/../../../../arm-none-eabi/lib/armv7e-m/fpu/libc_nano.a(lib_a-strncasecmp.o)
 .debug_frame   0x00000000000023d4       0x28 /opt/gcc-arm-none-eabi-5_4-2016q3/bin/../lib/gcc/arm-none-eabi/5.4.1/../../../../arm-none-eabi/lib/armv7e-m/fpu/libc_nano.a(lib_a-strncpy.o)
 .debug_frame   0x00000000000023fc       0x30 /opt/gcc-arm-none-eabi-5_4-2016q3/bin/../lib/gcc/arm-none-eabi/5.4.1/../../../../arm-none-eabi/lib/armv7e-m/fpu/libc_nano.a(lib_a-strstr.o)
 .debug_frame   0x000000000000242c       0x44 /opt/gcc-arm-none-eabi-5_4-2016q3/bin/../lib/gcc/arm-none-eabi/5.4.1/armv7e-m/fpu/libgcc.a(_aeabi_ldivmod.o)
 .debug_frame   0x0000000000002470       0x20 /opt/gcc-arm-none-eabi-5_4-2016q3/bin/../lib/gcc/arm-none-eabi/5.4.1/armv7e-m/fpu/libgcc.a(_popcountsi2.o)
 .debug_frame   0x0000000000002490       0x34 /opt/gcc-arm-none-eabi-5_4-2016q3/bin/../lib/gcc/arm-none-eabi/5.4.1/armv7e-m/fpu/libgcc.a(_udivmoddi4.o)

Cross Reference Table

Symbol                                            File
ADC1_2_IRQHandler                                 obj/main/SPRACINGF3/startup_stm32f30x_md_gcc.o
ADC3_IRQHandler                                   obj/main/SPRACINGF3/startup_stm32f30x_md_gcc.o
ADC4_IRQHandler                                   obj/main/SPRACINGF3/startup_stm32f30x_md_gcc.o
ADC_AnalogWatchdog1SingleChannelConfig            obj/main/SPRACINGF3/stm32f30x_adc.o (symbol from plugin)
ADC_AnalogWatchdog1ThresholdsConfig               obj/main/SPRACINGF3/stm32f30x_adc.o (symbol from plugin)
ADC_AnalogWatchdog2SingleChannelConfig            obj/main/SPRACINGF3/stm32f30x_adc.o (symbol from plugin)
ADC_AnalogWatchdog2ThresholdsConfig               obj/main/SPRACINGF3/stm32f30x_adc.o (symbol from plugin)
ADC_AnalogWatchdog3SingleChannelConfig            obj/main/SPRACINGF3/stm32f30x_adc.o (symbol from plugin)
ADC_AnalogWatchdog3ThresholdsConfig               obj/main/SPRACINGF3/stm32f30x_adc.o (symbol from plugin)
ADC_AnalogWatchdogCmd                             obj/main/SPRACINGF3/stm32f30x_adc.o (symbol from plugin)
ADC_AutoDelayCmd                                  obj/main/SPRACINGF3/stm32f30x_adc.o (symbol from plugin)
ADC_AutoInjectedConvCmd                           obj/main/SPRACINGF3/stm32f30x_adc.o (symbol from plugin)
ADC_ChannelOffset1Cmd                             obj/main/SPRACINGF3/stm32f30x_adc.o (symbol from plugin)
ADC_ChannelOffset2Cmd                             obj/main/SPRACINGF3/stm32f30x_adc.o (symbol from plugin)
ADC_ChannelOffset3Cmd                             obj/main/SPRACINGF3/stm32f30x_adc.o (symbol from plugin)
ADC_ChannelOffset4Cmd                             obj/main/SPRACINGF3/stm32f30x_adc.o (symbol from plugin)
ADC_ClearCommonFlag                               obj/main/SPRACINGF3/stm32f30x_adc.o (symbol from plugin)
ADC_ClearFlag                                     obj/main/SPRACINGF3/stm32f30x_adc.o (symbol from plugin)
ADC_ClearITPendingBit                             obj/main/SPRACINGF3/stm32f30x_adc.o (symbol from plugin)
ADC_Cmd                                           obj/main/SPRACINGF3/stm32f30x_adc.o (symbol from plugin)
                                                  obj/main/SPRACINGF3/drivers/adc_stm32f30x.o (symbol from plugin)
ADC_CommonInit                                    obj/main/SPRACINGF3/stm32f30x_adc.o (symbol from plugin)
                                                  obj/main/SPRACINGF3/drivers/adc_stm32f30x.o (symbol from plugin)
ADC_CommonStructInit                              obj/main/SPRACINGF3/stm32f30x_adc.o (symbol from plugin)
                                                  obj/main/SPRACINGF3/drivers/adc_stm32f30x.o (symbol from plugin)
ADC_DMACmd                                        obj/main/SPRACINGF3/stm32f30x_adc.o (symbol from plugin)
                                                  obj/main/SPRACINGF3/drivers/adc_stm32f30x.o (symbol from plugin)
ADC_DMAConfig                                     obj/main/SPRACINGF3/stm32f30x_adc.o (symbol from plugin)
                                                  obj/main/SPRACINGF3/drivers/adc_stm32f30x.o (symbol from plugin)
ADC_DeInit                                        obj/main/SPRACINGF3/stm32f30x_adc.o (symbol from plugin)
ADC_DisableCmd                                    obj/main/SPRACINGF3/stm32f30x_adc.o (symbol from plugin)
ADC_DiscModeChannelCountConfig                    obj/main/SPRACINGF3/stm32f30x_adc.o (symbol from plugin)
ADC_DiscModeCmd                                   obj/main/SPRACINGF3/stm32f30x_adc.o (symbol from plugin)
ADC_ExternalTriggerConfig                         obj/main/SPRACINGF3/stm32f30x_adc.o (symbol from plugin)
ADC_GetCalibrationStatus                          obj/main/SPRACINGF3/stm32f30x_adc.o (symbol from plugin)
                                                  obj/main/SPRACINGF3/drivers/adc_stm32f30x.o (symbol from plugin)
ADC_GetCalibrationValue                           obj/main/SPRACINGF3/stm32f30x_adc.o (symbol from plugin)
ADC_GetCommonFlagStatus                           obj/main/SPRACINGF3/stm32f30x_adc.o (symbol from plugin)
ADC_GetConversionValue                            obj/main/SPRACINGF3/stm32f30x_adc.o (symbol from plugin)
ADC_GetDisableCmdStatus                           obj/main/SPRACINGF3/stm32f30x_adc.o (symbol from plugin)
ADC_GetDualModeConversionValue                    obj/main/SPRACINGF3/stm32f30x_adc.o (symbol from plugin)
ADC_GetFlagStatus                                 obj/main/SPRACINGF3/stm32f30x_adc.o (symbol from plugin)
                                                  obj/main/SPRACINGF3/drivers/adc_stm32f30x.o (symbol from plugin)
ADC_GetITStatus                                   obj/main/SPRACINGF3/stm32f30x_adc.o (symbol from plugin)
ADC_GetInjectedConversionValue                    obj/main/SPRACINGF3/stm32f30x_adc.o (symbol from plugin)
ADC_GetStartConversionStatus                      obj/main/SPRACINGF3/stm32f30x_adc.o (symbol from plugin)
ADC_GetStartInjectedConversionStatus              obj/main/SPRACINGF3/stm32f30x_adc.o (symbol from plugin)
ADC_ITConfig                                      obj/main/SPRACINGF3/stm32f30x_adc.o (symbol from plugin)
ADC_Init                                          obj/main/SPRACINGF3/stm32f30x_adc.o (symbol from plugin)
                                                  obj/main/SPRACINGF3/drivers/adc_stm32f30x.o (symbol from plugin)
ADC_InjectedChannelSampleTimeConfig               obj/main/SPRACINGF3/stm32f30x_adc.o (symbol from plugin)
ADC_InjectedDiscModeCmd                           obj/main/SPRACINGF3/stm32f30x_adc.o (symbol from plugin)
ADC_InjectedInit                                  obj/main/SPRACINGF3/stm32f30x_adc.o (symbol from plugin)
ADC_InjectedStructInit                            obj/main/SPRACINGF3/stm32f30x_adc.o (symbol from plugin)
ADC_RegularChannelConfig                          obj/main/SPRACINGF3/stm32f30x_adc.o (symbol from plugin)
                                                  obj/main/SPRACINGF3/drivers/adc_stm32f30x.o (symbol from plugin)
ADC_RegularChannelSequencerLengthConfig           obj/main/SPRACINGF3/stm32f30x_adc.o (symbol from plugin)
ADC_SelectCalibrationMode                         obj/main/SPRACINGF3/stm32f30x_adc.o (symbol from plugin)
                                                  obj/main/SPRACINGF3/drivers/adc_stm32f30x.o (symbol from plugin)
ADC_SelectDifferentialMode                        obj/main/SPRACINGF3/stm32f30x_adc.o (symbol from plugin)
ADC_SelectQueueOfContextMode                      obj/main/SPRACINGF3/stm32f30x_adc.o (symbol from plugin)
ADC_SetCalibrationValue                           obj/main/SPRACINGF3/stm32f30x_adc.o (symbol from plugin)
ADC_SetChannelOffset1                             obj/main/SPRACINGF3/stm32f30x_adc.o (symbol from plugin)
ADC_SetChannelOffset2                             obj/main/SPRACINGF3/stm32f30x_adc.o (symbol from plugin)
ADC_SetChannelOffset3                             obj/main/SPRACINGF3/stm32f30x_adc.o (symbol from plugin)
ADC_SetChannelOffset4                             obj/main/SPRACINGF3/stm32f30x_adc.o (symbol from plugin)
ADC_StartCalibration                              obj/main/SPRACINGF3/stm32f30x_adc.o (symbol from plugin)
                                                  obj/main/SPRACINGF3/drivers/adc_stm32f30x.o (symbol from plugin)
ADC_StartConversion                               obj/main/SPRACINGF3/stm32f30x_adc.o (symbol from plugin)
                                                  obj/main/SPRACINGF3/drivers/adc_stm32f30x.o (symbol from plugin)
ADC_StartInjectedConversion                       obj/main/SPRACINGF3/stm32f30x_adc.o (symbol from plugin)
ADC_StopConversion                                obj/main/SPRACINGF3/stm32f30x_adc.o (symbol from plugin)
ADC_StopInjectedConversion                        obj/main/SPRACINGF3/stm32f30x_adc.o (symbol from plugin)
ADC_StructInit                                    obj/main/SPRACINGF3/stm32f30x_adc.o (symbol from plugin)
                                                  obj/main/SPRACINGF3/drivers/adc_stm32f30x.o (symbol from plugin)
ADC_TempSensorCmd                                 obj/main/SPRACINGF3/stm32f30x_adc.o (symbol from plugin)
ADC_VbatCmd                                       obj/main/SPRACINGF3/stm32f30x_adc.o (symbol from plugin)
ADC_VoltageRegulatorCmd                           obj/main/SPRACINGF3/stm32f30x_adc.o (symbol from plugin)
                                                  obj/main/SPRACINGF3/drivers/adc_stm32f30x.o (symbol from plugin)
ADC_VrefintCmd                                    obj/main/SPRACINGF3/stm32f30x_adc.o (symbol from plugin)
AHBPrescTable                                     obj/main/SPRACINGF3/target/system_stm32f30x.o (symbol from plugin)
APP_DATA_FLAG                                     /var/folders/qz/8dvj07d52mjgthd1ds8wvf400000gn/T//ccg5ycur.ltrans11.ltrans.o
                                                  obj/main/SPRACINGF3/drivers/app.o (symbol from plugin)
                                                  /var/folders/qz/8dvj07d52mjgthd1ds8wvf400000gn/T//ccg5ycur.ltrans2.ltrans.o
                                                  obj/main/SPRACINGF3/rx/rx.o (symbol from plugin)
Abs_Altitude                                      obj/main/SPRACINGF3/drivers/fbm320.o (symbol from plugin)
AccInflightCalibrationActive                      /var/folders/qz/8dvj07d52mjgthd1ds8wvf400000gn/T//ccg5ycur.ltrans2.ltrans.o
                                                  obj/main/SPRACINGF3/fc/cleanflight_fc.o (symbol from plugin)
                                                  /var/folders/qz/8dvj07d52mjgthd1ds8wvf400000gn/T//ccg5ycur.ltrans12.ltrans.o
                                                  obj/main/SPRACINGF3/sensors/acceleration.o (symbol from plugin)
AccInflightCalibrationArmed                       obj/main/SPRACINGF3/fc/cleanflight_fc.o (symbol from plugin)
AccInflightCalibrationMeasurementDone             /var/folders/qz/8dvj07d52mjgthd1ds8wvf400000gn/T//ccg5ycur.ltrans2.ltrans.o
                                                  obj/main/SPRACINGF3/fc/cleanflight_fc.o (symbol from plugin)
                                                  /var/folders/qz/8dvj07d52mjgthd1ds8wvf400000gn/T//ccg5ycur.ltrans12.ltrans.o
                                                  obj/main/SPRACINGF3/sensors/acceleration.o (symbol from plugin)
AccInflightCalibrationSavetoEEProm                /var/folders/qz/8dvj07d52mjgthd1ds8wvf400000gn/T//ccg5ycur.ltrans2.ltrans.o
                                                  obj/main/SPRACINGF3/fc/cleanflight_fc.o (symbol from plugin)
                                                  /var/folders/qz/8dvj07d52mjgthd1ds8wvf400000gn/T//ccg5ycur.ltrans12.ltrans.o
                                                  obj/main/SPRACINGF3/sensors/acceleration.o (symbol from plugin)
AltHold                                           /var/folders/qz/8dvj07d52mjgthd1ds8wvf400000gn/T//ccg5ycur.ltrans8.ltrans.o
                                                  obj/main/SPRACINGF3/flight/altitudehold.o (symbol from plugin)
                                                  /var/folders/qz/8dvj07d52mjgthd1ds8wvf400000gn/T//ccg5ycur.ltrans4.ltrans.o
                                                  /var/folders/qz/8dvj07d52mjgthd1ds8wvf400000gn/T//ccg5ycur.ltrans2.ltrans.o
App_DataReceive.lto_priv.240                      /var/folders/qz/8dvj07d52mjgthd1ds8wvf400000gn/T//ccg5ycur.ltrans11.ltrans.o
                                                  /var/folders/qz/8dvj07d52mjgthd1ds8wvf400000gn/T//ccg5ycur.ltrans0.ltrans.o
App_data                                          /var/folders/qz/8dvj07d52mjgthd1ds8wvf400000gn/T//ccg5ycur.ltrans11.ltrans.o
                                                  obj/main/SPRACINGF3/drivers/app.o (symbol from plugin)
                                                  /var/folders/qz/8dvj07d52mjgthd1ds8wvf400000gn/T//ccg5ycur.ltrans2.ltrans.o
                                                  obj/main/SPRACINGF3/drivers/nrf2401.o (symbol from plugin)
BL_ConnectEx                                      obj/main/SPRACINGF3/io/serial_4way_avrootloader.o (symbol from plugin)
                                                  obj/main/SPRACINGF3/io/serial_4way.o (symbol from plugin)
BL_GetACK.lto_priv.173                            /var/folders/qz/8dvj07d52mjgthd1ds8wvf400000gn/T//ccg5ycur.ltrans15.ltrans.o
                                                  /var/folders/qz/8dvj07d52mjgthd1ds8wvf400000gn/T//ccg5ycur.ltrans13.ltrans.o
BL_PageErase                                      obj/main/SPRACINGF3/io/serial_4way_avrootloader.o (symbol from plugin)
                                                  obj/main/SPRACINGF3/io/serial_4way.o (symbol from plugin)
BL_ReadA.lto_priv.170                             /var/folders/qz/8dvj07d52mjgthd1ds8wvf400000gn/T//ccg5ycur.ltrans15.ltrans.o
                                                  /var/folders/qz/8dvj07d52mjgthd1ds8wvf400000gn/T//ccg5ycur.ltrans13.ltrans.o
BL_ReadEEprom                                     obj/main/SPRACINGF3/io/serial_4way_avrootloader.o (symbol from plugin)
                                                  obj/main/SPRACINGF3/io/serial_4way.o (symbol from plugin)
BL_ReadFlashATM                                   obj/main/SPRACINGF3/io/serial_4way_avrootloader.o (symbol from plugin)
                                                  obj/main/SPRACINGF3/io/serial_4way.o (symbol from plugin)
BL_ReadFlashSIL                                   obj/main/SPRACINGF3/io/serial_4way_avrootloader.o (symbol from plugin)
                                                  obj/main/SPRACINGF3/io/serial_4way.o (symbol from plugin)
BL_SendBuf.lto_priv.172                           /var/folders/qz/8dvj07d52mjgthd1ds8wvf400000gn/T//ccg5ycur.ltrans15.ltrans.o
                                                  /var/folders/qz/8dvj07d52mjgthd1ds8wvf400000gn/T//ccg5ycur.ltrans13.ltrans.o
BL_SendCMDKeepAlive                               obj/main/SPRACINGF3/io/serial_4way_avrootloader.o (symbol from plugin)
                                                  obj/main/SPRACINGF3/io/serial_4way.o (symbol from plugin)
BL_SendCMDRunRestartBootloader                    obj/main/SPRACINGF3/io/serial_4way_avrootloader.o (symbol from plugin)
                                                  obj/main/SPRACINGF3/io/serial_4way.o (symbol from plugin)
BL_SendCMDSetAddress.isra.1.lto_priv.171          /var/folders/qz/8dvj07d52mjgthd1ds8wvf400000gn/T//ccg5ycur.ltrans15.ltrans.o
                                                  /var/folders/qz/8dvj07d52mjgthd1ds8wvf400000gn/T//ccg5ycur.ltrans13.ltrans.o
BL_WriteA.lto_priv.168                            /var/folders/qz/8dvj07d52mjgthd1ds8wvf400000gn/T//ccg5ycur.ltrans15.ltrans.o
                                                  /var/folders/qz/8dvj07d52mjgthd1ds8wvf400000gn/T//ccg5ycur.ltrans13.ltrans.o
BL_WriteEEprom                                    obj/main/SPRACINGF3/io/serial_4way_avrootloader.o (symbol from plugin)
                                                  obj/main/SPRACINGF3/io/serial_4way.o (symbol from plugin)
BL_WriteFlash                                     obj/main/SPRACINGF3/io/serial_4way_avrootloader.o (symbol from plugin)
                                                  obj/main/SPRACINGF3/io/serial_4way.o (symbol from plugin)
BaroAlt                                           obj/main/SPRACINGF3/sensors/barometer.o (symbol from plugin)
                                                  obj/main/SPRACINGF3/flight/altitudehold.o (symbol from plugin)
BiQuadNewLpf                                      obj/main/SPRACINGF3/common/filter.o (symbol from plugin)
                                                  obj/main/SPRACINGF3/sensors/gyro.o (symbol from plugin)
                                                  obj/main/SPRACINGF3/sensors/battery.o (symbol from plugin)
BusFault_Handler                                  obj/main/SPRACINGF3/startup_stm32f30x_md_gcc.o
CAN1_RX1_IRQHandler                               obj/main/SPRACINGF3/startup_stm32f30x_md_gcc.o
CAN1_SCE_IRQHandler                               obj/main/SPRACINGF3/startup_stm32f30x_md_gcc.o
CHAR_FORMAT                                       obj/main/SPRACINGF3/drivers/display_ug2864hsweg01.o (symbol from plugin)
COMP1_2_3_IRQHandler                              obj/main/SPRACINGF3/startup_stm32f30x_md_gcc.o
COMP4_5_6_IRQHandler                              obj/main/SPRACINGF3/startup_stm32f30x_md_gcc.o
COMP7_IRQHandler                                  obj/main/SPRACINGF3/startup_stm32f30x_md_gcc.o
COMP_Cmd                                          obj/main/SPRACINGF3/stm32f30x_comp.o (symbol from plugin)
COMP_DeInit                                       obj/main/SPRACINGF3/stm32f30x_comp.o (symbol from plugin)
COMP_GetOutputLevel                               obj/main/SPRACINGF3/stm32f30x_comp.o (symbol from plugin)
COMP_Init                                         obj/main/SPRACINGF3/stm32f30x_comp.o (symbol from plugin)
COMP_LockConfig                                   obj/main/SPRACINGF3/stm32f30x_comp.o (symbol from plugin)
COMP_StructInit                                   obj/main/SPRACINGF3/stm32f30x_comp.o (symbol from plugin)
COMP_SwitchCmd                                    obj/main/SPRACINGF3/stm32f30x_comp.o (symbol from plugin)
COMP_WindowCmd                                    obj/main/SPRACINGF3/stm32f30x_comp.o (symbol from plugin)
DAC_ClearFlag                                     obj/main/SPRACINGF3/stm32f30x_dac.o (symbol from plugin)
DAC_ClearITPendingBit                             obj/main/SPRACINGF3/stm32f30x_dac.o (symbol from plugin)
DAC_Cmd                                           obj/main/SPRACINGF3/stm32f30x_dac.o (symbol from plugin)
DAC_DMACmd                                        obj/main/SPRACINGF3/stm32f30x_dac.o (symbol from plugin)
DAC_DeInit                                        obj/main/SPRACINGF3/stm32f30x_dac.o (symbol from plugin)
DAC_DualSoftwareTriggerCmd                        obj/main/SPRACINGF3/stm32f30x_dac.o (symbol from plugin)
DAC_GetDataOutputValue                            obj/main/SPRACINGF3/stm32f30x_dac.o (symbol from plugin)
DAC_GetFlagStatus                                 obj/main/SPRACINGF3/stm32f30x_dac.o (symbol from plugin)
DAC_GetITStatus                                   obj/main/SPRACINGF3/stm32f30x_dac.o (symbol from plugin)
DAC_ITConfig                                      obj/main/SPRACINGF3/stm32f30x_dac.o (symbol from plugin)
DAC_Init                                          obj/main/SPRACINGF3/stm32f30x_dac.o (symbol from plugin)
DAC_SetChannel1Data                               obj/main/SPRACINGF3/stm32f30x_dac.o (symbol from plugin)
DAC_SetChannel2Data                               obj/main/SPRACINGF3/stm32f30x_dac.o (symbol from plugin)
DAC_SetDualChannelData                            obj/main/SPRACINGF3/stm32f30x_dac.o (symbol from plugin)
DAC_SoftwareTriggerCmd                            obj/main/SPRACINGF3/stm32f30x_dac.o (symbol from plugin)
DAC_StructInit                                    obj/main/SPRACINGF3/stm32f30x_dac.o (symbol from plugin)
DAC_WaveGenerationCmd                             obj/main/SPRACINGF3/stm32f30x_dac.o (symbol from plugin)
DBGMCU_APB1PeriphConfig                           obj/main/SPRACINGF3/stm32f30x_dbgmcu.o (symbol from plugin)
DBGMCU_APB2PeriphConfig                           obj/main/SPRACINGF3/stm32f30x_dbgmcu.o (symbol from plugin)
DBGMCU_Config                                     obj/main/SPRACINGF3/stm32f30x_dbgmcu.o (symbol from plugin)
DBGMCU_GetDEVID                                   obj/main/SPRACINGF3/stm32f30x_dbgmcu.o (symbol from plugin)
DBGMCU_GetREVID                                   obj/main/SPRACINGF3/stm32f30x_dbgmcu.o (symbol from plugin)
DMA1_Channel1_IRQHandler                          /var/folders/qz/8dvj07d52mjgthd1ds8wvf400000gn/T//ccg5ycur.ltrans7.ltrans.o
                                                  obj/main/SPRACINGF3/drivers/dma.o (symbol from plugin)
                                                  obj/main/SPRACINGF3/startup_stm32f30x_md_gcc.o
DMA1_Channel2_IRQHandler                          /var/folders/qz/8dvj07d52mjgthd1ds8wvf400000gn/T//ccg5ycur.ltrans7.ltrans.o
                                                  obj/main/SPRACINGF3/drivers/dma.o (symbol from plugin)
                                                  obj/main/SPRACINGF3/startup_stm32f30x_md_gcc.o
DMA1_Channel3_IRQHandler                          /var/folders/qz/8dvj07d52mjgthd1ds8wvf400000gn/T//ccg5ycur.ltrans7.ltrans.o
                                                  obj/main/SPRACINGF3/drivers/dma.o (symbol from plugin)
                                                  obj/main/SPRACINGF3/startup_stm32f30x_md_gcc.o
DMA1_Channel4_IRQHandler                          /var/folders/qz/8dvj07d52mjgthd1ds8wvf400000gn/T//ccg5ycur.ltrans7.ltrans.o
                                                  obj/main/SPRACINGF3/drivers/dma.o (symbol from plugin)
                                                  obj/main/SPRACINGF3/startup_stm32f30x_md_gcc.o
DMA1_Channel5_IRQHandler                          /var/folders/qz/8dvj07d52mjgthd1ds8wvf400000gn/T//ccg5ycur.ltrans7.ltrans.o
                                                  obj/main/SPRACINGF3/drivers/dma.o (symbol from plugin)
                                                  obj/main/SPRACINGF3/startup_stm32f30x_md_gcc.o
DMA1_Channel6_IRQHandler                          /var/folders/qz/8dvj07d52mjgthd1ds8wvf400000gn/T//ccg5ycur.ltrans7.ltrans.o
                                                  obj/main/SPRACINGF3/drivers/dma.o (symbol from plugin)
                                                  obj/main/SPRACINGF3/startup_stm32f30x_md_gcc.o
DMA1_Channel7_IRQHandler                          /var/folders/qz/8dvj07d52mjgthd1ds8wvf400000gn/T//ccg5ycur.ltrans7.ltrans.o
                                                  obj/main/SPRACINGF3/drivers/dma.o (symbol from plugin)
                                                  obj/main/SPRACINGF3/startup_stm32f30x_md_gcc.o
DMA2_Channel1_IRQHandler                          obj/main/SPRACINGF3/startup_stm32f30x_md_gcc.o
DMA2_Channel2_IRQHandler                          obj/main/SPRACINGF3/startup_stm32f30x_md_gcc.o
DMA2_Channel3_IRQHandler                          obj/main/SPRACINGF3/startup_stm32f30x_md_gcc.o
DMA2_Channel4_IRQHandler                          obj/main/SPRACINGF3/startup_stm32f30x_md_gcc.o
DMA2_Channel5_IRQHandler                          obj/main/SPRACINGF3/startup_stm32f30x_md_gcc.o
DMA_ClearFlag                                     obj/main/SPRACINGF3/stm32f30x_dma.o (symbol from plugin)
DMA_ClearITPendingBit                             obj/main/SPRACINGF3/stm32f30x_dma.o (symbol from plugin)
DMA_Cmd                                           obj/main/SPRACINGF3/stm32f30x_dma.o (symbol from plugin)
                                                  obj/main/SPRACINGF3/drivers/light_ws2811strip_stm32f30x.o (symbol from plugin)
                                                  obj/main/SPRACINGF3/drivers/light_ws2811strip.o (symbol from plugin)
                                                  obj/main/SPRACINGF3/drivers/serial_uart_stm32f30x.o (symbol from plugin)
                                                  obj/main/SPRACINGF3/drivers/serial_uart.o (symbol from plugin)
                                                  obj/main/SPRACINGF3/drivers/adc_stm32f30x.o (symbol from plugin)
DMA_DeInit                                        /var/folders/qz/8dvj07d52mjgthd1ds8wvf400000gn/T//ccg5ycur.ltrans11.ltrans.o
                                                  obj/main/SPRACINGF3/stm32f30x_dma.o (symbol from plugin)
                                                  /var/folders/qz/8dvj07d52mjgthd1ds8wvf400000gn/T//ccg5ycur.ltrans9.ltrans.o
                                                  /var/folders/qz/8dvj07d52mjgthd1ds8wvf400000gn/T//ccg5ycur.ltrans0.ltrans.o
                                                  obj/main/SPRACINGF3/drivers/light_ws2811strip_stm32f30x.o (symbol from plugin)
                                                  obj/main/SPRACINGF3/drivers/serial_uart.o (symbol from plugin)
                                                  obj/main/SPRACINGF3/drivers/adc_stm32f30x.o (symbol from plugin)
DMA_GetCurrDataCounter                            obj/main/SPRACINGF3/stm32f30x_dma.o (symbol from plugin)
                                                  obj/main/SPRACINGF3/drivers/serial_uart.o (symbol from plugin)
DMA_GetFlagStatus                                 obj/main/SPRACINGF3/stm32f30x_dma.o (symbol from plugin)
DMA_GetITStatus                                   obj/main/SPRACINGF3/stm32f30x_dma.o (symbol from plugin)
DMA_IRQHandler                                    obj/main/SPRACINGF3/drivers/dma.o (symbol from plugin)
DMA_ITConfig                                      obj/main/SPRACINGF3/stm32f30x_dma.o (symbol from plugin)
                                                  obj/main/SPRACINGF3/drivers/light_ws2811strip_stm32f30x.o (symbol from plugin)
                                                  obj/main/SPRACINGF3/drivers/serial_uart.o (symbol from plugin)
DMA_Init                                          /var/folders/qz/8dvj07d52mjgthd1ds8wvf400000gn/T//ccg5ycur.ltrans11.ltrans.o
                                                  obj/main/SPRACINGF3/stm32f30x_dma.o (symbol from plugin)
                                                  /var/folders/qz/8dvj07d52mjgthd1ds8wvf400000gn/T//ccg5ycur.ltrans9.ltrans.o
                                                  /var/folders/qz/8dvj07d52mjgthd1ds8wvf400000gn/T//ccg5ycur.ltrans0.ltrans.o
                                                  obj/main/SPRACINGF3/drivers/light_ws2811strip_stm32f30x.o (symbol from plugin)
                                                  obj/main/SPRACINGF3/drivers/serial_uart.o (symbol from plugin)
                                                  obj/main/SPRACINGF3/drivers/adc_stm32f30x.o (symbol from plugin)
DMA_SetCurrDataCounter                            obj/main/SPRACINGF3/stm32f30x_dma.o (symbol from plugin)
                                                  obj/main/SPRACINGF3/drivers/light_ws2811strip_stm32f30x.o (symbol from plugin)
                                                  obj/main/SPRACINGF3/drivers/serial_uart.o (symbol from plugin)
DMA_StructInit                                    obj/main/SPRACINGF3/stm32f30x_dma.o (symbol from plugin)
                                                  obj/main/SPRACINGF3/drivers/light_ws2811strip_stm32f30x.o (symbol from plugin)
                                                  obj/main/SPRACINGF3/drivers/serial_uart.o (symbol from plugin)
                                                  obj/main/SPRACINGF3/drivers/adc_stm32f30x.o (symbol from plugin)
DebugMon_Handler                                  obj/main/SPRACINGF3/startup_stm32f30x_md_gcc.o
Default_Handler                                   obj/main/SPRACINGF3/startup_stm32f30x_md_gcc.o
EXTI0_IRQHandler                                  /var/folders/qz/8dvj07d52mjgthd1ds8wvf400000gn/T//ccg5ycur.ltrans6.ltrans.o
                                                  obj/main/SPRACINGF3/drivers/exti.o (symbol from plugin)
                                                  obj/main/SPRACINGF3/startup_stm32f30x_md_gcc.o
EXTI15_10_IRQHandler                              /var/folders/qz/8dvj07d52mjgthd1ds8wvf400000gn/T//ccg5ycur.ltrans6.ltrans.o
                                                  obj/main/SPRACINGF3/drivers/exti.o (symbol from plugin)
                                                  obj/main/SPRACINGF3/startup_stm32f30x_md_gcc.o
EXTI1_IRQHandler                                  /var/folders/qz/8dvj07d52mjgthd1ds8wvf400000gn/T//ccg5ycur.ltrans6.ltrans.o
                                                  obj/main/SPRACINGF3/drivers/exti.o (symbol from plugin)
                                                  obj/main/SPRACINGF3/startup_stm32f30x_md_gcc.o
EXTI2_TS_IRQHandler                               /var/folders/qz/8dvj07d52mjgthd1ds8wvf400000gn/T//ccg5ycur.ltrans6.ltrans.o
                                                  obj/main/SPRACINGF3/drivers/exti.o (symbol from plugin)
                                                  obj/main/SPRACINGF3/startup_stm32f30x_md_gcc.o
EXTI3_IRQHandler                                  /var/folders/qz/8dvj07d52mjgthd1ds8wvf400000gn/T//ccg5ycur.ltrans6.ltrans.o
                                                  obj/main/SPRACINGF3/drivers/exti.o (symbol from plugin)
                                                  obj/main/SPRACINGF3/startup_stm32f30x_md_gcc.o
EXTI4_IRQHandler                                  /var/folders/qz/8dvj07d52mjgthd1ds8wvf400000gn/T//ccg5ycur.ltrans6.ltrans.o
                                                  obj/main/SPRACINGF3/drivers/exti.o (symbol from plugin)
                                                  obj/main/SPRACINGF3/startup_stm32f30x_md_gcc.o
EXTI9_5_IRQHandler                                /var/folders/qz/8dvj07d52mjgthd1ds8wvf400000gn/T//ccg5ycur.ltrans6.ltrans.o
                                                  obj/main/SPRACINGF3/drivers/exti.o (symbol from plugin)
                                                  obj/main/SPRACINGF3/startup_stm32f30x_md_gcc.o
EXTIConfig                                        obj/main/SPRACINGF3/drivers/exti.o (symbol from plugin)
                                                  obj/main/SPRACINGF3/drivers/compass_hmc5883l.o (symbol from plugin)
                                                  obj/main/SPRACINGF3/drivers/accgyro_mpu.o (symbol from plugin)
EXTIEnable                                        obj/main/SPRACINGF3/drivers/exti.o (symbol from plugin)
                                                  obj/main/SPRACINGF3/drivers/compass_hmc5883l.o (symbol from plugin)
                                                  obj/main/SPRACINGF3/drivers/accgyro_mpu.o (symbol from plugin)
EXTIHandlerInit                                   obj/main/SPRACINGF3/drivers/exti.o (symbol from plugin)
                                                  obj/main/SPRACINGF3/drivers/compass_hmc5883l.o (symbol from plugin)
                                                  obj/main/SPRACINGF3/drivers/accgyro_mpu.o (symbol from plugin)
EXTIInit                                          obj/main/SPRACINGF3/drivers/exti.o (symbol from plugin)
                                                  obj/main/SPRACINGF3/fc/boot.o (symbol from plugin)
EXTIRelease                                       obj/main/SPRACINGF3/drivers/exti.o (symbol from plugin)
EXTI_ClearFlag                                    obj/main/SPRACINGF3/stm32f30x_exti.o (symbol from plugin)
EXTI_ClearITPendingBit                            obj/main/SPRACINGF3/stm32f30x_exti.o (symbol from plugin)
                                                  obj/main/SPRACINGF3/drivers/exti.o (symbol from plugin)
EXTI_DeInit                                       obj/main/SPRACINGF3/stm32f30x_exti.o (symbol from plugin)
EXTI_GenerateSWInterrupt                          obj/main/SPRACINGF3/stm32f30x_exti.o (symbol from plugin)
EXTI_GetFlagStatus                                obj/main/SPRACINGF3/stm32f30x_exti.o (symbol from plugin)
EXTI_GetITStatus                                  obj/main/SPRACINGF3/stm32f30x_exti.o (symbol from plugin)
EXTI_IRQHandler                                   obj/main/SPRACINGF3/drivers/exti.o (symbol from plugin)
EXTI_Init                                         obj/main/SPRACINGF3/stm32f30x_exti.o (symbol from plugin)
                                                  obj/main/SPRACINGF3/drivers/exti.o (symbol from plugin)
EXTI_StructInit                                   obj/main/SPRACINGF3/stm32f30x_exti.o (symbol from plugin)
EstAlt.lto_priv.188                               /var/folders/qz/8dvj07d52mjgthd1ds8wvf400000gn/T//ccg5ycur.ltrans1.ltrans.o
                                                  /var/folders/qz/8dvj07d52mjgthd1ds8wvf400000gn/T//ccg5ycur.ltrans8.ltrans.o
                                                  /var/folders/qz/8dvj07d52mjgthd1ds8wvf400000gn/T//ccg5ycur.ltrans4.ltrans.o
                                                  /var/folders/qz/8dvj07d52mjgthd1ds8wvf400000gn/T//ccg5ycur.ltrans2.ltrans.o
FB                                                /var/folders/qz/8dvj07d52mjgthd1ds8wvf400000gn/T//ccg5ycur.ltrans11.ltrans.o
                                                  obj/main/SPRACINGF3/drivers/fbm320.o (symbol from plugin)
                                                  /var/folders/qz/8dvj07d52mjgthd1ds8wvf400000gn/T//ccg5ycur.ltrans8.ltrans.o
                                                  /var/folders/qz/8dvj07d52mjgthd1ds8wvf400000gn/T//ccg5ycur.ltrans4.ltrans.o
                                                  /var/folders/qz/8dvj07d52mjgthd1ds8wvf400000gn/T//ccg5ycur.ltrans2.ltrans.o
                                                  /var/folders/qz/8dvj07d52mjgthd1ds8wvf400000gn/T//ccg5ycur.ltrans1.ltrans.o
                                                  /var/folders/qz/8dvj07d52mjgthd1ds8wvf400000gn/T//ccg5ycur.ltrans0.ltrans.o
                                                  obj/main/SPRACINGF3/flight/altitudehold.o (symbol from plugin)
                                                  obj/main/SPRACINGF3/fc/msp_server_fc.o (symbol from plugin)
                                                  obj/main/SPRACINGF3/fc/boot.o (symbol from plugin)
FLASH_ClearFlag                                   obj/main/SPRACINGF3/stm32f30x_flash.o (symbol from plugin)
                                                  obj/main/SPRACINGF3/config/config_streamer.o (symbol from plugin)
FLASH_EraseAllPages                               obj/main/SPRACINGF3/stm32f30x_flash.o (symbol from plugin)
FLASH_ErasePage                                   obj/main/SPRACINGF3/stm32f30x_flash.o (symbol from plugin)
                                                  obj/main/SPRACINGF3/drivers/nrf2401.o (symbol from plugin)
                                                  obj/main/SPRACINGF3/config/config_streamer.o (symbol from plugin)
FLASH_ErasePage.part.4                            /var/folders/qz/8dvj07d52mjgthd1ds8wvf400000gn/T//ccg5ycur.ltrans11.ltrans.o
                                                  /var/folders/qz/8dvj07d52mjgthd1ds8wvf400000gn/T//ccg5ycur.ltrans7.ltrans.o
                                                  /var/folders/qz/8dvj07d52mjgthd1ds8wvf400000gn/T//ccg5ycur.ltrans0.ltrans.o
FLASH_GetFlagStatus                               obj/main/SPRACINGF3/stm32f30x_flash.o (symbol from plugin)
FLASH_GetStatus                                   /var/folders/qz/8dvj07d52mjgthd1ds8wvf400000gn/T//ccg5ycur.ltrans11.ltrans.o
                                                  obj/main/SPRACINGF3/stm32f30x_flash.o (symbol from plugin)
                                                  /var/folders/qz/8dvj07d52mjgthd1ds8wvf400000gn/T//ccg5ycur.ltrans9.ltrans.o
FLASH_HalfCycleAccessCmd                          obj/main/SPRACINGF3/stm32f30x_flash.o (symbol from plugin)
FLASH_IRQHandler                                  obj/main/SPRACINGF3/startup_stm32f30x_md_gcc.o
FLASH_ITConfig                                    obj/main/SPRACINGF3/stm32f30x_flash.o (symbol from plugin)
FLASH_Lock                                        obj/main/SPRACINGF3/stm32f30x_flash.o (symbol from plugin)
                                                  obj/main/SPRACINGF3/drivers/nrf2401.o (symbol from plugin)
                                                  obj/main/SPRACINGF3/config/config_streamer.o (symbol from plugin)
FLASH_OB_BOOTConfig                               obj/main/SPRACINGF3/stm32f30x_flash.o (symbol from plugin)
FLASH_OB_EnableWRP                                obj/main/SPRACINGF3/stm32f30x_flash.o (symbol from plugin)
FLASH_OB_Erase                                    obj/main/SPRACINGF3/stm32f30x_flash.o (symbol from plugin)
FLASH_OB_GetRDP                                   obj/main/SPRACINGF3/stm32f30x_flash.o (symbol from plugin)
FLASH_OB_GetUser                                  obj/main/SPRACINGF3/stm32f30x_flash.o (symbol from plugin)
FLASH_OB_GetWRP                                   obj/main/SPRACINGF3/stm32f30x_flash.o (symbol from plugin)
FLASH_OB_Launch                                   obj/main/SPRACINGF3/stm32f30x_flash.o (symbol from plugin)
FLASH_OB_Lock                                     obj/main/SPRACINGF3/stm32f30x_flash.o (symbol from plugin)
FLASH_OB_RDPConfig                                obj/main/SPRACINGF3/stm32f30x_flash.o (symbol from plugin)
FLASH_OB_SRAMParityConfig                         obj/main/SPRACINGF3/stm32f30x_flash.o (symbol from plugin)
FLASH_OB_Unlock                                   obj/main/SPRACINGF3/stm32f30x_flash.o (symbol from plugin)
FLASH_OB_UserConfig                               obj/main/SPRACINGF3/stm32f30x_flash.o (symbol from plugin)
FLASH_OB_VDDAConfig                               obj/main/SPRACINGF3/stm32f30x_flash.o (symbol from plugin)
FLASH_OB_WriteUser                                obj/main/SPRACINGF3/stm32f30x_flash.o (symbol from plugin)
FLASH_PrefetchBufferCmd                           obj/main/SPRACINGF3/stm32f30x_flash.o (symbol from plugin)
FLASH_ProgramHalfWord                             obj/main/SPRACINGF3/stm32f30x_flash.o (symbol from plugin)
FLASH_ProgramOptionByteData                       obj/main/SPRACINGF3/stm32f30x_flash.o (symbol from plugin)
FLASH_ProgramWord                                 /var/folders/qz/8dvj07d52mjgthd1ds8wvf400000gn/T//ccg5ycur.ltrans11.ltrans.o
                                                  obj/main/SPRACINGF3/stm32f30x_flash.o (symbol from plugin)
                                                  /var/folders/qz/8dvj07d52mjgthd1ds8wvf400000gn/T//ccg5ycur.ltrans7.ltrans.o
                                                  /var/folders/qz/8dvj07d52mjgthd1ds8wvf400000gn/T//ccg5ycur.ltrans0.ltrans.o
                                                  obj/main/SPRACINGF3/drivers/nrf2401.o (symbol from plugin)
                                                  obj/main/SPRACINGF3/config/config_streamer.o (symbol from plugin)
FLASH_SetLatency                                  obj/main/SPRACINGF3/stm32f30x_flash.o (symbol from plugin)
FLASH_Unlock                                      /var/folders/qz/8dvj07d52mjgthd1ds8wvf400000gn/T//ccg5ycur.ltrans11.ltrans.o
                                                  obj/main/SPRACINGF3/stm32f30x_flash.o (symbol from plugin)
                                                  /var/folders/qz/8dvj07d52mjgthd1ds8wvf400000gn/T//ccg5ycur.ltrans8.ltrans.o
                                                  /var/folders/qz/8dvj07d52mjgthd1ds8wvf400000gn/T//ccg5ycur.ltrans0.ltrans.o
                                                  obj/main/SPRACINGF3/drivers/nrf2401.o (symbol from plugin)
                                                  obj/main/SPRACINGF3/config/config_streamer.o (symbol from plugin)
FLASH_WaitForLastOperation                        obj/main/SPRACINGF3/stm32f30x_flash.o (symbol from plugin)
FLASH_WaitForLastOperation.constprop.30           /var/folders/qz/8dvj07d52mjgthd1ds8wvf400000gn/T//ccg5ycur.ltrans9.ltrans.o
                                                  /var/folders/qz/8dvj07d52mjgthd1ds8wvf400000gn/T//ccg5ycur.ltrans11.ltrans.o
                                                  /var/folders/qz/8dvj07d52mjgthd1ds8wvf400000gn/T//ccg5ycur.ltrans7.ltrans.o
                                                  /var/folders/qz/8dvj07d52mjgthd1ds8wvf400000gn/T//ccg5ycur.ltrans0.ltrans.o
FPU_IRQHandler                                    obj/main/SPRACINGF3/startup_stm32f30x_md_gcc.o
GPIO_DeInit                                       obj/main/SPRACINGF3/stm32f30x_gpio.o (symbol from plugin)
GPIO_Init                                         /var/folders/qz/8dvj07d52mjgthd1ds8wvf400000gn/T//ccg5ycur.ltrans11.ltrans.o
                                                  obj/main/SPRACINGF3/stm32f30x_gpio.o (symbol from plugin)
                                                  /var/folders/qz/8dvj07d52mjgthd1ds8wvf400000gn/T//ccg5ycur.ltrans9.ltrans.o
                                                  /var/folders/qz/8dvj07d52mjgthd1ds8wvf400000gn/T//ccg5ycur.ltrans3.ltrans.o
                                                  /var/folders/qz/8dvj07d52mjgthd1ds8wvf400000gn/T//ccg5ycur.ltrans0.ltrans.o
                                                  obj/main/SPRACINGF3/drivers/io.o (symbol from plugin)
                                                  obj/main/SPRACINGF3/drivers/light_ws2811strip_stm32f30x.o (symbol from plugin)
                                                  obj/main/SPRACINGF3/drivers/serial_uart_stm32f30x.o (symbol from plugin)
                                                  obj/main/SPRACINGF3/drivers/gpio_stm32f30x.o (symbol from plugin)
                                                  obj/main/SPRACINGF3/drivers/bus_spi.o (symbol from plugin)
                                                  obj/main/SPRACINGF3/drivers/bus_i2c_stm32f30x.o (symbol from plugin)
                                                  obj/main/SPRACINGF3/drivers/adc_stm32f30x.o (symbol from plugin)
GPIO_PinAFConfig                                  obj/main/SPRACINGF3/stm32f30x_gpio.o (symbol from plugin)
                                                  obj/main/SPRACINGF3/drivers/io.o (symbol from plugin)
                                                  obj/main/SPRACINGF3/drivers/light_ws2811strip_stm32f30x.o (symbol from plugin)
                                                  obj/main/SPRACINGF3/drivers/timer.o (symbol from plugin)
                                                  obj/main/SPRACINGF3/drivers/serial_uart_stm32f30x.o (symbol from plugin)
                                                  obj/main/SPRACINGF3/drivers/bus_spi.o (symbol from plugin)
                                                  obj/main/SPRACINGF3/drivers/bus_i2c_stm32f30x.o (symbol from plugin)
GPIO_PinLockConfig                                obj/main/SPRACINGF3/stm32f30x_gpio.o (symbol from plugin)
GPIO_ReadInputData                                obj/main/SPRACINGF3/stm32f30x_gpio.o (symbol from plugin)
GPIO_ReadInputDataBit                             obj/main/SPRACINGF3/stm32f30x_gpio.o (symbol from plugin)
                                                  obj/main/SPRACINGF3/drivers/compass_hmc5883l.o (symbol from plugin)
                                                  obj/main/SPRACINGF3/drivers/accgyro_mpu.o (symbol from plugin)
GPIO_ReadOutputData                               obj/main/SPRACINGF3/stm32f30x_gpio.o (symbol from plugin)
GPIO_ReadOutputDataBit                            obj/main/SPRACINGF3/stm32f30x_gpio.o (symbol from plugin)
GPIO_ResetBits                                    obj/main/SPRACINGF3/stm32f30x_gpio.o (symbol from plugin)
                                                  obj/main/SPRACINGF3/drivers/led.o (symbol from plugin)
                                                  obj/main/SPRACINGF3/drivers/nrf2401.o (symbol from plugin)
GPIO_SetBits                                      obj/main/SPRACINGF3/stm32f30x_gpio.o (symbol from plugin)
                                                  obj/main/SPRACINGF3/drivers/led.o (symbol from plugin)
                                                  obj/main/SPRACINGF3/drivers/nrf2401.o (symbol from plugin)
                                                  obj/main/SPRACINGF3/drivers/serial_uart_stm32f30x.o (symbol from plugin)
                                                  obj/main/SPRACINGF3/drivers/bus_spi.o (symbol from plugin)
GPIO_StructInit                                   obj/main/SPRACINGF3/stm32f30x_gpio.o (symbol from plugin)
                                                  obj/main/SPRACINGF3/drivers/light_ws2811strip_stm32f30x.o (symbol from plugin)
                                                  obj/main/SPRACINGF3/drivers/bus_i2c_stm32f30x.o (symbol from plugin)
                                                  obj/main/SPRACINGF3/drivers/adc_stm32f30x.o (symbol from plugin)
GPIO_Write                                        obj/main/SPRACINGF3/stm32f30x_gpio.o (symbol from plugin)
GPIO_WriteBit                                     obj/main/SPRACINGF3/stm32f30x_gpio.o (symbol from plugin)
HRTIM_ADCTriggerConfig                            obj/main/SPRACINGF3/stm32f30x_hrtim.o (symbol from plugin)
HRTIM_BurstDMAConfig                              obj/main/SPRACINGF3/stm32f30x_hrtim.o (symbol from plugin)
HRTIM_BurstModeConfig                             obj/main/SPRACINGF3/stm32f30x_hrtim.o (symbol from plugin)
HRTIM_BurstModeCtl                                obj/main/SPRACINGF3/stm32f30x_hrtim.o (symbol from plugin)
HRTIM_ChopperModeConfig                           obj/main/SPRACINGF3/stm32f30x_hrtim.o (symbol from plugin)
HRTIM_ClearCommonFlag                             obj/main/SPRACINGF3/stm32f30x_hrtim.o (symbol from plugin)
HRTIM_ClearCommonITPendingBit                     obj/main/SPRACINGF3/stm32f30x_hrtim.o (symbol from plugin)
HRTIM_ClearFlag                                   obj/main/SPRACINGF3/stm32f30x_hrtim.o (symbol from plugin)
HRTIM_ClearITPendingBit                           obj/main/SPRACINGF3/stm32f30x_hrtim.o (symbol from plugin)
HRTIM_DLLCalibrationStart                         obj/main/SPRACINGF3/stm32f30x_hrtim.o (symbol from plugin)
HRTIM_DMACmd                                      obj/main/SPRACINGF3/stm32f30x_hrtim.o (symbol from plugin)
HRTIM_DeInit                                      obj/main/SPRACINGF3/stm32f30x_hrtim.o (symbol from plugin)
HRTIM_DeadTimeConfig                              obj/main/SPRACINGF3/stm32f30x_hrtim.o (symbol from plugin)
HRTIM_EventConfig                                 obj/main/SPRACINGF3/stm32f30x_hrtim.o (symbol from plugin)
HRTIM_EventPrescalerConfig                        obj/main/SPRACINGF3/stm32f30x_hrtim.o (symbol from plugin)
HRTIM_FaultConfig                                 obj/main/SPRACINGF3/stm32f30x_hrtim.o (symbol from plugin)
HRTIM_FaultModeCtl                                obj/main/SPRACINGF3/stm32f30x_hrtim.o (symbol from plugin)
HRTIM_FaultPrescalerConfig                        obj/main/SPRACINGF3/stm32f30x_hrtim.o (symbol from plugin)
HRTIM_GetBurstStatus                              obj/main/SPRACINGF3/stm32f30x_hrtim.o (symbol from plugin)
HRTIM_GetCapturedValue                            obj/main/SPRACINGF3/stm32f30x_hrtim.o (symbol from plugin)
HRTIM_GetCommonFlagStatus                         obj/main/SPRACINGF3/stm32f30x_hrtim.o (symbol from plugin)
HRTIM_GetCommonITStatus                           obj/main/SPRACINGF3/stm32f30x_hrtim.o (symbol from plugin)
HRTIM_GetCurrentPushPullStatus                    obj/main/SPRACINGF3/stm32f30x_hrtim.o (symbol from plugin)
HRTIM_GetDelayedProtectionStatus                  obj/main/SPRACINGF3/stm32f30x_hrtim.o (symbol from plugin)
HRTIM_GetFlagStatus                               obj/main/SPRACINGF3/stm32f30x_hrtim.o (symbol from plugin)
HRTIM_GetITStatus                                 obj/main/SPRACINGF3/stm32f30x_hrtim.o (symbol from plugin)
HRTIM_GetIdlePushPullStatus                       obj/main/SPRACINGF3/stm32f30x_hrtim.o (symbol from plugin)
HRTIM_ITCommonConfig                              obj/main/SPRACINGF3/stm32f30x_hrtim.o (symbol from plugin)
HRTIM_ITConfig                                    obj/main/SPRACINGF3/stm32f30x_hrtim.o (symbol from plugin)
HRTIM_MasterSetCompare                            obj/main/SPRACINGF3/stm32f30x_hrtim.o (symbol from plugin)
HRTIM_SimpleBaseStart                             obj/main/SPRACINGF3/stm32f30x_hrtim.o (symbol from plugin)
HRTIM_SimpleBaseStop                              obj/main/SPRACINGF3/stm32f30x_hrtim.o (symbol from plugin)
HRTIM_SimpleBase_Init                             obj/main/SPRACINGF3/stm32f30x_hrtim.o (symbol from plugin)
HRTIM_SimpleCaptureChannelConfig                  obj/main/SPRACINGF3/stm32f30x_hrtim.o (symbol from plugin)
HRTIM_SimpleCaptureStart                          obj/main/SPRACINGF3/stm32f30x_hrtim.o (symbol from plugin)
HRTIM_SimpleCaptureStop                           obj/main/SPRACINGF3/stm32f30x_hrtim.o (symbol from plugin)
HRTIM_SimpleCapture_Init                          obj/main/SPRACINGF3/stm32f30x_hrtim.o (symbol from plugin)
HRTIM_SimpleOCChannelConfig                       obj/main/SPRACINGF3/stm32f30x_hrtim.o (symbol from plugin)
HRTIM_SimpleOCStart                               obj/main/SPRACINGF3/stm32f30x_hrtim.o (symbol from plugin)
HRTIM_SimpleOCStop                                obj/main/SPRACINGF3/stm32f30x_hrtim.o (symbol from plugin)
HRTIM_SimpleOC_Init                               obj/main/SPRACINGF3/stm32f30x_hrtim.o (symbol from plugin)
HRTIM_SimpleOnePulseChannelConfig                 obj/main/SPRACINGF3/stm32f30x_hrtim.o (symbol from plugin)
HRTIM_SimpleOnePulseStart                         obj/main/SPRACINGF3/stm32f30x_hrtim.o (symbol from plugin)
HRTIM_SimpleOnePulseStop                          obj/main/SPRACINGF3/stm32f30x_hrtim.o (symbol from plugin)
HRTIM_SimpleOnePulse_Init                         obj/main/SPRACINGF3/stm32f30x_hrtim.o (symbol from plugin)
HRTIM_SimplePWMChannelConfig                      obj/main/SPRACINGF3/stm32f30x_hrtim.o (symbol from plugin)
HRTIM_SimplePWMStart                              obj/main/SPRACINGF3/stm32f30x_hrtim.o (symbol from plugin)
HRTIM_SimplePWMStop                               obj/main/SPRACINGF3/stm32f30x_hrtim.o (symbol from plugin)
HRTIM_SimplePWM_Init                              obj/main/SPRACINGF3/stm32f30x_hrtim.o (symbol from plugin)
HRTIM_SlaveSetCompare                             obj/main/SPRACINGF3/stm32f30x_hrtim.o (symbol from plugin)
HRTIM_SoftwareCapture                             obj/main/SPRACINGF3/stm32f30x_hrtim.o (symbol from plugin)
HRTIM_SoftwareReset                               obj/main/SPRACINGF3/stm32f30x_hrtim.o (symbol from plugin)
HRTIM_SoftwareUpdate                              obj/main/SPRACINGF3/stm32f30x_hrtim.o (symbol from plugin)
HRTIM_SynchronizationConfig                       obj/main/SPRACINGF3/stm32f30x_hrtim.o (symbol from plugin)
HRTIM_TimerEventFilteringConfig                   obj/main/SPRACINGF3/stm32f30x_hrtim.o (symbol from plugin)
HRTIM_WaveformCaptureConfig                       obj/main/SPRACINGF3/stm32f30x_hrtim.o (symbol from plugin)
HRTIM_WaveformCompareConfig                       obj/main/SPRACINGF3/stm32f30x_hrtim.o (symbol from plugin)
HRTIM_WaveformCounterStart                        obj/main/SPRACINGF3/stm32f30x_hrtim.o (symbol from plugin)
HRTIM_WaveformCounterStop                         obj/main/SPRACINGF3/stm32f30x_hrtim.o (symbol from plugin)
HRTIM_WaveformGetOutputLevel                      obj/main/SPRACINGF3/stm32f30x_hrtim.o (symbol from plugin)
HRTIM_WaveformGetOutputState                      obj/main/SPRACINGF3/stm32f30x_hrtim.o (symbol from plugin)
HRTIM_WaveformOutputConfig                        obj/main/SPRACINGF3/stm32f30x_hrtim.o (symbol from plugin)
HRTIM_WaveformOutputStart                         obj/main/SPRACINGF3/stm32f30x_hrtim.o (symbol from plugin)
HRTIM_WaveformOutputStop                          obj/main/SPRACINGF3/stm32f30x_hrtim.o (symbol from plugin)
HRTIM_WaveformSetOutputLevel                      obj/main/SPRACINGF3/stm32f30x_hrtim.o (symbol from plugin)
HRTIM_WaveformTimerConfig                         obj/main/SPRACINGF3/stm32f30x_hrtim.o (symbol from plugin)
HRTIM_Waveform_Init                               obj/main/SPRACINGF3/stm32f30x_hrtim.o (symbol from plugin)
HardFault_Handler                                 /var/folders/qz/8dvj07d52mjgthd1ds8wvf400000gn/T//ccg5ycur.ltrans18.ltrans.o
                                                  obj/main/SPRACINGF3/fc/boot.o (symbol from plugin)
                                                  obj/main/SPRACINGF3/startup_stm32f30x_md_gcc.o
I2C1_ER_IRQHandler                                obj/main/SPRACINGF3/startup_stm32f30x_md_gcc.o
I2C1_EV_IRQHandler                                obj/main/SPRACINGF3/startup_stm32f30x_md_gcc.o
I2C2_ER_IRQHandler                                obj/main/SPRACINGF3/startup_stm32f30x_md_gcc.o
I2C2_EV_IRQHandler                                obj/main/SPRACINGF3/startup_stm32f30x_md_gcc.o
I2C_10BitAddressHeaderCmd                         obj/main/SPRACINGF3/stm32f30x_i2c.o (symbol from plugin)
I2C_10BitAddressingModeCmd                        obj/main/SPRACINGF3/stm32f30x_i2c.o (symbol from plugin)
I2C_AcknowledgeConfig                             obj/main/SPRACINGF3/stm32f30x_i2c.o (symbol from plugin)
I2C_AutoEndCmd                                    obj/main/SPRACINGF3/stm32f30x_i2c.o (symbol from plugin)
I2C_CalculatePEC                                  obj/main/SPRACINGF3/stm32f30x_i2c.o (symbol from plugin)
I2C_ClearFlag                                     obj/main/SPRACINGF3/stm32f30x_i2c.o (symbol from plugin)
                                                  obj/main/SPRACINGF3/drivers/bus_i2c_stm32f30x.o (symbol from plugin)
I2C_ClearITPendingBit                             obj/main/SPRACINGF3/stm32f30x_i2c.o (symbol from plugin)
I2C_ClockTimeoutCmd                               obj/main/SPRACINGF3/stm32f30x_i2c.o (symbol from plugin)
I2C_Cmd                                           obj/main/SPRACINGF3/stm32f30x_i2c.o (symbol from plugin)
                                                  obj/main/SPRACINGF3/drivers/bus_i2c_stm32f30x.o (symbol from plugin)
I2C_DMACmd                                        obj/main/SPRACINGF3/stm32f30x_i2c.o (symbol from plugin)
I2C_DeInit                                        obj/main/SPRACINGF3/stm32f30x_i2c.o (symbol from plugin)
I2C_DualAddressCmd                                obj/main/SPRACINGF3/stm32f30x_i2c.o (symbol from plugin)
I2C_ExtendedClockTimeoutCmd                       obj/main/SPRACINGF3/stm32f30x_i2c.o (symbol from plugin)
I2C_GeneralCallCmd                                obj/main/SPRACINGF3/stm32f30x_i2c.o (symbol from plugin)
I2C_GenerateSTART                                 obj/main/SPRACINGF3/stm32f30x_i2c.o (symbol from plugin)
I2C_GenerateSTOP                                  obj/main/SPRACINGF3/stm32f30x_i2c.o (symbol from plugin)
I2C_GetAddressMatched                             obj/main/SPRACINGF3/stm32f30x_i2c.o (symbol from plugin)
I2C_GetFlagStatus                                 obj/main/SPRACINGF3/stm32f30x_i2c.o (symbol from plugin)
                                                  obj/main/SPRACINGF3/drivers/bus_i2c_stm32f30x.o (symbol from plugin)
I2C_GetITStatus                                   obj/main/SPRACINGF3/stm32f30x_i2c.o (symbol from plugin)
I2C_GetPEC                                        obj/main/SPRACINGF3/stm32f30x_i2c.o (symbol from plugin)
I2C_GetTransferDirection                          obj/main/SPRACINGF3/stm32f30x_i2c.o (symbol from plugin)
I2C_ITConfig                                      obj/main/SPRACINGF3/stm32f30x_i2c.o (symbol from plugin)
I2C_IdleClockTimeoutCmd                           obj/main/SPRACINGF3/stm32f30x_i2c.o (symbol from plugin)
I2C_Init                                          /var/folders/qz/8dvj07d52mjgthd1ds8wvf400000gn/T//ccg5ycur.ltrans9.ltrans.o
                                                  obj/main/SPRACINGF3/stm32f30x_i2c.o (symbol from plugin)
                                                  /var/folders/qz/8dvj07d52mjgthd1ds8wvf400000gn/T//ccg5ycur.ltrans0.ltrans.o
                                                  obj/main/SPRACINGF3/drivers/bus_i2c_stm32f30x.o (symbol from plugin)
I2C_MasterRequestConfig                           obj/main/SPRACINGF3/stm32f30x_i2c.o (symbol from plugin)
I2C_NumberOfBytesConfig                           obj/main/SPRACINGF3/stm32f30x_i2c.o (symbol from plugin)
I2C_OwnAddress2Config                             obj/main/SPRACINGF3/stm32f30x_i2c.o (symbol from plugin)
I2C_PECRequestCmd                                 obj/main/SPRACINGF3/stm32f30x_i2c.o (symbol from plugin)
I2C_ReadRegister                                  obj/main/SPRACINGF3/stm32f30x_i2c.o (symbol from plugin)
I2C_ReceiveData                                   obj/main/SPRACINGF3/stm32f30x_i2c.o (symbol from plugin)
                                                  obj/main/SPRACINGF3/drivers/bus_i2c_stm32f30x.o (symbol from plugin)
I2C_ReloadCmd                                     obj/main/SPRACINGF3/stm32f30x_i2c.o (symbol from plugin)
I2C_SMBusAlertCmd                                 obj/main/SPRACINGF3/stm32f30x_i2c.o (symbol from plugin)
I2C_SendData                                      obj/main/SPRACINGF3/stm32f30x_i2c.o (symbol from plugin)
                                                  obj/main/SPRACINGF3/drivers/bus_i2c_stm32f30x.o (symbol from plugin)
I2C_SlaveAddressConfig                            obj/main/SPRACINGF3/stm32f30x_i2c.o (symbol from plugin)
I2C_SlaveByteControlCmd                           obj/main/SPRACINGF3/stm32f30x_i2c.o (symbol from plugin)
I2C_SoftwareResetCmd                              obj/main/SPRACINGF3/stm32f30x_i2c.o (symbol from plugin)
I2C_StopModeCmd                                   obj/main/SPRACINGF3/stm32f30x_i2c.o (symbol from plugin)
I2C_StretchClockCmd                               obj/main/SPRACINGF3/stm32f30x_i2c.o (symbol from plugin)
I2C_StructInit                                    obj/main/SPRACINGF3/stm32f30x_i2c.o (symbol from plugin)
                                                  obj/main/SPRACINGF3/drivers/bus_i2c_stm32f30x.o (symbol from plugin)
I2C_TimeoutAConfig                                obj/main/SPRACINGF3/stm32f30x_i2c.o (symbol from plugin)
I2C_TimeoutBConfig                                obj/main/SPRACINGF3/stm32f30x_i2c.o (symbol from plugin)
I2C_TransferHandling                              obj/main/SPRACINGF3/stm32f30x_i2c.o (symbol from plugin)
                                                  obj/main/SPRACINGF3/drivers/bus_i2c_stm32f30x.o (symbol from plugin)
I2Cx.lto_priv.120                                 /var/folders/qz/8dvj07d52mjgthd1ds8wvf400000gn/T//ccg5ycur.ltrans1.ltrans.o
                                                  /var/folders/qz/8dvj07d52mjgthd1ds8wvf400000gn/T//ccg5ycur.ltrans16.ltrans.o
                                                  /var/folders/qz/8dvj07d52mjgthd1ds8wvf400000gn/T//ccg5ycur.ltrans3.ltrans.o
                                                  /var/folders/qz/8dvj07d52mjgthd1ds8wvf400000gn/T//ccg5ycur.ltrans0.ltrans.o
I2S_Cmd                                           obj/main/SPRACINGF3/stm32f30x_spi.o (symbol from plugin)
I2S_FullDuplexConfig                              obj/main/SPRACINGF3/stm32f30x_spi.o (symbol from plugin)
I2S_Init                                          obj/main/SPRACINGF3/stm32f30x_spi.o (symbol from plugin)
I2S_StructInit                                    obj/main/SPRACINGF3/stm32f30x_spi.o (symbol from plugin)
IOConfigGPIO                                      obj/main/SPRACINGF3/drivers/io.o (symbol from plugin)
IOConfigGPIOAF                                    obj/main/SPRACINGF3/drivers/io.o (symbol from plugin)
IOGetByTag                                        obj/main/SPRACINGF3/drivers/io.o (symbol from plugin)
                                                  obj/main/SPRACINGF3/drivers/compass_hmc5883l.o (symbol from plugin)
                                                  obj/main/SPRACINGF3/drivers/accgyro_mpu.o (symbol from plugin)
IOGetOwner                                        obj/main/SPRACINGF3/drivers/io.o (symbol from plugin)
IOGetResources                                    obj/main/SPRACINGF3/drivers/io.o (symbol from plugin)
IOHi                                              obj/main/SPRACINGF3/drivers/io.o (symbol from plugin)
IOInit                                            obj/main/SPRACINGF3/drivers/io.o (symbol from plugin)
IOInitGlobal                                      obj/main/SPRACINGF3/drivers/io.o (symbol from plugin)
                                                  obj/main/SPRACINGF3/fc/boot.o (symbol from plugin)
IOLo                                              obj/main/SPRACINGF3/drivers/io.o (symbol from plugin)
IORead                                            obj/main/SPRACINGF3/drivers/io.o (symbol from plugin)
IORelease                                         obj/main/SPRACINGF3/drivers/io.o (symbol from plugin)
IOToggle                                          obj/main/SPRACINGF3/drivers/io.o (symbol from plugin)
IOWrite                                           obj/main/SPRACINGF3/drivers/io.o (symbol from plugin)
IO_EXTI_Line                                      obj/main/SPRACINGF3/drivers/io.o (symbol from plugin)
                                                  obj/main/SPRACINGF3/drivers/exti.o (symbol from plugin)
IO_EXTI_PinSource                                 obj/main/SPRACINGF3/drivers/io.o (symbol from plugin)
                                                  obj/main/SPRACINGF3/drivers/exti.o (symbol from plugin)
IO_EXTI_PortSourceGPIO                            obj/main/SPRACINGF3/drivers/io.o (symbol from plugin)
                                                  obj/main/SPRACINGF3/drivers/exti.o (symbol from plugin)
IO_GPIO                                           obj/main/SPRACINGF3/drivers/io.o (symbol from plugin)
IO_GPIOPinIdx                                     obj/main/SPRACINGF3/drivers/io.o (symbol from plugin)
                                                  obj/main/SPRACINGF3/drivers/exti.o (symbol from plugin)
IO_GPIOPortIdx                                    obj/main/SPRACINGF3/drivers/io.o (symbol from plugin)
IO_GPIO_PinSource                                 obj/main/SPRACINGF3/drivers/io.o (symbol from plugin)
IO_GPIO_PortSource                                obj/main/SPRACINGF3/drivers/io.o (symbol from plugin)
IO_Pin                                            obj/main/SPRACINGF3/drivers/io.o (symbol from plugin)
IO_Rec                                            obj/main/SPRACINGF3/drivers/io.o (symbol from plugin)
ITermAngle.lto_priv.193                           /var/folders/qz/8dvj07d52mjgthd1ds8wvf400000gn/T//ccg5ycur.ltrans6.ltrans.o
                                                  /var/folders/qz/8dvj07d52mjgthd1ds8wvf400000gn/T//ccg5ycur.ltrans2.ltrans.o
ITermLimit                                        obj/main/SPRACINGF3/flight/pid.o (symbol from plugin)
                                                  obj/main/SPRACINGF3/flight/pid_mw23.o (symbol from plugin)
                                                  obj/main/SPRACINGF3/flight/pid_mwrewrite.o (symbol from plugin)
ITermLimitf                                       obj/main/SPRACINGF3/flight/pid.o (symbol from plugin)
                                                  obj/main/SPRACINGF3/flight/pid_luxfloat.o (symbol from plugin)
IWDG_Enable                                       obj/main/SPRACINGF3/stm32f30x_iwdg.o (symbol from plugin)
IWDG_GetFlagStatus                                obj/main/SPRACINGF3/stm32f30x_iwdg.o (symbol from plugin)
IWDG_ReloadCounter                                obj/main/SPRACINGF3/stm32f30x_iwdg.o (symbol from plugin)
IWDG_SetPrescaler                                 obj/main/SPRACINGF3/stm32f30x_iwdg.o (symbol from plugin)
IWDG_SetReload                                    obj/main/SPRACINGF3/stm32f30x_iwdg.o (symbol from plugin)
IWDG_SetWindowValue                               obj/main/SPRACINGF3/stm32f30x_iwdg.o (symbol from plugin)
IWDG_WriteAccessCmd                               obj/main/SPRACINGF3/stm32f30x_iwdg.o (symbol from plugin)
InflightcalibratingA                              /var/folders/qz/8dvj07d52mjgthd1ds8wvf400000gn/T//ccg5ycur.ltrans2.ltrans.o
                                                  obj/main/SPRACINGF3/fc/cleanflight_fc.o (symbol from plugin)
                                                  /var/folders/qz/8dvj07d52mjgthd1ds8wvf400000gn/T//ccg5ycur.ltrans12.ltrans.o
                                                  obj/main/SPRACINGF3/sensors/acceleration.o (symbol from plugin)
LEDBuf                                            obj/main/SPRACINGF3/drivers/led.o (symbol from plugin)
LEDCtrl                                           obj/main/SPRACINGF3/drivers/led.o (symbol from plugin)
LEDReflash                                        obj/main/SPRACINGF3/drivers/led.o (symbol from plugin)
LED_init                                          obj/main/SPRACINGF3/drivers/led.o (symbol from plugin)
                                                  obj/main/SPRACINGF3/fc/boot.o (symbol from plugin)
LED_loop                                          /var/folders/qz/8dvj07d52mjgthd1ds8wvf400000gn/T//ccg5ycur.ltrans11.ltrans.o
                                                  obj/main/SPRACINGF3/drivers/led.o (symbol from plugin)
                                                  /var/folders/qz/8dvj07d52mjgthd1ds8wvf400000gn/T//ccg5ycur.ltrans7.ltrans.o
                                                  obj/main/SPRACINGF3/fc/fc_tasks.o (symbol from plugin)
MemManage_Handler                                 obj/main/SPRACINGF3/startup_stm32f30x_md_gcc.o
NMI_Handler                                       obj/main/SPRACINGF3/startup_stm32f30x_md_gcc.o
NRF24L01_Check                                    obj/main/SPRACINGF3/drivers/nrf2401.o (symbol from plugin)
NRF24L01_init                                     obj/main/SPRACINGF3/drivers/nrf2401.o (symbol from plugin)
                                                  obj/main/SPRACINGF3/fc/boot.o (symbol from plugin)
NRF_Read_Buf.lto_priv.198                         /var/folders/qz/8dvj07d52mjgthd1ds8wvf400000gn/T//ccg5ycur.ltrans11.ltrans.o
                                                  /var/folders/qz/8dvj07d52mjgthd1ds8wvf400000gn/T//ccg5ycur.ltrans2.ltrans.o
                                                  /var/folders/qz/8dvj07d52mjgthd1ds8wvf400000gn/T//ccg5ycur.ltrans0.ltrans.o
NRF_Write_Reg.lto_priv.111                        /var/folders/qz/8dvj07d52mjgthd1ds8wvf400000gn/T//ccg5ycur.ltrans20.ltrans.o
                                                  /var/folders/qz/8dvj07d52mjgthd1ds8wvf400000gn/T//ccg5ycur.ltrans11.ltrans.o
                                                  /var/folders/qz/8dvj07d52mjgthd1ds8wvf400000gn/T//ccg5ycur.ltrans2.ltrans.o
                                                  /var/folders/qz/8dvj07d52mjgthd1ds8wvf400000gn/T//ccg5ycur.ltrans0.ltrans.o
NVIC_Init                                         obj/main/SPRACINGF3/stm32f30x_misc.o (symbol from plugin)
                                                  obj/main/SPRACINGF3/drivers/dma.o (symbol from plugin)
                                                  obj/main/SPRACINGF3/drivers/exti.o (symbol from plugin)
                                                  obj/main/SPRACINGF3/drivers/timer.o (symbol from plugin)
                                                  obj/main/SPRACINGF3/drivers/serial_uart_stm32f30x.o (symbol from plugin)
NVIC_Init.part.0.constprop.73                     /var/folders/qz/8dvj07d52mjgthd1ds8wvf400000gn/T//ccg5ycur.ltrans17.ltrans.o
                                                  /var/folders/qz/8dvj07d52mjgthd1ds8wvf400000gn/T//ccg5ycur.ltrans10.ltrans.o
                                                  /var/folders/qz/8dvj07d52mjgthd1ds8wvf400000gn/T//ccg5ycur.ltrans9.ltrans.o
                                                  /var/folders/qz/8dvj07d52mjgthd1ds8wvf400000gn/T//ccg5ycur.ltrans3.ltrans.o
NVIC_PriorityGroupConfig                          obj/main/SPRACINGF3/stm32f30x_misc.o (symbol from plugin)
                                                  obj/main/SPRACINGF3/drivers/system.o (symbol from plugin)
NVIC_SetVectorTable                               obj/main/SPRACINGF3/stm32f30x_misc.o (symbol from plugin)
NVIC_SystemLPConfig                               obj/main/SPRACINGF3/stm32f30x_misc.o (symbol from plugin)
OPAMP_Cmd                                         obj/main/SPRACINGF3/stm32f30x_opamp.o (symbol from plugin)
OPAMP_DeInit                                      obj/main/SPRACINGF3/stm32f30x_opamp.o (symbol from plugin)
OPAMP_GetOutputLevel                              obj/main/SPRACINGF3/stm32f30x_opamp.o (symbol from plugin)
OPAMP_Init                                        obj/main/SPRACINGF3/stm32f30x_opamp.o (symbol from plugin)
OPAMP_LockConfig                                  obj/main/SPRACINGF3/stm32f30x_opamp.o (symbol from plugin)
OPAMP_OffsetTrimConfig                            obj/main/SPRACINGF3/stm32f30x_opamp.o (symbol from plugin)
OPAMP_OffsetTrimModeSelect                        obj/main/SPRACINGF3/stm32f30x_opamp.o (symbol from plugin)
OPAMP_PGAConfig                                   obj/main/SPRACINGF3/stm32f30x_opamp.o (symbol from plugin)
OPAMP_StartCalibration                            obj/main/SPRACINGF3/stm32f30x_opamp.o (symbol from plugin)
OPAMP_StructInit                                  obj/main/SPRACINGF3/stm32f30x_opamp.o (symbol from plugin)
OPAMP_TimerControlledMuxCmd                       obj/main/SPRACINGF3/stm32f30x_opamp.o (symbol from plugin)
OPAMP_TimerControlledMuxConfig                    obj/main/SPRACINGF3/stm32f30x_opamp.o (symbol from plugin)
OPAMP_VrefConfig                                  obj/main/SPRACINGF3/stm32f30x_opamp.o (symbol from plugin)
OPAMP_VrefConnectADCCmd                           obj/main/SPRACINGF3/stm32f30x_opamp.o (symbol from plugin)
OPAMP_VrefConnectNonInvertingInput                obj/main/SPRACINGF3/stm32f30x_opamp.o (symbol from plugin)
PIDweight                                         /var/folders/qz/8dvj07d52mjgthd1ds8wvf400000gn/T//ccg5ycur.ltrans6.ltrans.o
                                                  obj/main/SPRACINGF3/flight/pid.o (symbol from plugin)
                                                  /var/folders/qz/8dvj07d52mjgthd1ds8wvf400000gn/T//ccg5ycur.ltrans4.ltrans.o
                                                  obj/main/SPRACINGF3/flight/pid_mwrewrite.o (symbol from plugin)
                                                  obj/main/SPRACINGF3/flight/pid_luxfloat.o (symbol from plugin)
                                                  obj/main/SPRACINGF3/fc/cleanflight_fc.o (symbol from plugin)
PVD_IRQHandler                                    obj/main/SPRACINGF3/startup_stm32f30x_md_gcc.o
PWR_BackupAccessCmd                               obj/main/SPRACINGF3/stm32f30x_pwr.o (symbol from plugin)
PWR_ClearFlag                                     obj/main/SPRACINGF3/stm32f30x_pwr.o (symbol from plugin)
PWR_DeInit                                        obj/main/SPRACINGF3/stm32f30x_pwr.o (symbol from plugin)
PWR_EnterSTANDBYMode                              obj/main/SPRACINGF3/stm32f30x_pwr.o (symbol from plugin)
PWR_EnterSTOPMode                                 obj/main/SPRACINGF3/stm32f30x_pwr.o (symbol from plugin)
PWR_EnterSleepMode                                obj/main/SPRACINGF3/stm32f30x_pwr.o (symbol from plugin)
PWR_GetFlagStatus                                 obj/main/SPRACINGF3/stm32f30x_pwr.o (symbol from plugin)
PWR_PVDCmd                                        obj/main/SPRACINGF3/stm32f30x_pwr.o (symbol from plugin)
PWR_PVDLevelConfig                                obj/main/SPRACINGF3/stm32f30x_pwr.o (symbol from plugin)
PWR_WakeUpPinCmd                                  obj/main/SPRACINGF3/stm32f30x_pwr.o (symbol from plugin)
PendSV_Handler                                    obj/main/SPRACINGF3/startup_stm32f30x_md_gcc.o
RCC_ADCCLKConfig                                  obj/main/SPRACINGF3/stm32f30x_rcc.o (symbol from plugin)
                                                  obj/main/SPRACINGF3/drivers/adc_stm32f30x.o (symbol from plugin)
RCC_AHBPeriphClockCmd                             obj/main/SPRACINGF3/stm32f30x_rcc.o (symbol from plugin)
                                                  obj/main/SPRACINGF3/drivers/led.o (symbol from plugin)
                                                  obj/main/SPRACINGF3/drivers/nrf2401.o (symbol from plugin)
                                                  obj/main/SPRACINGF3/drivers/dma.o (symbol from plugin)
                                                  obj/main/SPRACINGF3/drivers/rcc.o (symbol from plugin)
                                                  obj/main/SPRACINGF3/drivers/light_ws2811strip_stm32f30x.o (symbol from plugin)
                                                  obj/main/SPRACINGF3/drivers/compass_hmc5883l.o (symbol from plugin)
                                                  obj/main/SPRACINGF3/drivers/accgyro_mpu.o (symbol from plugin)
                                                  obj/main/SPRACINGF3/drivers/timer.o (symbol from plugin)
                                                  obj/main/SPRACINGF3/drivers/system_stm32f30x.o (symbol from plugin)
                                                  obj/main/SPRACINGF3/drivers/bus_spi.o (symbol from plugin)
                                                  obj/main/SPRACINGF3/drivers/bus_i2c_stm32f30x.o (symbol from plugin)
                                                  obj/main/SPRACINGF3/drivers/adc_stm32f30x.o (symbol from plugin)
RCC_AHBPeriphResetCmd                             obj/main/SPRACINGF3/stm32f30x_rcc.o (symbol from plugin)
                                                  obj/main/SPRACINGF3/stm32f30x_adc.o (symbol from plugin)
                                                  obj/main/SPRACINGF3/stm32f30x_gpio.o (symbol from plugin)
RCC_APB1PeriphClockCmd                            obj/main/SPRACINGF3/stm32f30x_rcc.o (symbol from plugin)
                                                  obj/main/SPRACINGF3/drivers/rcc.o (symbol from plugin)
                                                  obj/main/SPRACINGF3/drivers/timer.o (symbol from plugin)
                                                  obj/main/SPRACINGF3/drivers/serial_uart_stm32f30x.o (symbol from plugin)
                                                  obj/main/SPRACINGF3/drivers/bus_spi.o (symbol from plugin)
                                                  obj/main/SPRACINGF3/drivers/bus_i2c_stm32f30x.o (symbol from plugin)
RCC_APB1PeriphResetCmd                            obj/main/SPRACINGF3/stm32f30x_rcc.o (symbol from plugin)
                                                  obj/main/SPRACINGF3/stm32f30x_wwdg.o (symbol from plugin)
                                                  obj/main/SPRACINGF3/stm32f30x_usart.o (symbol from plugin)
                                                  obj/main/SPRACINGF3/stm32f30x_tim.o (symbol from plugin)
                                                  obj/main/SPRACINGF3/stm32f30x_spi.o (symbol from plugin)
                                                  obj/main/SPRACINGF3/stm32f30x_pwr.o (symbol from plugin)
                                                  obj/main/SPRACINGF3/stm32f30x_i2c.o (symbol from plugin)
                                                  obj/main/SPRACINGF3/stm32f30x_dac.o (symbol from plugin)
                                                  obj/main/SPRACINGF3/drivers/bus_spi.o (symbol from plugin)
RCC_APB2PeriphClockCmd                            obj/main/SPRACINGF3/stm32f30x_rcc.o (symbol from plugin)
                                                  obj/main/SPRACINGF3/drivers/rcc.o (symbol from plugin)
                                                  obj/main/SPRACINGF3/drivers/exti.o (symbol from plugin)
                                                  obj/main/SPRACINGF3/drivers/light_ws2811strip_stm32f30x.o (symbol from plugin)
                                                  obj/main/SPRACINGF3/drivers/timer.o (symbol from plugin)
                                                  obj/main/SPRACINGF3/drivers/serial_uart_stm32f30x.o (symbol from plugin)
RCC_APB2PeriphResetCmd                            obj/main/SPRACINGF3/stm32f30x_rcc.o (symbol from plugin)
                                                  obj/main/SPRACINGF3/stm32f30x_usart.o (symbol from plugin)
                                                  obj/main/SPRACINGF3/stm32f30x_tim.o (symbol from plugin)
                                                  obj/main/SPRACINGF3/stm32f30x_spi.o (symbol from plugin)
                                                  obj/main/SPRACINGF3/stm32f30x_hrtim.o (symbol from plugin)
RCC_AdjustHSICalibrationValue                     obj/main/SPRACINGF3/stm32f30x_rcc.o (symbol from plugin)
RCC_BackupResetCmd                                obj/main/SPRACINGF3/stm32f30x_rcc.o (symbol from plugin)
RCC_ClearFlag                                     obj/main/SPRACINGF3/stm32f30x_rcc.o (symbol from plugin)
                                                  obj/main/SPRACINGF3/drivers/system.o (symbol from plugin)
RCC_ClearITPendingBit                             obj/main/SPRACINGF3/stm32f30x_rcc.o (symbol from plugin)
RCC_ClockCmd                                      obj/main/SPRACINGF3/drivers/rcc.o (symbol from plugin)
                                                  obj/main/SPRACINGF3/drivers/io.o (symbol from plugin)
RCC_ClockSecuritySystemCmd                        obj/main/SPRACINGF3/stm32f30x_rcc.o (symbol from plugin)
RCC_DeInit                                        obj/main/SPRACINGF3/stm32f30x_rcc.o (symbol from plugin)
RCC_GetClocksFreq                                 /var/folders/qz/8dvj07d52mjgthd1ds8wvf400000gn/T//ccg5ycur.ltrans11.ltrans.o
                                                  obj/main/SPRACINGF3/stm32f30x_rcc.o (symbol from plugin)
                                                  /var/folders/qz/8dvj07d52mjgthd1ds8wvf400000gn/T//ccg5ycur.ltrans3.ltrans.o
                                                  /var/folders/qz/8dvj07d52mjgthd1ds8wvf400000gn/T//ccg5ycur.ltrans0.ltrans.o
                                                  obj/main/SPRACINGF3/stm32f30x_usart.o (symbol from plugin)
                                                  obj/main/SPRACINGF3/stm32f30x_spi.o (symbol from plugin)
                                                  obj/main/SPRACINGF3/drivers/system.o (symbol from plugin)
RCC_GetFlagStatus                                 obj/main/SPRACINGF3/stm32f30x_rcc.o (symbol from plugin)
RCC_GetITStatus                                   obj/main/SPRACINGF3/stm32f30x_rcc.o (symbol from plugin)
RCC_GetSYSCLKSource                               obj/main/SPRACINGF3/stm32f30x_rcc.o (symbol from plugin)
RCC_HCLKConfig                                    obj/main/SPRACINGF3/stm32f30x_rcc.o (symbol from plugin)
RCC_HRTIM1CLKConfig                               obj/main/SPRACINGF3/stm32f30x_rcc.o (symbol from plugin)
RCC_HSEConfig                                     obj/main/SPRACINGF3/stm32f30x_rcc.o (symbol from plugin)
RCC_HSICmd                                        obj/main/SPRACINGF3/stm32f30x_rcc.o (symbol from plugin)
RCC_I2CCLKConfig                                  obj/main/SPRACINGF3/stm32f30x_rcc.o (symbol from plugin)
                                                  obj/main/SPRACINGF3/drivers/bus_i2c_stm32f30x.o (symbol from plugin)
RCC_I2SCLKConfig                                  obj/main/SPRACINGF3/stm32f30x_rcc.o (symbol from plugin)
RCC_IRQHandler                                    obj/main/SPRACINGF3/startup_stm32f30x_md_gcc.o
RCC_ITConfig                                      obj/main/SPRACINGF3/stm32f30x_rcc.o (symbol from plugin)
RCC_LSEConfig                                     obj/main/SPRACINGF3/stm32f30x_rcc.o (symbol from plugin)
RCC_LSEDriveConfig                                obj/main/SPRACINGF3/stm32f30x_rcc.o (symbol from plugin)
RCC_LSICmd                                        obj/main/SPRACINGF3/stm32f30x_rcc.o (symbol from plugin)
RCC_MCOConfig                                     obj/main/SPRACINGF3/stm32f30x_rcc.o (symbol from plugin)
RCC_PCLK1Config                                   obj/main/SPRACINGF3/stm32f30x_rcc.o (symbol from plugin)
RCC_PCLK2Config                                   obj/main/SPRACINGF3/stm32f30x_rcc.o (symbol from plugin)
RCC_PLLCmd                                        obj/main/SPRACINGF3/stm32f30x_rcc.o (symbol from plugin)
RCC_PLLConfig                                     obj/main/SPRACINGF3/stm32f30x_rcc.o (symbol from plugin)
RCC_PREDIV1Config                                 obj/main/SPRACINGF3/stm32f30x_rcc.o (symbol from plugin)
RCC_RTCCLKCmd                                     obj/main/SPRACINGF3/stm32f30x_rcc.o (symbol from plugin)
RCC_RTCCLKConfig                                  obj/main/SPRACINGF3/stm32f30x_rcc.o (symbol from plugin)
RCC_SYSCLKConfig                                  obj/main/SPRACINGF3/stm32f30x_rcc.o (symbol from plugin)
RCC_TIMCLKConfig                                  obj/main/SPRACINGF3/stm32f30x_rcc.o (symbol from plugin)
RCC_USARTCLKConfig                                obj/main/SPRACINGF3/stm32f30x_rcc.o (symbol from plugin)
RCC_USBCLKConfig                                  obj/main/SPRACINGF3/stm32f30x_rcc.o (symbol from plugin)
RCC_WaitForHSEStartUp                             obj/main/SPRACINGF3/stm32f30x_rcc.o (symbol from plugin)
RTC_AlarmCmd                                      obj/main/SPRACINGF3/stm32f30x_rtc.o (symbol from plugin)
RTC_AlarmStructInit                               obj/main/SPRACINGF3/stm32f30x_rtc.o (symbol from plugin)
RTC_AlarmSubSecondConfig                          obj/main/SPRACINGF3/stm32f30x_rtc.o (symbol from plugin)
RTC_Alarm_IRQHandler                              obj/main/SPRACINGF3/startup_stm32f30x_md_gcc.o
RTC_BypassShadowCmd                               obj/main/SPRACINGF3/stm32f30x_rtc.o (symbol from plugin)
RTC_CalibOutputCmd                                obj/main/SPRACINGF3/stm32f30x_rtc.o (symbol from plugin)
RTC_CalibOutputConfig                             obj/main/SPRACINGF3/stm32f30x_rtc.o (symbol from plugin)
RTC_ClearFlag                                     obj/main/SPRACINGF3/stm32f30x_rtc.o (symbol from plugin)
RTC_ClearITPendingBit                             obj/main/SPRACINGF3/stm32f30x_rtc.o (symbol from plugin)
RTC_DateStructInit                                obj/main/SPRACINGF3/stm32f30x_rtc.o (symbol from plugin)
RTC_DayLightSavingConfig                          obj/main/SPRACINGF3/stm32f30x_rtc.o (symbol from plugin)
RTC_DeInit                                        obj/main/SPRACINGF3/stm32f30x_rtc.o (symbol from plugin)
RTC_EnterInitMode                                 obj/main/SPRACINGF3/stm32f30x_rtc.o (symbol from plugin)
RTC_ExitInitMode                                  obj/main/SPRACINGF3/stm32f30x_rtc.o (symbol from plugin)
RTC_GetAlarm                                      obj/main/SPRACINGF3/stm32f30x_rtc.o (symbol from plugin)
RTC_GetAlarmSubSecond                             obj/main/SPRACINGF3/stm32f30x_rtc.o (symbol from plugin)
RTC_GetDate                                       obj/main/SPRACINGF3/stm32f30x_rtc.o (symbol from plugin)
RTC_GetFlagStatus                                 obj/main/SPRACINGF3/stm32f30x_rtc.o (symbol from plugin)
RTC_GetITStatus                                   obj/main/SPRACINGF3/stm32f30x_rtc.o (symbol from plugin)
RTC_GetStoreOperation                             obj/main/SPRACINGF3/stm32f30x_rtc.o (symbol from plugin)
RTC_GetSubSecond                                  obj/main/SPRACINGF3/stm32f30x_rtc.o (symbol from plugin)
RTC_GetTime                                       obj/main/SPRACINGF3/stm32f30x_rtc.o (symbol from plugin)
RTC_GetTimeStamp                                  obj/main/SPRACINGF3/stm32f30x_rtc.o (symbol from plugin)
RTC_GetTimeStampSubSecond                         obj/main/SPRACINGF3/stm32f30x_rtc.o (symbol from plugin)
RTC_GetWakeUpCounter                              obj/main/SPRACINGF3/stm32f30x_rtc.o (symbol from plugin)
RTC_ITConfig                                      obj/main/SPRACINGF3/stm32f30x_rtc.o (symbol from plugin)
RTC_Init                                          obj/main/SPRACINGF3/stm32f30x_rtc.o (symbol from plugin)
RTC_OutputConfig                                  obj/main/SPRACINGF3/stm32f30x_rtc.o (symbol from plugin)
RTC_OutputTypeConfig                              obj/main/SPRACINGF3/stm32f30x_rtc.o (symbol from plugin)
RTC_ReadBackupRegister                            obj/main/SPRACINGF3/stm32f30x_rtc.o (symbol from plugin)
RTC_RefClockCmd                                   obj/main/SPRACINGF3/stm32f30x_rtc.o (symbol from plugin)
RTC_SetAlarm                                      obj/main/SPRACINGF3/stm32f30x_rtc.o (symbol from plugin)
RTC_SetDate                                       obj/main/SPRACINGF3/stm32f30x_rtc.o (symbol from plugin)
RTC_SetTime                                       obj/main/SPRACINGF3/stm32f30x_rtc.o (symbol from plugin)
RTC_SetWakeUpCounter                              obj/main/SPRACINGF3/stm32f30x_rtc.o (symbol from plugin)
RTC_SmoothCalibConfig                             obj/main/SPRACINGF3/stm32f30x_rtc.o (symbol from plugin)
RTC_StructInit                                    obj/main/SPRACINGF3/stm32f30x_rtc.o (symbol from plugin)
RTC_SynchroShiftConfig                            obj/main/SPRACINGF3/stm32f30x_rtc.o (symbol from plugin)
RTC_TamperCmd                                     obj/main/SPRACINGF3/stm32f30x_rtc.o (symbol from plugin)
RTC_TamperFilterConfig                            obj/main/SPRACINGF3/stm32f30x_rtc.o (symbol from plugin)
RTC_TamperPinsPrechargeDuration                   obj/main/SPRACINGF3/stm32f30x_rtc.o (symbol from plugin)
RTC_TamperPullUpCmd                               obj/main/SPRACINGF3/stm32f30x_rtc.o (symbol from plugin)
RTC_TamperSamplingFreqConfig                      obj/main/SPRACINGF3/stm32f30x_rtc.o (symbol from plugin)
RTC_TamperTriggerConfig                           obj/main/SPRACINGF3/stm32f30x_rtc.o (symbol from plugin)
RTC_TimeStampCmd                                  obj/main/SPRACINGF3/stm32f30x_rtc.o (symbol from plugin)
RTC_TimeStampOnTamperDetectionCmd                 obj/main/SPRACINGF3/stm32f30x_rtc.o (symbol from plugin)
RTC_TimeStructInit                                obj/main/SPRACINGF3/stm32f30x_rtc.o (symbol from plugin)
RTC_WKUP_IRQHandler                               obj/main/SPRACINGF3/startup_stm32f30x_md_gcc.o
RTC_WaitForSynchro                                obj/main/SPRACINGF3/stm32f30x_rtc.o (symbol from plugin)
RTC_WakeUpClockConfig                             obj/main/SPRACINGF3/stm32f30x_rtc.o (symbol from plugin)
RTC_WakeUpCmd                                     obj/main/SPRACINGF3/stm32f30x_rtc.o (symbol from plugin)
RTC_WriteBackupRegister                           obj/main/SPRACINGF3/stm32f30x_rtc.o (symbol from plugin)
RTC_WriteProtectionCmd                            obj/main/SPRACINGF3/stm32f30x_rtc.o (symbol from plugin)
RXDATA                                            /var/folders/qz/8dvj07d52mjgthd1ds8wvf400000gn/T//ccg5ycur.ltrans2.ltrans.o
                                                  obj/main/SPRACINGF3/drivers/nrf2401.o (symbol from plugin)
                                                  /var/folders/qz/8dvj07d52mjgthd1ds8wvf400000gn/T//ccg5ycur.ltrans0.ltrans.o
RX_ADDRESS                                        /var/folders/qz/8dvj07d52mjgthd1ds8wvf400000gn/T//ccg5ycur.ltrans11.ltrans.o
                                                  obj/main/SPRACINGF3/drivers/nrf2401.o (symbol from plugin)
                                                  /var/folders/qz/8dvj07d52mjgthd1ds8wvf400000gn/T//ccg5ycur.ltrans0.ltrans.o
Read_data                                         /var/folders/qz/8dvj07d52mjgthd1ds8wvf400000gn/T//ccg5ycur.ltrans11.ltrans.o
                                                  obj/main/SPRACINGF3/drivers/fbm320.o (symbol from plugin)
                                                  /var/folders/qz/8dvj07d52mjgthd1ds8wvf400000gn/T//ccg5ycur.ltrans0.ltrans.o
Rel_Altitude                                      obj/main/SPRACINGF3/drivers/fbm320.o (symbol from plugin)
Reset_Handler                                     obj/main/SPRACINGF3/startup_stm32f30x_md_gcc.o
SPI1_IRQHandler                                   obj/main/SPRACINGF3/startup_stm32f30x_md_gcc.o
SPI2_IRQHandler                                   obj/main/SPRACINGF3/startup_stm32f30x_md_gcc.o
SPI3_IRQHandler                                   obj/main/SPRACINGF3/startup_stm32f30x_md_gcc.o
SPI_BiDirectionalLineConfig                       obj/main/SPRACINGF3/stm32f30x_spi.o (symbol from plugin)
SPI_CRCLengthConfig                               obj/main/SPRACINGF3/stm32f30x_spi.o (symbol from plugin)
SPI_CalculateCRC                                  obj/main/SPRACINGF3/stm32f30x_spi.o (symbol from plugin)
SPI_Cmd                                           obj/main/SPRACINGF3/stm32f30x_spi.o (symbol from plugin)
                                                  obj/main/SPRACINGF3/drivers/bus_spi.o (symbol from plugin)
SPI_DataSizeConfig                                obj/main/SPRACINGF3/stm32f30x_spi.o (symbol from plugin)
SPI_GetCRC                                        obj/main/SPRACINGF3/stm32f30x_spi.o (symbol from plugin)
SPI_GetCRCPolynomial                              obj/main/SPRACINGF3/stm32f30x_spi.o (symbol from plugin)
SPI_GetReceptionFIFOStatus                        obj/main/SPRACINGF3/stm32f30x_spi.o (symbol from plugin)
SPI_GetTransmissionFIFOStatus                     obj/main/SPRACINGF3/stm32f30x_spi.o (symbol from plugin)
                                                  obj/main/SPRACINGF3/drivers/bus_spi.o (symbol from plugin)
SPI_I2S_ClearFlag                                 obj/main/SPRACINGF3/stm32f30x_spi.o (symbol from plugin)
SPI_I2S_DMACmd                                    obj/main/SPRACINGF3/stm32f30x_spi.o (symbol from plugin)
SPI_I2S_DeInit                                    obj/main/SPRACINGF3/stm32f30x_spi.o (symbol from plugin)
                                                  obj/main/SPRACINGF3/drivers/bus_spi.o (symbol from plugin)
SPI_I2S_GetFlagStatus                             obj/main/SPRACINGF3/stm32f30x_spi.o (symbol from plugin)
                                                  obj/main/SPRACINGF3/drivers/bus_spi.o (symbol from plugin)
SPI_I2S_GetITStatus                               obj/main/SPRACINGF3/stm32f30x_spi.o (symbol from plugin)
SPI_I2S_ITConfig                                  obj/main/SPRACINGF3/stm32f30x_spi.o (symbol from plugin)
SPI_I2S_ReceiveData16                             obj/main/SPRACINGF3/stm32f30x_spi.o (symbol from plugin)
SPI_I2S_SendData16                                obj/main/SPRACINGF3/stm32f30x_spi.o (symbol from plugin)
SPI_Init                                          obj/main/SPRACINGF3/stm32f30x_spi.o (symbol from plugin)
                                                  obj/main/SPRACINGF3/drivers/bus_spi.o (symbol from plugin)
SPI_LastDMATransferCmd                            obj/main/SPRACINGF3/stm32f30x_spi.o (symbol from plugin)
SPI_NSSInternalSoftwareConfig                     obj/main/SPRACINGF3/stm32f30x_spi.o (symbol from plugin)
SPI_NSSPulseModeCmd                               obj/main/SPRACINGF3/stm32f30x_spi.o (symbol from plugin)
SPI_ReceiveData8                                  obj/main/SPRACINGF3/stm32f30x_spi.o (symbol from plugin)
                                                  obj/main/SPRACINGF3/drivers/bus_spi.o (symbol from plugin)
SPI_RxFIFOThresholdConfig                         obj/main/SPRACINGF3/stm32f30x_spi.o (symbol from plugin)
                                                  obj/main/SPRACINGF3/drivers/bus_spi.o (symbol from plugin)
SPI_SSOutputCmd                                   obj/main/SPRACINGF3/stm32f30x_spi.o (symbol from plugin)
SPI_SendData8                                     obj/main/SPRACINGF3/stm32f30x_spi.o (symbol from plugin)
                                                  obj/main/SPRACINGF3/drivers/bus_spi.o (symbol from plugin)
SPI_StructInit                                    obj/main/SPRACINGF3/stm32f30x_spi.o (symbol from plugin)
SPI_TIModeCmd                                     obj/main/SPRACINGF3/stm32f30x_spi.o (symbol from plugin)
SPI_TransmitCRC                                   obj/main/SPRACINGF3/stm32f30x_spi.o (symbol from plugin)
SVC_Handler                                       obj/main/SPRACINGF3/startup_stm32f30x_md_gcc.o
SYSCFG_BreakConfig                                obj/main/SPRACINGF3/stm32f30x_syscfg.o (symbol from plugin)
SYSCFG_BypassParityCheckDisable                   obj/main/SPRACINGF3/stm32f30x_syscfg.o (symbol from plugin)
SYSCFG_ClearFlag                                  obj/main/SPRACINGF3/stm32f30x_syscfg.o (symbol from plugin)
SYSCFG_DMAChannelRemapConfig                      obj/main/SPRACINGF3/stm32f30x_syscfg.o (symbol from plugin)
SYSCFG_DeInit                                     obj/main/SPRACINGF3/stm32f30x_syscfg.o (symbol from plugin)
SYSCFG_EXTILineConfig                             obj/main/SPRACINGF3/stm32f30x_syscfg.o (symbol from plugin)
                                                  obj/main/SPRACINGF3/drivers/exti.o (symbol from plugin)
SYSCFG_EncoderRemapConfig                         obj/main/SPRACINGF3/stm32f30x_syscfg.o (symbol from plugin)
SYSCFG_GetFlagStatus                              obj/main/SPRACINGF3/stm32f30x_syscfg.o (symbol from plugin)
SYSCFG_I2CFastModePlusConfig                      obj/main/SPRACINGF3/stm32f30x_syscfg.o (symbol from plugin)
SYSCFG_ITConfig                                   obj/main/SPRACINGF3/stm32f30x_syscfg.o (symbol from plugin)
SYSCFG_MemoryRemapConfig                          obj/main/SPRACINGF3/stm32f30x_syscfg.o (symbol from plugin)
SYSCFG_SRAMWRPEnable                              obj/main/SPRACINGF3/stm32f30x_syscfg.o (symbol from plugin)
SYSCFG_TriggerRemapConfig                         obj/main/SPRACINGF3/stm32f30x_syscfg.o (symbol from plugin)
SYSCFG_USBInterruptLineRemapCmd                   obj/main/SPRACINGF3/stm32f30x_syscfg.o (symbol from plugin)
SetRX_Mode                                        /var/folders/qz/8dvj07d52mjgthd1ds8wvf400000gn/T//ccg5ycur.ltrans11.ltrans.o
                                                  obj/main/SPRACINGF3/drivers/nrf2401.o (symbol from plugin)
                                                  /var/folders/qz/8dvj07d52mjgthd1ds8wvf400000gn/T//ccg5ycur.ltrans0.ltrans.o
SetSysClock                                       obj/main/SPRACINGF3/target/system_stm32f30x.o (symbol from plugin)
                                                  obj/main/SPRACINGF3/fc/boot.o (symbol from plugin)
StkCmd.lto_priv.161                               /var/folders/qz/8dvj07d52mjgthd1ds8wvf400000gn/T//ccg5ycur.ltrans5.ltrans.o
                                                  /var/folders/qz/8dvj07d52mjgthd1ds8wvf400000gn/T//ccg5ycur.ltrans15.ltrans.o
                                                  /var/folders/qz/8dvj07d52mjgthd1ds8wvf400000gn/T//ccg5ycur.ltrans13.ltrans.o
StkRcvPacket.lto_priv.160                         /var/folders/qz/8dvj07d52mjgthd1ds8wvf400000gn/T//ccg5ycur.ltrans15.ltrans.o
                                                  /var/folders/qz/8dvj07d52mjgthd1ds8wvf400000gn/T//ccg5ycur.ltrans13.ltrans.o
                                                  /var/folders/qz/8dvj07d52mjgthd1ds8wvf400000gn/T//ccg5ycur.ltrans5.ltrans.o
StkSendByte.lto_priv.158                          /var/folders/qz/8dvj07d52mjgthd1ds8wvf400000gn/T//ccg5ycur.ltrans15.ltrans.o
                                                  /var/folders/qz/8dvj07d52mjgthd1ds8wvf400000gn/T//ccg5ycur.ltrans13.ltrans.o
                                                  /var/folders/qz/8dvj07d52mjgthd1ds8wvf400000gn/T//ccg5ycur.ltrans5.ltrans.o
StkSendPacketFooter.lto_priv.159                  /var/folders/qz/8dvj07d52mjgthd1ds8wvf400000gn/T//ccg5ycur.ltrans15.ltrans.o
                                                  /var/folders/qz/8dvj07d52mjgthd1ds8wvf400000gn/T//ccg5ycur.ltrans13.ltrans.o
                                                  /var/folders/qz/8dvj07d52mjgthd1ds8wvf400000gn/T//ccg5ycur.ltrans5.ltrans.o
StkSendPacketHeader.lto_priv.157                  /var/folders/qz/8dvj07d52mjgthd1ds8wvf400000gn/T//ccg5ycur.ltrans15.ltrans.o
                                                  /var/folders/qz/8dvj07d52mjgthd1ds8wvf400000gn/T//ccg5ycur.ltrans13.ltrans.o
                                                  /var/folders/qz/8dvj07d52mjgthd1ds8wvf400000gn/T//ccg5ycur.ltrans5.ltrans.o
Stk_Chip_Erase                                    obj/main/SPRACINGF3/io/serial_4way_stk500v2.o (symbol from plugin)
                                                  obj/main/SPRACINGF3/io/serial_4way.o (symbol from plugin)
Stk_ConnectEx                                     obj/main/SPRACINGF3/io/serial_4way_stk500v2.o (symbol from plugin)
                                                  obj/main/SPRACINGF3/io/serial_4way.o (symbol from plugin)
Stk_ReadEEprom                                    obj/main/SPRACINGF3/io/serial_4way_stk500v2.o (symbol from plugin)
                                                  obj/main/SPRACINGF3/io/serial_4way.o (symbol from plugin)
Stk_ReadFlash                                     obj/main/SPRACINGF3/io/serial_4way_stk500v2.o (symbol from plugin)
                                                  obj/main/SPRACINGF3/io/serial_4way.o (symbol from plugin)
Stk_SignOn                                        /var/folders/qz/8dvj07d52mjgthd1ds8wvf400000gn/T//ccg5ycur.ltrans5.ltrans.o
                                                  obj/main/SPRACINGF3/io/serial_4way_stk500v2.o (symbol from plugin)
                                                  /var/folders/qz/8dvj07d52mjgthd1ds8wvf400000gn/T//ccg5ycur.ltrans13.ltrans.o
                                                  obj/main/SPRACINGF3/io/serial_4way.o (symbol from plugin)
Stk_WriteEEprom                                   obj/main/SPRACINGF3/io/serial_4way_stk500v2.o (symbol from plugin)
                                                  obj/main/SPRACINGF3/io/serial_4way.o (symbol from plugin)
Stk_WriteFlash                                    obj/main/SPRACINGF3/io/serial_4way_stk500v2.o (symbol from plugin)
                                                  obj/main/SPRACINGF3/io/serial_4way.o (symbol from plugin)
StopPwmAllMotors                                  obj/main/SPRACINGF3/flight/mixer.o (symbol from plugin)
                                                  obj/main/SPRACINGF3/fc/config.o (symbol from plugin)
SysTick_CLKSourceConfig                           obj/main/SPRACINGF3/stm32f30x_misc.o (symbol from plugin)
SysTick_Handler                                   /var/folders/qz/8dvj07d52mjgthd1ds8wvf400000gn/T//ccg5ycur.ltrans7.ltrans.o
                                                  obj/main/SPRACINGF3/drivers/system.o (symbol from plugin)
                                                  obj/main/SPRACINGF3/startup_stm32f30x_md_gcc.o
SystemCoreClock                                   /var/folders/qz/8dvj07d52mjgthd1ds8wvf400000gn/T//ccg5ycur.ltrans16.ltrans.o
                                                  obj/main/SPRACINGF3/target/system_stm32f30x.o (symbol from plugin)
                                                  obj/main/SPRACINGF3/drivers/system.o (symbol from plugin)
                                                  obj/main/SPRACINGF3/io/serial_cli.o (symbol from plugin)
                                                  obj/main/SPRACINGF3/drivers/serial_softserial.o (symbol from plugin)
                                                  obj/main/SPRACINGF3/drivers/light_ws2811strip_stm32f30x.o (symbol from plugin)
                                                  obj/main/SPRACINGF3/drivers/timer.o (symbol from plugin)
SystemCoreClockUpdate                             obj/main/SPRACINGF3/target/system_stm32f30x.o (symbol from plugin)
SystemInit                                        /var/folders/qz/8dvj07d52mjgthd1ds8wvf400000gn/T//ccg5ycur.ltrans3.ltrans.o
                                                  obj/main/SPRACINGF3/target/system_stm32f30x.o (symbol from plugin)
                                                  obj/main/SPRACINGF3/startup_stm32f30x_md_gcc.o
TAMPER_STAMP_IRQHandler                           obj/main/SPRACINGF3/startup_stm32f30x_md_gcc.o
TIM1_BRK_TIM15_IRQHandler                         /var/folders/qz/8dvj07d52mjgthd1ds8wvf400000gn/T//ccg5ycur.ltrans3.ltrans.o
                                                  obj/main/SPRACINGF3/drivers/timer.o (symbol from plugin)
                                                  obj/main/SPRACINGF3/startup_stm32f30x_md_gcc.o
TIM1_CC_IRQHandler                                /var/folders/qz/8dvj07d52mjgthd1ds8wvf400000gn/T//ccg5ycur.ltrans3.ltrans.o
                                                  obj/main/SPRACINGF3/drivers/timer.o (symbol from plugin)
                                                  obj/main/SPRACINGF3/startup_stm32f30x_md_gcc.o
TIM1_TRG_COM_TIM17_IRQHandler                     /var/folders/qz/8dvj07d52mjgthd1ds8wvf400000gn/T//ccg5ycur.ltrans3.ltrans.o
                                                  obj/main/SPRACINGF3/drivers/timer.o (symbol from plugin)
                                                  obj/main/SPRACINGF3/startup_stm32f30x_md_gcc.o
TIM1_UP_TIM16_IRQHandler                          /var/folders/qz/8dvj07d52mjgthd1ds8wvf400000gn/T//ccg5ycur.ltrans3.ltrans.o
                                                  obj/main/SPRACINGF3/drivers/timer.o (symbol from plugin)
                                                  obj/main/SPRACINGF3/startup_stm32f30x_md_gcc.o
TIM2_IRQHandler                                   /var/folders/qz/8dvj07d52mjgthd1ds8wvf400000gn/T//ccg5ycur.ltrans3.ltrans.o
                                                  obj/main/SPRACINGF3/drivers/timer.o (symbol from plugin)
                                                  obj/main/SPRACINGF3/startup_stm32f30x_md_gcc.o
TIM3_IRQHandler                                   /var/folders/qz/8dvj07d52mjgthd1ds8wvf400000gn/T//ccg5ycur.ltrans3.ltrans.o
                                                  obj/main/SPRACINGF3/drivers/timer.o (symbol from plugin)
                                                  obj/main/SPRACINGF3/startup_stm32f30x_md_gcc.o
TIM4_IRQHandler                                   /var/folders/qz/8dvj07d52mjgthd1ds8wvf400000gn/T//ccg5ycur.ltrans3.ltrans.o
                                                  obj/main/SPRACINGF3/drivers/timer.o (symbol from plugin)
                                                  obj/main/SPRACINGF3/startup_stm32f30x_md_gcc.o
TIM6_DAC_IRQHandler                               obj/main/SPRACINGF3/startup_stm32f30x_md_gcc.o
TIM7_IRQHandler                                   obj/main/SPRACINGF3/startup_stm32f30x_md_gcc.o
TIM8_BRK_IRQHandler                               obj/main/SPRACINGF3/startup_stm32f30x_md_gcc.o
TIM8_CC_IRQHandler                                obj/main/SPRACINGF3/startup_stm32f30x_md_gcc.o
TIM8_TRG_COM_IRQHandler                           obj/main/SPRACINGF3/startup_stm32f30x_md_gcc.o
TIM8_UP_IRQHandler                                obj/main/SPRACINGF3/startup_stm32f30x_md_gcc.o
TIM_ARRPreloadConfig                              obj/main/SPRACINGF3/stm32f30x_tim.o (symbol from plugin)
TIM_BDTRConfig                                    obj/main/SPRACINGF3/stm32f30x_tim.o (symbol from plugin)
TIM_BDTRStructInit                                obj/main/SPRACINGF3/stm32f30x_tim.o (symbol from plugin)
TIM_Break1Cmd                                     obj/main/SPRACINGF3/stm32f30x_tim.o (symbol from plugin)
TIM_Break1Config                                  obj/main/SPRACINGF3/stm32f30x_tim.o (symbol from plugin)
TIM_Break2Cmd                                     obj/main/SPRACINGF3/stm32f30x_tim.o (symbol from plugin)
TIM_Break2Config                                  obj/main/SPRACINGF3/stm32f30x_tim.o (symbol from plugin)
TIM_CCPreloadControl                              obj/main/SPRACINGF3/stm32f30x_tim.o (symbol from plugin)
TIM_CCxCmd                                        obj/main/SPRACINGF3/stm32f30x_tim.o (symbol from plugin)
TIM_CCxNCmd                                       obj/main/SPRACINGF3/stm32f30x_tim.o (symbol from plugin)
TIM_ClearFlag                                     obj/main/SPRACINGF3/stm32f30x_tim.o (symbol from plugin)
                                                  obj/main/SPRACINGF3/drivers/timer.o (symbol from plugin)
TIM_ClearITPendingBit                             obj/main/SPRACINGF3/stm32f30x_tim.o (symbol from plugin)
TIM_ClearOC1Ref                                   obj/main/SPRACINGF3/stm32f30x_tim.o (symbol from plugin)
TIM_ClearOC2Ref                                   obj/main/SPRACINGF3/stm32f30x_tim.o (symbol from plugin)
TIM_ClearOC3Ref                                   obj/main/SPRACINGF3/stm32f30x_tim.o (symbol from plugin)
TIM_ClearOC4Ref                                   obj/main/SPRACINGF3/stm32f30x_tim.o (symbol from plugin)
TIM_ClearOC5Ref                                   obj/main/SPRACINGF3/stm32f30x_tim.o (symbol from plugin)
TIM_ClearOC6Ref                                   obj/main/SPRACINGF3/stm32f30x_tim.o (symbol from plugin)
TIM_Cmd                                           obj/main/SPRACINGF3/stm32f30x_tim.o (symbol from plugin)
                                                  obj/main/SPRACINGF3/drivers/light_ws2811strip_stm32f30x.o (symbol from plugin)
                                                  obj/main/SPRACINGF3/drivers/pwm_output.o (symbol from plugin)
                                                  obj/main/SPRACINGF3/drivers/timer.o (symbol from plugin)
TIM_CounterModeConfig                             obj/main/SPRACINGF3/stm32f30x_tim.o (symbol from plugin)
TIM_CtrlPWMOutputs                                obj/main/SPRACINGF3/stm32f30x_tim.o (symbol from plugin)
                                                  obj/main/SPRACINGF3/drivers/light_ws2811strip_stm32f30x.o (symbol from plugin)
                                                  obj/main/SPRACINGF3/drivers/pwm_output.o (symbol from plugin)
TIM_DMACmd                                        obj/main/SPRACINGF3/stm32f30x_tim.o (symbol from plugin)
                                                  obj/main/SPRACINGF3/drivers/light_ws2811strip_stm32f30x.o (symbol from plugin)
TIM_DMAConfig                                     obj/main/SPRACINGF3/stm32f30x_tim.o (symbol from plugin)
TIM_DeInit                                        obj/main/SPRACINGF3/stm32f30x_tim.o (symbol from plugin)
TIM_ETRClockMode1Config                           obj/main/SPRACINGF3/stm32f30x_tim.o (symbol from plugin)
TIM_ETRClockMode2Config                           obj/main/SPRACINGF3/stm32f30x_tim.o (symbol from plugin)
TIM_ETRConfig                                     obj/main/SPRACINGF3/stm32f30x_tim.o (symbol from plugin)
TIM_EncoderInterfaceConfig                        obj/main/SPRACINGF3/stm32f30x_tim.o (symbol from plugin)
TIM_ForcedOC1Config                               obj/main/SPRACINGF3/stm32f30x_tim.o (symbol from plugin)
TIM_ForcedOC2Config                               obj/main/SPRACINGF3/stm32f30x_tim.o (symbol from plugin)
TIM_ForcedOC3Config                               obj/main/SPRACINGF3/stm32f30x_tim.o (symbol from plugin)
TIM_ForcedOC4Config                               obj/main/SPRACINGF3/stm32f30x_tim.o (symbol from plugin)
TIM_ForcedOC5Config                               obj/main/SPRACINGF3/stm32f30x_tim.o (symbol from plugin)
TIM_ForcedOC6Config                               obj/main/SPRACINGF3/stm32f30x_tim.o (symbol from plugin)
TIM_GenerateEvent                                 obj/main/SPRACINGF3/stm32f30x_tim.o (symbol from plugin)
TIM_GetCapture1                                   obj/main/SPRACINGF3/stm32f30x_tim.o (symbol from plugin)
TIM_GetCapture2                                   obj/main/SPRACINGF3/stm32f30x_tim.o (symbol from plugin)
TIM_GetCapture3                                   obj/main/SPRACINGF3/stm32f30x_tim.o (symbol from plugin)
TIM_GetCapture4                                   obj/main/SPRACINGF3/stm32f30x_tim.o (symbol from plugin)
TIM_GetCounter                                    obj/main/SPRACINGF3/stm32f30x_tim.o (symbol from plugin)
TIM_GetFlagStatus                                 obj/main/SPRACINGF3/stm32f30x_tim.o (symbol from plugin)
TIM_GetITStatus                                   obj/main/SPRACINGF3/stm32f30x_tim.o (symbol from plugin)
TIM_GetPrescaler                                  obj/main/SPRACINGF3/stm32f30x_tim.o (symbol from plugin)
TIM_ICInit                                        /var/folders/qz/8dvj07d52mjgthd1ds8wvf400000gn/T//ccg5ycur.ltrans9.ltrans.o
                                                  obj/main/SPRACINGF3/stm32f30x_tim.o (symbol from plugin)
                                                  /var/folders/qz/8dvj07d52mjgthd1ds8wvf400000gn/T//ccg5ycur.ltrans10.ltrans.o
                                                  obj/main/SPRACINGF3/drivers/serial_softserial.o (symbol from plugin)
                                                  obj/main/SPRACINGF3/drivers/pwm_rx.o (symbol from plugin)
                                                  obj/main/SPRACINGF3/drivers/timer.o (symbol from plugin)
TIM_ICStructInit                                  obj/main/SPRACINGF3/stm32f30x_tim.o (symbol from plugin)
                                                  obj/main/SPRACINGF3/drivers/serial_softserial.o (symbol from plugin)
                                                  obj/main/SPRACINGF3/drivers/pwm_rx.o (symbol from plugin)
                                                  obj/main/SPRACINGF3/drivers/timer.o (symbol from plugin)
TIM_ITConfig                                      obj/main/SPRACINGF3/stm32f30x_tim.o (symbol from plugin)
                                                  obj/main/SPRACINGF3/drivers/timer.o (symbol from plugin)
TIM_ITRxExternalClockConfig                       obj/main/SPRACINGF3/stm32f30x_tim.o (symbol from plugin)
TIM_InternalClockConfig                           obj/main/SPRACINGF3/stm32f30x_tim.o (symbol from plugin)
TIM_OC1FastConfig                                 obj/main/SPRACINGF3/stm32f30x_tim.o (symbol from plugin)
TIM_OC1Init                                       obj/main/SPRACINGF3/stm32f30x_tim.o (symbol from plugin)
                                                  obj/main/SPRACINGF3/drivers/light_ws2811strip_stm32f30x.o (symbol from plugin)
                                                  obj/main/SPRACINGF3/drivers/pwm_output.o (symbol from plugin)
                                                  obj/main/SPRACINGF3/drivers/timer.o (symbol from plugin)
TIM_OC1NPolarityConfig                            obj/main/SPRACINGF3/stm32f30x_tim.o (symbol from plugin)
TIM_OC1PolarityConfig                             obj/main/SPRACINGF3/stm32f30x_tim.o (symbol from plugin)
TIM_OC1PreloadConfig                              obj/main/SPRACINGF3/stm32f30x_tim.o (symbol from plugin)
                                                  obj/main/SPRACINGF3/drivers/light_ws2811strip_stm32f30x.o (symbol from plugin)
                                                  obj/main/SPRACINGF3/drivers/pwm_output.o (symbol from plugin)
                                                  obj/main/SPRACINGF3/drivers/timer.o (symbol from plugin)
TIM_OC2FastConfig                                 obj/main/SPRACINGF3/stm32f30x_tim.o (symbol from plugin)
TIM_OC2Init                                       obj/main/SPRACINGF3/stm32f30x_tim.o (symbol from plugin)
                                                  obj/main/SPRACINGF3/drivers/pwm_output.o (symbol from plugin)
                                                  obj/main/SPRACINGF3/drivers/timer.o (symbol from plugin)
TIM_OC2NPolarityConfig                            obj/main/SPRACINGF3/stm32f30x_tim.o (symbol from plugin)
TIM_OC2PolarityConfig                             obj/main/SPRACINGF3/stm32f30x_tim.o (symbol from plugin)
TIM_OC2PreloadConfig                              obj/main/SPRACINGF3/stm32f30x_tim.o (symbol from plugin)
                                                  obj/main/SPRACINGF3/drivers/pwm_output.o (symbol from plugin)
                                                  obj/main/SPRACINGF3/drivers/timer.o (symbol from plugin)
TIM_OC3FastConfig                                 obj/main/SPRACINGF3/stm32f30x_tim.o (symbol from plugin)
TIM_OC3Init                                       obj/main/SPRACINGF3/stm32f30x_tim.o (symbol from plugin)
                                                  obj/main/SPRACINGF3/drivers/pwm_output.o (symbol from plugin)
                                                  obj/main/SPRACINGF3/drivers/timer.o (symbol from plugin)
TIM_OC3NPolarityConfig                            obj/main/SPRACINGF3/stm32f30x_tim.o (symbol from plugin)
TIM_OC3PolarityConfig                             obj/main/SPRACINGF3/stm32f30x_tim.o (symbol from plugin)
TIM_OC3PreloadConfig                              obj/main/SPRACINGF3/stm32f30x_tim.o (symbol from plugin)
                                                  obj/main/SPRACINGF3/drivers/pwm_output.o (symbol from plugin)
                                                  obj/main/SPRACINGF3/drivers/timer.o (symbol from plugin)
TIM_OC4FastConfig                                 obj/main/SPRACINGF3/stm32f30x_tim.o (symbol from plugin)
TIM_OC4Init                                       obj/main/SPRACINGF3/stm32f30x_tim.o (symbol from plugin)
                                                  obj/main/SPRACINGF3/drivers/pwm_output.o (symbol from plugin)
                                                  obj/main/SPRACINGF3/drivers/timer.o (symbol from plugin)
TIM_OC4PolarityConfig                             obj/main/SPRACINGF3/stm32f30x_tim.o (symbol from plugin)
TIM_OC4PreloadConfig                              obj/main/SPRACINGF3/stm32f30x_tim.o (symbol from plugin)
                                                  obj/main/SPRACINGF3/drivers/pwm_output.o (symbol from plugin)
                                                  obj/main/SPRACINGF3/drivers/timer.o (symbol from plugin)
TIM_OC5Init                                       obj/main/SPRACINGF3/stm32f30x_tim.o (symbol from plugin)
TIM_OC5PolarityConfig                             obj/main/SPRACINGF3/stm32f30x_tim.o (symbol from plugin)
TIM_OC5PreloadConfig                              obj/main/SPRACINGF3/stm32f30x_tim.o (symbol from plugin)
TIM_OC6Init                                       obj/main/SPRACINGF3/stm32f30x_tim.o (symbol from plugin)
TIM_OC6PolarityConfig                             obj/main/SPRACINGF3/stm32f30x_tim.o (symbol from plugin)
TIM_OC6PreloadConfig                              obj/main/SPRACINGF3/stm32f30x_tim.o (symbol from plugin)
TIM_OCStructInit                                  obj/main/SPRACINGF3/stm32f30x_tim.o (symbol from plugin)
                                                  obj/main/SPRACINGF3/drivers/light_ws2811strip_stm32f30x.o (symbol from plugin)
                                                  obj/main/SPRACINGF3/drivers/pwm_output.o (symbol from plugin)
                                                  obj/main/SPRACINGF3/drivers/timer.o (symbol from plugin)
TIM_PWMIConfig                                    obj/main/SPRACINGF3/stm32f30x_tim.o (symbol from plugin)
TIM_PrescalerConfig                               obj/main/SPRACINGF3/stm32f30x_tim.o (symbol from plugin)
TIM_RemapConfig                                   obj/main/SPRACINGF3/stm32f30x_tim.o (symbol from plugin)
TIM_SelectCCDMA                                   obj/main/SPRACINGF3/stm32f30x_tim.o (symbol from plugin)
TIM_SelectCOM                                     obj/main/SPRACINGF3/stm32f30x_tim.o (symbol from plugin)
TIM_SelectGC5C1                                   obj/main/SPRACINGF3/stm32f30x_tim.o (symbol from plugin)
TIM_SelectGC5C2                                   obj/main/SPRACINGF3/stm32f30x_tim.o (symbol from plugin)
TIM_SelectGC5C3                                   obj/main/SPRACINGF3/stm32f30x_tim.o (symbol from plugin)
TIM_SelectHallSensor                              obj/main/SPRACINGF3/stm32f30x_tim.o (symbol from plugin)
TIM_SelectInputTrigger                            obj/main/SPRACINGF3/stm32f30x_tim.o (symbol from plugin)
TIM_SelectMasterSlaveMode                         obj/main/SPRACINGF3/stm32f30x_tim.o (symbol from plugin)
TIM_SelectOCREFClear                              obj/main/SPRACINGF3/stm32f30x_tim.o (symbol from plugin)
TIM_SelectOCxM                                    obj/main/SPRACINGF3/stm32f30x_tim.o (symbol from plugin)
TIM_SelectOCxM_NoDisable                          obj/main/SPRACINGF3/drivers/timer_stm32f30x.o (symbol from plugin)
TIM_SelectOnePulseMode                            obj/main/SPRACINGF3/stm32f30x_tim.o (symbol from plugin)
TIM_SelectOutputTrigger                           obj/main/SPRACINGF3/stm32f30x_tim.o (symbol from plugin)
TIM_SelectOutputTrigger2                          obj/main/SPRACINGF3/stm32f30x_tim.o (symbol from plugin)
TIM_SelectSlaveMode                               obj/main/SPRACINGF3/stm32f30x_tim.o (symbol from plugin)
TIM_SetAutoreload                                 obj/main/SPRACINGF3/stm32f30x_tim.o (symbol from plugin)
TIM_SetClockDivision                              obj/main/SPRACINGF3/stm32f30x_tim.o (symbol from plugin)
TIM_SetCompare1                                   obj/main/SPRACINGF3/stm32f30x_tim.o (symbol from plugin)
TIM_SetCompare2                                   obj/main/SPRACINGF3/stm32f30x_tim.o (symbol from plugin)
TIM_SetCompare3                                   obj/main/SPRACINGF3/stm32f30x_tim.o (symbol from plugin)
TIM_SetCompare4                                   obj/main/SPRACINGF3/stm32f30x_tim.o (symbol from plugin)
TIM_SetCompare5                                   obj/main/SPRACINGF3/stm32f30x_tim.o (symbol from plugin)
TIM_SetCompare6                                   obj/main/SPRACINGF3/stm32f30x_tim.o (symbol from plugin)
TIM_SetCounter                                    obj/main/SPRACINGF3/stm32f30x_tim.o (symbol from plugin)
                                                  obj/main/SPRACINGF3/drivers/serial_softserial.o (symbol from plugin)
                                                  obj/main/SPRACINGF3/drivers/light_ws2811strip_stm32f30x.o (symbol from plugin)
TIM_SetIC1Prescaler                               obj/main/SPRACINGF3/stm32f30x_tim.o (symbol from plugin)
TIM_SetIC2Prescaler                               obj/main/SPRACINGF3/stm32f30x_tim.o (symbol from plugin)
TIM_SetIC3Prescaler                               obj/main/SPRACINGF3/stm32f30x_tim.o (symbol from plugin)
TIM_SetIC4Prescaler                               obj/main/SPRACINGF3/stm32f30x_tim.o (symbol from plugin)
TIM_TIxExternalClockConfig                        obj/main/SPRACINGF3/stm32f30x_tim.o (symbol from plugin)
TIM_TimeBaseInit                                  obj/main/SPRACINGF3/stm32f30x_tim.o (symbol from plugin)
                                                  obj/main/SPRACINGF3/drivers/light_ws2811strip_stm32f30x.o (symbol from plugin)
                                                  obj/main/SPRACINGF3/drivers/timer.o (symbol from plugin)
TIM_TimeBaseStructInit                            obj/main/SPRACINGF3/stm32f30x_tim.o (symbol from plugin)
                                                  obj/main/SPRACINGF3/drivers/light_ws2811strip_stm32f30x.o (symbol from plugin)
                                                  obj/main/SPRACINGF3/drivers/timer.o (symbol from plugin)
TIM_UIFRemap                                      obj/main/SPRACINGF3/stm32f30x_tim.o (symbol from plugin)
TIM_UpdateDisableConfig                           obj/main/SPRACINGF3/stm32f30x_tim.o (symbol from plugin)
TIM_UpdateRequestConfig                           obj/main/SPRACINGF3/stm32f30x_tim.o (symbol from plugin)
TXData                                            obj/main/SPRACINGF3/drivers/nrf2401.o (symbol from plugin)
TX_ADDRESS                                        obj/main/SPRACINGF3/drivers/nrf2401.o (symbol from plugin)
UART4_IRQHandler                                  obj/main/SPRACINGF3/startup_stm32f30x_md_gcc.o
UART5_IRQHandler                                  obj/main/SPRACINGF3/startup_stm32f30x_md_gcc.o
USART1_IRQHandler                                 /var/folders/qz/8dvj07d52mjgthd1ds8wvf400000gn/T//ccg5ycur.ltrans3.ltrans.o
                                                  obj/main/SPRACINGF3/drivers/serial_uart_stm32f30x.o (symbol from plugin)
                                                  obj/main/SPRACINGF3/startup_stm32f30x_md_gcc.o
USART2_IRQHandler                                 /var/folders/qz/8dvj07d52mjgthd1ds8wvf400000gn/T//ccg5ycur.ltrans3.ltrans.o
                                                  obj/main/SPRACINGF3/drivers/serial_uart_stm32f30x.o (symbol from plugin)
                                                  obj/main/SPRACINGF3/startup_stm32f30x_md_gcc.o
USART3_IRQHandler                                 /var/folders/qz/8dvj07d52mjgthd1ds8wvf400000gn/T//ccg5ycur.ltrans3.ltrans.o
                                                  obj/main/SPRACINGF3/drivers/serial_uart_stm32f30x.o (symbol from plugin)
                                                  obj/main/SPRACINGF3/startup_stm32f30x_md_gcc.o
USART_AddressDetectionConfig                      obj/main/SPRACINGF3/stm32f30x_usart.o (symbol from plugin)
USART_AutoBaudRateCmd                             obj/main/SPRACINGF3/stm32f30x_usart.o (symbol from plugin)
USART_AutoBaudRateConfig                          obj/main/SPRACINGF3/stm32f30x_usart.o (symbol from plugin)
USART_ClearFlag                                   obj/main/SPRACINGF3/stm32f30x_usart.o (symbol from plugin)
USART_ClearITPendingBit                           obj/main/SPRACINGF3/stm32f30x_usart.o (symbol from plugin)
                                                  obj/main/SPRACINGF3/drivers/serial_uart_stm32f30x.o (symbol from plugin)
                                                  obj/main/SPRACINGF3/drivers/serial_uart.o (symbol from plugin)
USART_ClockInit                                   obj/main/SPRACINGF3/stm32f30x_usart.o (symbol from plugin)
USART_ClockStructInit                             obj/main/SPRACINGF3/stm32f30x_usart.o (symbol from plugin)
USART_Cmd                                         obj/main/SPRACINGF3/stm32f30x_usart.o (symbol from plugin)
                                                  obj/main/SPRACINGF3/drivers/serial_uart.o (symbol from plugin)
USART_DECmd                                       obj/main/SPRACINGF3/stm32f30x_usart.o (symbol from plugin)
USART_DEPolarityConfig                            obj/main/SPRACINGF3/stm32f30x_usart.o (symbol from plugin)
USART_DMACmd                                      obj/main/SPRACINGF3/stm32f30x_usart.o (symbol from plugin)
                                                  obj/main/SPRACINGF3/drivers/serial_uart.o (symbol from plugin)
USART_DMAReceptionErrorConfig                     obj/main/SPRACINGF3/stm32f30x_usart.o (symbol from plugin)
USART_DataInvCmd                                  obj/main/SPRACINGF3/stm32f30x_usart.o (symbol from plugin)
USART_DeInit                                      obj/main/SPRACINGF3/stm32f30x_usart.o (symbol from plugin)
USART_DirectionModeCmd                            obj/main/SPRACINGF3/stm32f30x_usart.o (symbol from plugin)
USART_GetFlagStatus                               obj/main/SPRACINGF3/stm32f30x_usart.o (symbol from plugin)
USART_GetITStatus                                 obj/main/SPRACINGF3/stm32f30x_usart.o (symbol from plugin)
USART_HalfDuplexCmd                               obj/main/SPRACINGF3/stm32f30x_usart.o (symbol from plugin)
                                                  obj/main/SPRACINGF3/drivers/serial_uart.o (symbol from plugin)
USART_ITConfig                                    obj/main/SPRACINGF3/stm32f30x_usart.o (symbol from plugin)
                                                  obj/main/SPRACINGF3/drivers/serial_uart_stm32f30x.o (symbol from plugin)
                                                  obj/main/SPRACINGF3/drivers/serial_uart.o (symbol from plugin)
USART_Init                                        obj/main/SPRACINGF3/stm32f30x_usart.o (symbol from plugin)
                                                  obj/main/SPRACINGF3/drivers/serial_uart.o (symbol from plugin)
USART_InvPinCmd                                   obj/main/SPRACINGF3/stm32f30x_usart.o (symbol from plugin)
                                                  obj/main/SPRACINGF3/drivers/serial_uart.o (symbol from plugin)
USART_IrDACmd                                     obj/main/SPRACINGF3/stm32f30x_usart.o (symbol from plugin)
USART_IrDAConfig                                  obj/main/SPRACINGF3/stm32f30x_usart.o (symbol from plugin)
USART_LINBreakDetectLengthConfig                  obj/main/SPRACINGF3/stm32f30x_usart.o (symbol from plugin)
USART_LINCmd                                      obj/main/SPRACINGF3/stm32f30x_usart.o (symbol from plugin)
USART_MSBFirstCmd                                 obj/main/SPRACINGF3/stm32f30x_usart.o (symbol from plugin)
USART_MuteModeCmd                                 obj/main/SPRACINGF3/stm32f30x_usart.o (symbol from plugin)
USART_MuteModeWakeUpConfig                        obj/main/SPRACINGF3/stm32f30x_usart.o (symbol from plugin)
USART_OneBitMethodCmd                             obj/main/SPRACINGF3/stm32f30x_usart.o (symbol from plugin)
USART_OverSampling8Cmd                            obj/main/SPRACINGF3/stm32f30x_usart.o (symbol from plugin)
USART_OverrunDetectionConfig                      obj/main/SPRACINGF3/stm32f30x_usart.o (symbol from plugin)
USART_ReceiveData                                 obj/main/SPRACINGF3/stm32f30x_usart.o (symbol from plugin)
USART_ReceiverTimeOutCmd                          obj/main/SPRACINGF3/stm32f30x_usart.o (symbol from plugin)
USART_RequestCmd                                  obj/main/SPRACINGF3/stm32f30x_usart.o (symbol from plugin)
USART_STOPModeCmd                                 obj/main/SPRACINGF3/stm32f30x_usart.o (symbol from plugin)
USART_SWAPPinCmd                                  obj/main/SPRACINGF3/stm32f30x_usart.o (symbol from plugin)
USART_SendData                                    obj/main/SPRACINGF3/stm32f30x_usart.o (symbol from plugin)
                                                  obj/main/SPRACINGF3/drivers/serial_uart_stm32f30x.o (symbol from plugin)
USART_SetAddress                                  obj/main/SPRACINGF3/stm32f30x_usart.o (symbol from plugin)
USART_SetAutoRetryCount                           obj/main/SPRACINGF3/stm32f30x_usart.o (symbol from plugin)
USART_SetBlockLength                              obj/main/SPRACINGF3/stm32f30x_usart.o (symbol from plugin)
USART_SetDEAssertionTime                          obj/main/SPRACINGF3/stm32f30x_usart.o (symbol from plugin)
USART_SetDEDeassertionTime                        obj/main/SPRACINGF3/stm32f30x_usart.o (symbol from plugin)
USART_SetGuardTime                                obj/main/SPRACINGF3/stm32f30x_usart.o (symbol from plugin)
USART_SetPrescaler                                obj/main/SPRACINGF3/stm32f30x_usart.o (symbol from plugin)
USART_SetReceiverTimeOut                          obj/main/SPRACINGF3/stm32f30x_usart.o (symbol from plugin)
USART_SmartCardCmd                                obj/main/SPRACINGF3/stm32f30x_usart.o (symbol from plugin)
USART_SmartCardNACKCmd                            obj/main/SPRACINGF3/stm32f30x_usart.o (symbol from plugin)
USART_StopModeWakeUpSourceConfig                  obj/main/SPRACINGF3/stm32f30x_usart.o (symbol from plugin)
USART_StructInit                                  obj/main/SPRACINGF3/stm32f30x_usart.o (symbol from plugin)
USBWakeUp_IRQHandler                              obj/main/SPRACINGF3/startup_stm32f30x_md_gcc.o
USBWakeUp_RMP_IRQHandler                          obj/main/SPRACINGF3/startup_stm32f30x_md_gcc.o
USB_HP_CAN1_TX_IRQHandler                         obj/main/SPRACINGF3/startup_stm32f30x_md_gcc.o
USB_HP_IRQHandler                                 obj/main/SPRACINGF3/startup_stm32f30x_md_gcc.o
USB_LP_CAN1_RX0_IRQHandler                        obj/main/SPRACINGF3/startup_stm32f30x_md_gcc.o
USB_LP_IRQHandler                                 obj/main/SPRACINGF3/startup_stm32f30x_md_gcc.o
UsageFault_Handler                                obj/main/SPRACINGF3/startup_stm32f30x_md_gcc.o
WIFI_DATA_OK                                      obj/main/SPRACINGF3/drivers/app.o (symbol from plugin)
                                                  obj/main/SPRACINGF3/drivers/nrf2401.o (symbol from plugin)
                                                  obj/main/SPRACINGF3/rx/rx.o (symbol from plugin)
WWDG_ClearFlag                                    obj/main/SPRACINGF3/stm32f30x_wwdg.o (symbol from plugin)
WWDG_DeInit                                       obj/main/SPRACINGF3/stm32f30x_wwdg.o (symbol from plugin)
WWDG_Enable                                       obj/main/SPRACINGF3/stm32f30x_wwdg.o (symbol from plugin)
WWDG_EnableIT                                     obj/main/SPRACINGF3/stm32f30x_wwdg.o (symbol from plugin)
WWDG_GetFlagStatus                                obj/main/SPRACINGF3/stm32f30x_wwdg.o (symbol from plugin)
WWDG_IRQHandler                                   obj/main/SPRACINGF3/startup_stm32f30x_md_gcc.o
WWDG_SetCounter                                   obj/main/SPRACINGF3/stm32f30x_wwdg.o (symbol from plugin)
WWDG_SetPrescaler                                 obj/main/SPRACINGF3/stm32f30x_wwdg.o (symbol from plugin)
WWDG_SetWindowValue                               obj/main/SPRACINGF3/stm32f30x_wwdg.o (symbol from plugin)
_CMD_LOAD_ADDRESS.isra.1.lto_priv.166             /var/folders/qz/8dvj07d52mjgthd1ds8wvf400000gn/T//ccg5ycur.ltrans5.ltrans.o
                                                  /var/folders/qz/8dvj07d52mjgthd1ds8wvf400000gn/T//ccg5ycur.ltrans13.ltrans.o
_CMD_PROGRAM_MEM_ISP.lto_priv.167                 /var/folders/qz/8dvj07d52mjgthd1ds8wvf400000gn/T//ccg5ycur.ltrans15.ltrans.o
                                                  /var/folders/qz/8dvj07d52mjgthd1ds8wvf400000gn/T//ccg5ycur.ltrans13.ltrans.o
_CMD_READ_MEM_ISP.lto_priv.169                    /var/folders/qz/8dvj07d52mjgthd1ds8wvf400000gn/T//ccg5ycur.ltrans15.ltrans.o
                                                  /var/folders/qz/8dvj07d52mjgthd1ds8wvf400000gn/T//ccg5ycur.ltrans13.ltrans.o
_PathLocale                                       /opt/gcc-arm-none-eabi-5_4-2016q3/bin/../lib/gcc/arm-none-eabi/5.4.1/../../../../arm-none-eabi/lib/armv7e-m/fpu/libc_nano.a(lib_a-locale.o)
__adddf3                                          /opt/gcc-arm-none-eabi-5_4-2016q3/bin/../lib/gcc/arm-none-eabi/5.4.1/armv7e-m/fpu/libgcc.a(_arm_addsubdf3.o)
__aeabi_cdcmpeq                                   /opt/gcc-arm-none-eabi-5_4-2016q3/bin/../lib/gcc/arm-none-eabi/5.4.1/armv7e-m/fpu/libgcc.a(_arm_cmpdf2.o)
__aeabi_cdcmple                                   /opt/gcc-arm-none-eabi-5_4-2016q3/bin/../lib/gcc/arm-none-eabi/5.4.1/armv7e-m/fpu/libgcc.a(_arm_cmpdf2.o)
__aeabi_cdrcmple                                  /opt/gcc-arm-none-eabi-5_4-2016q3/bin/../lib/gcc/arm-none-eabi/5.4.1/armv7e-m/fpu/libgcc.a(_arm_cmpdf2.o)
__aeabi_d2f                                       /opt/gcc-arm-none-eabi-5_4-2016q3/bin/../lib/gcc/arm-none-eabi/5.4.1/armv7e-m/fpu/libgcc.a(_arm_truncdfsf2.o)
                                                  /opt/gcc-arm-none-eabi-5_4-2016q3/bin/../lib/gcc/arm-none-eabi/5.4.1/../../../../arm-none-eabi/lib/armv7e-m/fpu/libm.a(lib_a-wf_sqrt.o)
                                                  /var/folders/qz/8dvj07d52mjgthd1ds8wvf400000gn/T//ccg5ycur.ltrans11.ltrans.o
__aeabi_dadd                                      /opt/gcc-arm-none-eabi-5_4-2016q3/bin/../lib/gcc/arm-none-eabi/5.4.1/armv7e-m/fpu/libgcc.a(_arm_addsubdf3.o)
                                                  /opt/gcc-arm-none-eabi-5_4-2016q3/bin/../lib/gcc/arm-none-eabi/5.4.1/../../../../arm-none-eabi/lib/armv7e-m/fpu/libm.a(lib_a-s_scalbn.o)
                                                  /opt/gcc-arm-none-eabi-5_4-2016q3/bin/../lib/gcc/arm-none-eabi/5.4.1/../../../../arm-none-eabi/lib/armv7e-m/fpu/libm.a(lib_a-s_rint.o)
                                                  /opt/gcc-arm-none-eabi-5_4-2016q3/bin/../lib/gcc/arm-none-eabi/5.4.1/../../../../arm-none-eabi/lib/armv7e-m/fpu/libm.a(lib_a-e_sqrt.o)
                                                  /opt/gcc-arm-none-eabi-5_4-2016q3/bin/../lib/gcc/arm-none-eabi/5.4.1/../../../../arm-none-eabi/lib/armv7e-m/fpu/libm.a(lib_a-e_pow.o)
__aeabi_dcmpeq                                    /opt/gcc-arm-none-eabi-5_4-2016q3/bin/../lib/gcc/arm-none-eabi/5.4.1/armv7e-m/fpu/libgcc.a(_arm_cmpdf2.o)
                                                  /opt/gcc-arm-none-eabi-5_4-2016q3/bin/../lib/gcc/arm-none-eabi/5.4.1/../../../../arm-none-eabi/lib/armv7e-m/fpu/libm.a(lib_a-w_pow.o)
__aeabi_dcmpge                                    /opt/gcc-arm-none-eabi-5_4-2016q3/bin/../lib/gcc/arm-none-eabi/5.4.1/armv7e-m/fpu/libgcc.a(_arm_cmpdf2.o)
__aeabi_dcmpgt                                    /opt/gcc-arm-none-eabi-5_4-2016q3/bin/../lib/gcc/arm-none-eabi/5.4.1/armv7e-m/fpu/libgcc.a(_arm_cmpdf2.o)
                                                  /opt/gcc-arm-none-eabi-5_4-2016q3/bin/../lib/gcc/arm-none-eabi/5.4.1/../../../../arm-none-eabi/lib/armv7e-m/fpu/libm.a(lib_a-e_pow.o)
                                                  /var/folders/qz/8dvj07d52mjgthd1ds8wvf400000gn/T//ccg5ycur.ltrans2.ltrans.o
__aeabi_dcmple                                    /opt/gcc-arm-none-eabi-5_4-2016q3/bin/../lib/gcc/arm-none-eabi/5.4.1/armv7e-m/fpu/libgcc.a(_arm_cmpdf2.o)
                                                  /opt/gcc-arm-none-eabi-5_4-2016q3/bin/../lib/gcc/arm-none-eabi/5.4.1/../../../../arm-none-eabi/lib/armv7e-m/fpu/libm.a(lib_a-e_pow.o)
__aeabi_dcmplt                                    /opt/gcc-arm-none-eabi-5_4-2016q3/bin/../lib/gcc/arm-none-eabi/5.4.1/armv7e-m/fpu/libgcc.a(_arm_cmpdf2.o)
                                                  /opt/gcc-arm-none-eabi-5_4-2016q3/bin/../lib/gcc/arm-none-eabi/5.4.1/../../../../arm-none-eabi/lib/armv7e-m/fpu/libm.a(lib_a-w_pow.o)
__aeabi_dcmpun                                    /opt/gcc-arm-none-eabi-5_4-2016q3/bin/../lib/gcc/arm-none-eabi/5.4.1/armv7e-m/fpu/libgcc.a(_arm_unorddf2.o)
                                                  /opt/gcc-arm-none-eabi-5_4-2016q3/bin/../lib/gcc/arm-none-eabi/5.4.1/../../../../arm-none-eabi/lib/armv7e-m/fpu/libm.a(lib_a-w_pow.o)
__aeabi_ddiv                                      /opt/gcc-arm-none-eabi-5_4-2016q3/bin/../lib/gcc/arm-none-eabi/5.4.1/armv7e-m/fpu/libgcc.a(_arm_muldivdf3.o)
                                                  /opt/gcc-arm-none-eabi-5_4-2016q3/bin/../lib/gcc/arm-none-eabi/5.4.1/../../../../arm-none-eabi/lib/armv7e-m/fpu/libm.a(lib_a-e_sqrt.o)
                                                  /opt/gcc-arm-none-eabi-5_4-2016q3/bin/../lib/gcc/arm-none-eabi/5.4.1/../../../../arm-none-eabi/lib/armv7e-m/fpu/libm.a(lib_a-e_pow.o)
                                                  /opt/gcc-arm-none-eabi-5_4-2016q3/bin/../lib/gcc/arm-none-eabi/5.4.1/../../../../arm-none-eabi/lib/armv7e-m/fpu/libm.a(lib_a-wf_sqrt.o)
                                                  /opt/gcc-arm-none-eabi-5_4-2016q3/bin/../lib/gcc/arm-none-eabi/5.4.1/../../../../arm-none-eabi/lib/armv7e-m/fpu/libm.a(lib_a-w_pow.o)
__aeabi_dmul                                      /opt/gcc-arm-none-eabi-5_4-2016q3/bin/../lib/gcc/arm-none-eabi/5.4.1/armv7e-m/fpu/libgcc.a(_arm_muldivdf3.o)
                                                  /opt/gcc-arm-none-eabi-5_4-2016q3/bin/../lib/gcc/arm-none-eabi/5.4.1/../../../../arm-none-eabi/lib/armv7e-m/fpu/libm.a(lib_a-s_scalbn.o)
                                                  /opt/gcc-arm-none-eabi-5_4-2016q3/bin/../lib/gcc/arm-none-eabi/5.4.1/../../../../arm-none-eabi/lib/armv7e-m/fpu/libm.a(lib_a-e_sqrt.o)
                                                  /opt/gcc-arm-none-eabi-5_4-2016q3/bin/../lib/gcc/arm-none-eabi/5.4.1/../../../../arm-none-eabi/lib/armv7e-m/fpu/libm.a(lib_a-e_pow.o)
                                                  /opt/gcc-arm-none-eabi-5_4-2016q3/bin/../lib/gcc/arm-none-eabi/5.4.1/../../../../arm-none-eabi/lib/armv7e-m/fpu/libm.a(lib_a-w_pow.o)
                                                  /var/folders/qz/8dvj07d52mjgthd1ds8wvf400000gn/T//ccg5ycur.ltrans11.ltrans.o
__aeabi_drsub                                     /opt/gcc-arm-none-eabi-5_4-2016q3/bin/../lib/gcc/arm-none-eabi/5.4.1/armv7e-m/fpu/libgcc.a(_arm_addsubdf3.o)
__aeabi_dsub                                      /opt/gcc-arm-none-eabi-5_4-2016q3/bin/../lib/gcc/arm-none-eabi/5.4.1/armv7e-m/fpu/libgcc.a(_arm_addsubdf3.o)
                                                  /opt/gcc-arm-none-eabi-5_4-2016q3/bin/../lib/gcc/arm-none-eabi/5.4.1/../../../../arm-none-eabi/lib/armv7e-m/fpu/libm.a(lib_a-s_rint.o)
                                                  /opt/gcc-arm-none-eabi-5_4-2016q3/bin/../lib/gcc/arm-none-eabi/5.4.1/../../../../arm-none-eabi/lib/armv7e-m/fpu/libm.a(lib_a-e_sqrt.o)
                                                  /opt/gcc-arm-none-eabi-5_4-2016q3/bin/../lib/gcc/arm-none-eabi/5.4.1/../../../../arm-none-eabi/lib/armv7e-m/fpu/libm.a(lib_a-e_pow.o)
                                                  /var/folders/qz/8dvj07d52mjgthd1ds8wvf400000gn/T//ccg5ycur.ltrans11.ltrans.o
__aeabi_f2d                                       /opt/gcc-arm-none-eabi-5_4-2016q3/bin/../lib/gcc/arm-none-eabi/5.4.1/armv7e-m/fpu/libgcc.a(_arm_addsubdf3.o)
                                                  /opt/gcc-arm-none-eabi-5_4-2016q3/bin/../lib/gcc/arm-none-eabi/5.4.1/../../../../arm-none-eabi/lib/armv7e-m/fpu/libm.a(lib_a-wf_sqrt.o)
                                                  /var/folders/qz/8dvj07d52mjgthd1ds8wvf400000gn/T//ccg5ycur.ltrans11.ltrans.o
__aeabi_i2d                                       /opt/gcc-arm-none-eabi-5_4-2016q3/bin/../lib/gcc/arm-none-eabi/5.4.1/armv7e-m/fpu/libgcc.a(_arm_addsubdf3.o)
                                                  /opt/gcc-arm-none-eabi-5_4-2016q3/bin/../lib/gcc/arm-none-eabi/5.4.1/../../../../arm-none-eabi/lib/armv7e-m/fpu/libm.a(lib_a-e_pow.o)
                                                  /var/folders/qz/8dvj07d52mjgthd1ds8wvf400000gn/T//ccg5ycur.ltrans2.ltrans.o
__aeabi_idiv0                                     /opt/gcc-arm-none-eabi-5_4-2016q3/bin/../lib/gcc/arm-none-eabi/5.4.1/armv7e-m/fpu/libgcc.a(_dvmd_tls.o)
__aeabi_l2d                                       /opt/gcc-arm-none-eabi-5_4-2016q3/bin/../lib/gcc/arm-none-eabi/5.4.1/armv7e-m/fpu/libgcc.a(_arm_addsubdf3.o)
__aeabi_ldiv0                                     /opt/gcc-arm-none-eabi-5_4-2016q3/bin/../lib/gcc/arm-none-eabi/5.4.1/armv7e-m/fpu/libgcc.a(_dvmd_tls.o)
                                                  /opt/gcc-arm-none-eabi-5_4-2016q3/bin/../lib/gcc/arm-none-eabi/5.4.1/armv7e-m/fpu/libgcc.a(_aeabi_ldivmod.o)
__aeabi_ldivmod                                   /opt/gcc-arm-none-eabi-5_4-2016q3/bin/../lib/gcc/arm-none-eabi/5.4.1/armv7e-m/fpu/libgcc.a(_aeabi_ldivmod.o)
                                                  /var/folders/qz/8dvj07d52mjgthd1ds8wvf400000gn/T//ccg5ycur.ltrans12.ltrans.o
__aeabi_ui2d                                      /opt/gcc-arm-none-eabi-5_4-2016q3/bin/../lib/gcc/arm-none-eabi/5.4.1/armv7e-m/fpu/libgcc.a(_arm_addsubdf3.o)
__aeabi_ul2d                                      /opt/gcc-arm-none-eabi-5_4-2016q3/bin/../lib/gcc/arm-none-eabi/5.4.1/armv7e-m/fpu/libgcc.a(_arm_addsubdf3.o)
__ascii_mbtowc                                    /opt/gcc-arm-none-eabi-5_4-2016q3/bin/../lib/gcc/arm-none-eabi/5.4.1/../../../../arm-none-eabi/lib/armv7e-m/fpu/libc_nano.a(lib_a-mbtowc_r.o)
                                                  /opt/gcc-arm-none-eabi-5_4-2016q3/bin/../lib/gcc/arm-none-eabi/5.4.1/../../../../arm-none-eabi/lib/armv7e-m/fpu/libc_nano.a(lib_a-locale.o)
__ascii_wctomb                                    /opt/gcc-arm-none-eabi-5_4-2016q3/bin/../lib/gcc/arm-none-eabi/5.4.1/../../../../arm-none-eabi/lib/armv7e-m/fpu/libc_nano.a(lib_a-wctomb_r.o)
                                                  /opt/gcc-arm-none-eabi-5_4-2016q3/bin/../lib/gcc/arm-none-eabi/5.4.1/../../../../arm-none-eabi/lib/armv7e-m/fpu/libc_nano.a(lib_a-locale.o)
__cmpdf2                                          /opt/gcc-arm-none-eabi-5_4-2016q3/bin/../lib/gcc/arm-none-eabi/5.4.1/armv7e-m/fpu/libgcc.a(_arm_cmpdf2.o)
__config_end                                      /var/folders/qz/8dvj07d52mjgthd1ds8wvf400000gn/T//ccg5ycur.ltrans8.ltrans.o
                                                  /var/folders/qz/8dvj07d52mjgthd1ds8wvf400000gn/T//ccg5ycur.ltrans7.ltrans.o
                                                  obj/main/SPRACINGF3/config/config_eeprom.o (symbol from plugin)
__config_start                                    /var/folders/qz/8dvj07d52mjgthd1ds8wvf400000gn/T//ccg5ycur.ltrans8.ltrans.o
                                                  /var/folders/qz/8dvj07d52mjgthd1ds8wvf400000gn/T//ccg5ycur.ltrans7.ltrans.o
                                                  /var/folders/qz/8dvj07d52mjgthd1ds8wvf400000gn/T//ccg5ycur.ltrans0.ltrans.o
                                                  obj/main/SPRACINGF3/config/config_eeprom.o (symbol from plugin)
__divdf3                                          /opt/gcc-arm-none-eabi-5_4-2016q3/bin/../lib/gcc/arm-none-eabi/5.4.1/armv7e-m/fpu/libgcc.a(_arm_muldivdf3.o)
__eqdf2                                           /opt/gcc-arm-none-eabi-5_4-2016q3/bin/../lib/gcc/arm-none-eabi/5.4.1/armv7e-m/fpu/libgcc.a(_arm_cmpdf2.o)
__errno                                           /opt/gcc-arm-none-eabi-5_4-2016q3/bin/../lib/gcc/arm-none-eabi/5.4.1/../../../../arm-none-eabi/lib/armv7e-m/fpu/libc_nano.a(lib_a-errno.o)
                                                  /opt/gcc-arm-none-eabi-5_4-2016q3/bin/../lib/gcc/arm-none-eabi/5.4.1/../../../../arm-none-eabi/lib/armv7e-m/fpu/libm.a(lib_a-wf_sqrt.o)
                                                  /opt/gcc-arm-none-eabi-5_4-2016q3/bin/../lib/gcc/arm-none-eabi/5.4.1/../../../../arm-none-eabi/lib/armv7e-m/fpu/libm.a(lib_a-w_pow.o)
__extendsfdf2                                     /opt/gcc-arm-none-eabi-5_4-2016q3/bin/../lib/gcc/arm-none-eabi/5.4.1/armv7e-m/fpu/libgcc.a(_arm_addsubdf3.o)
__fdlib_version                                   /opt/gcc-arm-none-eabi-5_4-2016q3/bin/../lib/gcc/arm-none-eabi/5.4.1/../../../../arm-none-eabi/lib/armv7e-m/fpu/libm.a(lib_a-s_lib_ver.o)
                                                  /opt/gcc-arm-none-eabi-5_4-2016q3/bin/../lib/gcc/arm-none-eabi/5.4.1/../../../../arm-none-eabi/lib/armv7e-m/fpu/libm.a(lib_a-wf_sqrt.o)
                                                  /opt/gcc-arm-none-eabi-5_4-2016q3/bin/../lib/gcc/arm-none-eabi/5.4.1/../../../../arm-none-eabi/lib/armv7e-m/fpu/libm.a(lib_a-w_pow.o)
__floatdidf                                       /opt/gcc-arm-none-eabi-5_4-2016q3/bin/../lib/gcc/arm-none-eabi/5.4.1/armv7e-m/fpu/libgcc.a(_arm_addsubdf3.o)
__floatsidf                                       /opt/gcc-arm-none-eabi-5_4-2016q3/bin/../lib/gcc/arm-none-eabi/5.4.1/armv7e-m/fpu/libgcc.a(_arm_addsubdf3.o)
__floatundidf                                     /opt/gcc-arm-none-eabi-5_4-2016q3/bin/../lib/gcc/arm-none-eabi/5.4.1/armv7e-m/fpu/libgcc.a(_arm_addsubdf3.o)
__floatunsidf                                     /opt/gcc-arm-none-eabi-5_4-2016q3/bin/../lib/gcc/arm-none-eabi/5.4.1/armv7e-m/fpu/libgcc.a(_arm_addsubdf3.o)
__gedf2                                           /opt/gcc-arm-none-eabi-5_4-2016q3/bin/../lib/gcc/arm-none-eabi/5.4.1/armv7e-m/fpu/libgcc.a(_arm_cmpdf2.o)
__global_locale                                   /opt/gcc-arm-none-eabi-5_4-2016q3/bin/../lib/gcc/arm-none-eabi/5.4.1/../../../../arm-none-eabi/lib/armv7e-m/fpu/libc_nano.a(lib_a-locale.o)
                                                  /opt/gcc-arm-none-eabi-5_4-2016q3/bin/../lib/gcc/arm-none-eabi/5.4.1/../../../../arm-none-eabi/lib/armv7e-m/fpu/libc_nano.a(lib_a-wctomb_r.o)
                                                  /opt/gcc-arm-none-eabi-5_4-2016q3/bin/../lib/gcc/arm-none-eabi/5.4.1/../../../../arm-none-eabi/lib/armv7e-m/fpu/libc_nano.a(lib_a-strtol.o)
                                                  /opt/gcc-arm-none-eabi-5_4-2016q3/bin/../lib/gcc/arm-none-eabi/5.4.1/../../../../arm-none-eabi/lib/armv7e-m/fpu/libc_nano.a(lib_a-mbtowc_r.o)
__gtdf2                                           /opt/gcc-arm-none-eabi-5_4-2016q3/bin/../lib/gcc/arm-none-eabi/5.4.1/armv7e-m/fpu/libgcc.a(_arm_cmpdf2.o)
__ieee754_pow                                     /opt/gcc-arm-none-eabi-5_4-2016q3/bin/../lib/gcc/arm-none-eabi/5.4.1/../../../../arm-none-eabi/lib/armv7e-m/fpu/libm.a(lib_a-e_pow.o)
                                                  /opt/gcc-arm-none-eabi-5_4-2016q3/bin/../lib/gcc/arm-none-eabi/5.4.1/../../../../arm-none-eabi/lib/armv7e-m/fpu/libm.a(lib_a-w_pow.o)
__ieee754_sqrt                                    /opt/gcc-arm-none-eabi-5_4-2016q3/bin/../lib/gcc/arm-none-eabi/5.4.1/../../../../arm-none-eabi/lib/armv7e-m/fpu/libm.a(lib_a-e_sqrt.o)
                                                  /opt/gcc-arm-none-eabi-5_4-2016q3/bin/../lib/gcc/arm-none-eabi/5.4.1/../../../../arm-none-eabi/lib/armv7e-m/fpu/libm.a(lib_a-e_pow.o)
__ieee754_sqrtf                                   /opt/gcc-arm-none-eabi-5_4-2016q3/bin/../lib/gcc/arm-none-eabi/5.4.1/../../../../arm-none-eabi/lib/armv7e-m/fpu/libm.a(lib_a-ef_sqrt.o)
                                                  /opt/gcc-arm-none-eabi-5_4-2016q3/bin/../lib/gcc/arm-none-eabi/5.4.1/../../../../arm-none-eabi/lib/armv7e-m/fpu/libm.a(lib_a-wf_sqrt.o)
__ledf2                                           /opt/gcc-arm-none-eabi-5_4-2016q3/bin/../lib/gcc/arm-none-eabi/5.4.1/armv7e-m/fpu/libgcc.a(_arm_cmpdf2.o)
__locale_ctype_ptr                                /opt/gcc-arm-none-eabi-5_4-2016q3/bin/../lib/gcc/arm-none-eabi/5.4.1/../../../../arm-none-eabi/lib/armv7e-m/fpu/libc_nano.a(lib_a-locale.o)
                                                  /opt/gcc-arm-none-eabi-5_4-2016q3/bin/../lib/gcc/arm-none-eabi/5.4.1/../../../../arm-none-eabi/lib/armv7e-m/fpu/libc_nano.a(lib_a-strncasecmp.o)
                                                  /opt/gcc-arm-none-eabi-5_4-2016q3/bin/../lib/gcc/arm-none-eabi/5.4.1/../../../../arm-none-eabi/lib/armv7e-m/fpu/libc_nano.a(lib_a-strcasecmp.o)
                                                  /var/folders/qz/8dvj07d52mjgthd1ds8wvf400000gn/T//ccg5ycur.ltrans12.ltrans.o
                                                  /var/folders/qz/8dvj07d52mjgthd1ds8wvf400000gn/T//ccg5ycur.ltrans5.ltrans.o
                                                  obj/main/SPRACINGF3/io/serial_cli.o (symbol from plugin)
__locale_ctype_ptr_l                              /opt/gcc-arm-none-eabi-5_4-2016q3/bin/../lib/gcc/arm-none-eabi/5.4.1/../../../../arm-none-eabi/lib/armv7e-m/fpu/libc_nano.a(lib_a-locale.o)
                                                  /opt/gcc-arm-none-eabi-5_4-2016q3/bin/../lib/gcc/arm-none-eabi/5.4.1/../../../../arm-none-eabi/lib/armv7e-m/fpu/libc_nano.a(lib_a-strtol.o)
__locale_mb_cur_max                               /opt/gcc-arm-none-eabi-5_4-2016q3/bin/../lib/gcc/arm-none-eabi/5.4.1/../../../../arm-none-eabi/lib/armv7e-m/fpu/libc_nano.a(lib_a-locale.o)
__ltdf2                                           /opt/gcc-arm-none-eabi-5_4-2016q3/bin/../lib/gcc/arm-none-eabi/5.4.1/armv7e-m/fpu/libgcc.a(_arm_cmpdf2.o)
__muldf3                                          /opt/gcc-arm-none-eabi-5_4-2016q3/bin/../lib/gcc/arm-none-eabi/5.4.1/armv7e-m/fpu/libgcc.a(_arm_muldivdf3.o)
__nedf2                                           /opt/gcc-arm-none-eabi-5_4-2016q3/bin/../lib/gcc/arm-none-eabi/5.4.1/armv7e-m/fpu/libgcc.a(_arm_cmpdf2.o)
__pg_registry_end                                 /var/folders/qz/8dvj07d52mjgthd1ds8wvf400000gn/T//ccg5ycur.ltrans16.ltrans.o
                                                  /var/folders/qz/8dvj07d52mjgthd1ds8wvf400000gn/T//ccg5ycur.ltrans14.ltrans.o
                                                  /var/folders/qz/8dvj07d52mjgthd1ds8wvf400000gn/T//ccg5ycur.ltrans8.ltrans.o
                                                  /var/folders/qz/8dvj07d52mjgthd1ds8wvf400000gn/T//ccg5ycur.ltrans7.ltrans.o
                                                  obj/main/SPRACINGF3/config/config_eeprom.o (symbol from plugin)
                                                  obj/main/SPRACINGF3/config/parameter_group.o (symbol from plugin)
                                                  obj/main/SPRACINGF3/io/serial_cli.o (symbol from plugin)
                                                  obj/main/SPRACINGF3/fc/config.o (symbol from plugin)
__pg_registry_start                               /var/folders/qz/8dvj07d52mjgthd1ds8wvf400000gn/T//ccg5ycur.ltrans16.ltrans.o
                                                  /var/folders/qz/8dvj07d52mjgthd1ds8wvf400000gn/T//ccg5ycur.ltrans14.ltrans.o
                                                  /var/folders/qz/8dvj07d52mjgthd1ds8wvf400000gn/T//ccg5ycur.ltrans8.ltrans.o
                                                  /var/folders/qz/8dvj07d52mjgthd1ds8wvf400000gn/T//ccg5ycur.ltrans7.ltrans.o
                                                  obj/main/SPRACINGF3/config/config_eeprom.o (symbol from plugin)
                                                  obj/main/SPRACINGF3/config/parameter_group.o (symbol from plugin)
                                                  obj/main/SPRACINGF3/io/serial_cli.o (symbol from plugin)
                                                  obj/main/SPRACINGF3/fc/config.o (symbol from plugin)
__pg_resetdata_end                                /var/folders/qz/8dvj07d52mjgthd1ds8wvf400000gn/T//ccg5ycur.ltrans7.ltrans.o
                                                  obj/main/SPRACINGF3/config/parameter_group.o (symbol from plugin)
__pg_resetdata_start                              /var/folders/qz/8dvj07d52mjgthd1ds8wvf400000gn/T//ccg5ycur.ltrans7.ltrans.o
                                                  obj/main/SPRACINGF3/config/parameter_group.o (symbol from plugin)
__popcountsi2                                     /opt/gcc-arm-none-eabi-5_4-2016q3/bin/../lib/gcc/arm-none-eabi/5.4.1/armv7e-m/fpu/libgcc.a(_popcountsi2.o)
                                                  /var/folders/qz/8dvj07d52mjgthd1ds8wvf400000gn/T//ccg5ycur.ltrans10.ltrans.o
__sf_fake_stderr                                  /opt/gcc-arm-none-eabi-5_4-2016q3/bin/../lib/gcc/arm-none-eabi/5.4.1/../../../../arm-none-eabi/lib/armv7e-m/fpu/libc_nano.a(lib_a-impure.o)
__sf_fake_stdin                                   /opt/gcc-arm-none-eabi-5_4-2016q3/bin/../lib/gcc/arm-none-eabi/5.4.1/../../../../arm-none-eabi/lib/armv7e-m/fpu/libc_nano.a(lib_a-impure.o)
__sf_fake_stdout                                  /opt/gcc-arm-none-eabi-5_4-2016q3/bin/../lib/gcc/arm-none-eabi/5.4.1/../../../../arm-none-eabi/lib/armv7e-m/fpu/libc_nano.a(lib_a-impure.o)
__strtok_r                                        /opt/gcc-arm-none-eabi-5_4-2016q3/bin/../lib/gcc/arm-none-eabi/5.4.1/../../../../arm-none-eabi/lib/armv7e-m/fpu/libc_nano.a(lib_a-strtok_r.o)
__subdf3                                          /opt/gcc-arm-none-eabi-5_4-2016q3/bin/../lib/gcc/arm-none-eabi/5.4.1/armv7e-m/fpu/libgcc.a(_arm_addsubdf3.o)
__truncdfsf2                                      /opt/gcc-arm-none-eabi-5_4-2016q3/bin/../lib/gcc/arm-none-eabi/5.4.1/armv7e-m/fpu/libgcc.a(_arm_truncdfsf2.o)
__udivmoddi4                                      /opt/gcc-arm-none-eabi-5_4-2016q3/bin/../lib/gcc/arm-none-eabi/5.4.1/armv7e-m/fpu/libgcc.a(_udivmoddi4.o)
                                                  /opt/gcc-arm-none-eabi-5_4-2016q3/bin/../lib/gcc/arm-none-eabi/5.4.1/armv7e-m/fpu/libgcc.a(_aeabi_ldivmod.o)
__unorddf2                                        /opt/gcc-arm-none-eabi-5_4-2016q3/bin/../lib/gcc/arm-none-eabi/5.4.1/armv7e-m/fpu/libgcc.a(_arm_unorddf2.o)
_atoi_r                                           /opt/gcc-arm-none-eabi-5_4-2016q3/bin/../lib/gcc/arm-none-eabi/5.4.1/../../../../arm-none-eabi/lib/armv7e-m/fpu/libc_nano.a(lib_a-atoi.o)
_crc_xmodem_update                                obj/main/SPRACINGF3/io/serial_4way.o (symbol from plugin)
_ctype_                                           /opt/gcc-arm-none-eabi-5_4-2016q3/bin/../lib/gcc/arm-none-eabi/5.4.1/../../../../arm-none-eabi/lib/armv7e-m/fpu/libc_nano.a(lib_a-ctype_.o)
                                                  /opt/gcc-arm-none-eabi-5_4-2016q3/bin/../lib/gcc/arm-none-eabi/5.4.1/../../../../arm-none-eabi/lib/armv7e-m/fpu/libc_nano.a(lib_a-locale.o)
_ebss                                             obj/main/SPRACINGF3/startup_stm32f30x_md_gcc.o
_edata                                            obj/main/SPRACINGF3/startup_stm32f30x_md_gcc.o
_estack                                           obj/main/SPRACINGF3/startup_stm32f30x_md_gcc.o
_global_impure_ptr                                /opt/gcc-arm-none-eabi-5_4-2016q3/bin/../lib/gcc/arm-none-eabi/5.4.1/../../../../arm-none-eabi/lib/armv7e-m/fpu/libc_nano.a(lib_a-impure.o)
_i2a.lto_priv.110                                 /var/folders/qz/8dvj07d52mjgthd1ds8wvf400000gn/T//ccg5ycur.ltrans7.ltrans.o
                                                  /var/folders/qz/8dvj07d52mjgthd1ds8wvf400000gn/T//ccg5ycur.ltrans9.ltrans.o
_impure_ptr                                       /opt/gcc-arm-none-eabi-5_4-2016q3/bin/../lib/gcc/arm-none-eabi/5.4.1/../../../../arm-none-eabi/lib/armv7e-m/fpu/libc_nano.a(lib_a-impure.o)
                                                  /opt/gcc-arm-none-eabi-5_4-2016q3/bin/../lib/gcc/arm-none-eabi/5.4.1/../../../../arm-none-eabi/lib/armv7e-m/fpu/libc_nano.a(lib_a-errno.o)
                                                  /opt/gcc-arm-none-eabi-5_4-2016q3/bin/../lib/gcc/arm-none-eabi/5.4.1/../../../../arm-none-eabi/lib/armv7e-m/fpu/libc_nano.a(lib_a-wctomb_r.o)
                                                  /opt/gcc-arm-none-eabi-5_4-2016q3/bin/../lib/gcc/arm-none-eabi/5.4.1/../../../../arm-none-eabi/lib/armv7e-m/fpu/libc_nano.a(lib_a-strtol.o)
                                                  /opt/gcc-arm-none-eabi-5_4-2016q3/bin/../lib/gcc/arm-none-eabi/5.4.1/../../../../arm-none-eabi/lib/armv7e-m/fpu/libc_nano.a(lib_a-mbtowc_r.o)
                                                  /opt/gcc-arm-none-eabi-5_4-2016q3/bin/../lib/gcc/arm-none-eabi/5.4.1/../../../../arm-none-eabi/lib/armv7e-m/fpu/libc_nano.a(lib_a-locale.o)
_mbtowc_r                                         /opt/gcc-arm-none-eabi-5_4-2016q3/bin/../lib/gcc/arm-none-eabi/5.4.1/../../../../arm-none-eabi/lib/armv7e-m/fpu/libc_nano.a(lib_a-mbtowc_r.o)
_putc.lto_priv.266                                /var/folders/qz/8dvj07d52mjgthd1ds8wvf400000gn/T//ccg5ycur.ltrans7.ltrans.o
_sbss                                             obj/main/SPRACINGF3/startup_stm32f30x_md_gcc.o
_sdata                                            obj/main/SPRACINGF3/startup_stm32f30x_md_gcc.o
_setlocale_r                                      /opt/gcc-arm-none-eabi-5_4-2016q3/bin/../lib/gcc/arm-none-eabi/5.4.1/../../../../arm-none-eabi/lib/armv7e-m/fpu/libc_nano.a(lib_a-locale.o)
_sidata                                           obj/main/SPRACINGF3/startup_stm32f30x_md_gcc.o
_strtol_r                                         /opt/gcc-arm-none-eabi-5_4-2016q3/bin/../lib/gcc/arm-none-eabi/5.4.1/../../../../arm-none-eabi/lib/armv7e-m/fpu/libc_nano.a(lib_a-strtol.o)
                                                  /opt/gcc-arm-none-eabi-5_4-2016q3/bin/../lib/gcc/arm-none-eabi/5.4.1/../../../../arm-none-eabi/lib/armv7e-m/fpu/libc_nano.a(lib_a-atoi.o)
_wctomb_r                                         /opt/gcc-arm-none-eabi-5_4-2016q3/bin/../lib/gcc/arm-none-eabi/5.4.1/../../../../arm-none-eabi/lib/armv7e-m/fpu/libc_nano.a(lib_a-wctomb_r.o)
a2d                                               obj/main/SPRACINGF3/common/typeconversion.o (symbol from plugin)
a2i                                               obj/main/SPRACINGF3/common/typeconversion.o (symbol from plugin)
                                                  obj/main/SPRACINGF3/common/printf.o (symbol from plugin)
acc                                               /var/folders/qz/8dvj07d52mjgthd1ds8wvf400000gn/T//ccg5ycur.ltrans1.ltrans.o
                                                  obj/main/SPRACINGF3/sensors/acceleration.o (symbol from plugin)
                                                  /var/folders/qz/8dvj07d52mjgthd1ds8wvf400000gn/T//ccg5ycur.ltrans16.ltrans.o
                                                  /var/folders/qz/8dvj07d52mjgthd1ds8wvf400000gn/T//ccg5ycur.ltrans12.ltrans.o
                                                  /var/folders/qz/8dvj07d52mjgthd1ds8wvf400000gn/T//ccg5ycur.ltrans4.ltrans.o
                                                  /var/folders/qz/8dvj07d52mjgthd1ds8wvf400000gn/T//ccg5ycur.ltrans0.ltrans.o
                                                  obj/main/SPRACINGF3/sensors/initialisation.o (symbol from plugin)
                                                  obj/main/SPRACINGF3/io/serial_cli.o (symbol from plugin)
                                                  obj/main/SPRACINGF3/flight/imu.o (symbol from plugin)
                                                  obj/main/SPRACINGF3/fc/msp_server_fc.o (symbol from plugin)
accADC                                            /var/folders/qz/8dvj07d52mjgthd1ds8wvf400000gn/T//ccg5ycur.ltrans12.ltrans.o
                                                  obj/main/SPRACINGF3/sensors/acceleration.o (symbol from plugin)
                                                  /var/folders/qz/8dvj07d52mjgthd1ds8wvf400000gn/T//ccg5ycur.ltrans4.ltrans.o
                                                  obj/main/SPRACINGF3/flight/imu.o (symbol from plugin)
accAlign                                          /var/folders/qz/8dvj07d52mjgthd1ds8wvf400000gn/T//ccg5ycur.ltrans12.ltrans.o
                                                  obj/main/SPRACINGF3/sensors/acceleration.o (symbol from plugin)
                                                  /var/folders/qz/8dvj07d52mjgthd1ds8wvf400000gn/T//ccg5ycur.ltrans0.ltrans.o
                                                  obj/main/SPRACINGF3/sensors/initialisation.o (symbol from plugin)
accDeadband.lto_priv.228                          /var/folders/qz/8dvj07d52mjgthd1ds8wvf400000gn/T//ccg5ycur.ltrans8.ltrans.o
                                                  /var/folders/qz/8dvj07d52mjgthd1ds8wvf400000gn/T//ccg5ycur.ltrans4.ltrans.o
accSetCalibrationCycles                           obj/main/SPRACINGF3/sensors/acceleration.o (symbol from plugin)
                                                  obj/main/SPRACINGF3/drivers/nrf2401.o (symbol from plugin)
                                                  obj/main/SPRACINGF3/fc/msp_server_fc.o (symbol from plugin)
                                                  obj/main/SPRACINGF3/fc/rc_controls.o (symbol from plugin)
                                                  obj/main/SPRACINGF3/fc/boot.o (symbol from plugin)
accSetCalibrationCycles.constprop.47              /var/folders/qz/8dvj07d52mjgthd1ds8wvf400000gn/T//ccg5ycur.ltrans9.ltrans.o
                                                  /var/folders/qz/8dvj07d52mjgthd1ds8wvf400000gn/T//ccg5ycur.ltrans2.ltrans.o
accSmooth                                         /var/folders/qz/8dvj07d52mjgthd1ds8wvf400000gn/T//ccg5ycur.ltrans1.ltrans.o
                                                  obj/main/SPRACINGF3/flight/imu.o (symbol from plugin)
                                                  /var/folders/qz/8dvj07d52mjgthd1ds8wvf400000gn/T//ccg5ycur.ltrans4.ltrans.o
                                                  obj/main/SPRACINGF3/fc/msp_server_fc.o (symbol from plugin)
accSum                                            /var/folders/qz/8dvj07d52mjgthd1ds8wvf400000gn/T//ccg5ycur.ltrans8.ltrans.o
                                                  obj/main/SPRACINGF3/flight/imu.o (symbol from plugin)
                                                  /var/folders/qz/8dvj07d52mjgthd1ds8wvf400000gn/T//ccg5ycur.ltrans4.ltrans.o
                                                  obj/main/SPRACINGF3/flight/altitudehold.o (symbol from plugin)
accSumCount                                       /var/folders/qz/8dvj07d52mjgthd1ds8wvf400000gn/T//ccg5ycur.ltrans8.ltrans.o
                                                  obj/main/SPRACINGF3/flight/imu.o (symbol from plugin)
                                                  /var/folders/qz/8dvj07d52mjgthd1ds8wvf400000gn/T//ccg5ycur.ltrans4.ltrans.o
                                                  obj/main/SPRACINGF3/flight/altitudehold.o (symbol from plugin)
accTimeSum                                        /var/folders/qz/8dvj07d52mjgthd1ds8wvf400000gn/T//ccg5ycur.ltrans8.ltrans.o
                                                  obj/main/SPRACINGF3/flight/imu.o (symbol from plugin)
                                                  /var/folders/qz/8dvj07d52mjgthd1ds8wvf400000gn/T//ccg5ycur.ltrans4.ltrans.o
                                                  obj/main/SPRACINGF3/flight/altitudehold.o (symbol from plugin)
accVelScale                                       /var/folders/qz/8dvj07d52mjgthd1ds8wvf400000gn/T//ccg5ycur.ltrans8.ltrans.o
                                                  obj/main/SPRACINGF3/flight/imu.o (symbol from plugin)
                                                  /var/folders/qz/8dvj07d52mjgthd1ds8wvf400000gn/T//ccg5ycur.ltrans0.ltrans.o
                                                  obj/main/SPRACINGF3/flight/altitudehold.o (symbol from plugin)
accelerationTrims.lto_priv.206                    /var/folders/qz/8dvj07d52mjgthd1ds8wvf400000gn/T//ccg5ycur.ltrans8.ltrans.o
                                                  /var/folders/qz/8dvj07d52mjgthd1ds8wvf400000gn/T//ccg5ycur.ltrans12.ltrans.o
accelerometerConfig_ProfileCurrent                /var/folders/qz/8dvj07d52mjgthd1ds8wvf400000gn/T//ccg5ycur.ltrans1.ltrans.o
                                                  obj/main/SPRACINGF3/sensors/acceleration.o (symbol from plugin)
                                                  /var/folders/qz/8dvj07d52mjgthd1ds8wvf400000gn/T//ccg5ycur.ltrans12.ltrans.o
                                                  /var/folders/qz/8dvj07d52mjgthd1ds8wvf400000gn/T//ccg5ycur.ltrans8.ltrans.o
                                                  /var/folders/qz/8dvj07d52mjgthd1ds8wvf400000gn/T//ccg5ycur.ltrans4.ltrans.o
                                                  /var/folders/qz/8dvj07d52mjgthd1ds8wvf400000gn/T//ccg5ycur.ltrans2.ltrans.o
                                                  obj/main/SPRACINGF3/fc/msp_server_fc.o (symbol from plugin)
                                                  obj/main/SPRACINGF3/fc/config.o (symbol from plugin)
                                                  obj/main/SPRACINGF3/fc/cleanflight_fc.o (symbol from plugin)
accelerometerConfig_Registry                      /var/folders/qz/8dvj07d52mjgthd1ds8wvf400000gn/T//ccg5ycur.ltrans1.ltrans.o
                                                  obj/main/SPRACINGF3/sensors/acceleration.o (symbol from plugin)
acosf                                             /var/folders/qz/8dvj07d52mjgthd1ds8wvf400000gn/T//ccg5ycur.ltrans7.ltrans.o
                                                  /var/folders/qz/8dvj07d52mjgthd1ds8wvf400000gn/T//ccg5ycur.ltrans4.ltrans.o
activateControlRateConfig                         obj/main/SPRACINGF3/fc/rate_profile.o (symbol from plugin)
                                                  obj/main/SPRACINGF3/fc/config.o (symbol from plugin)
activeBoxIds.lto_priv.249                         /var/folders/qz/8dvj07d52mjgthd1ds8wvf400000gn/T//ccg5ycur.ltrans1.ltrans.o
                                                  /var/folders/qz/8dvj07d52mjgthd1ds8wvf400000gn/T//ccg5ycur.ltrans0.ltrans.o
activeFeaturesLatch.lto_priv.179                  /var/folders/qz/8dvj07d52mjgthd1ds8wvf400000gn/T//ccg5ycur.ltrans9.ltrans.o
                                                  /var/folders/qz/8dvj07d52mjgthd1ds8wvf400000gn/T//ccg5ycur.ltrans12.ltrans.o
                                                  /var/folders/qz/8dvj07d52mjgthd1ds8wvf400000gn/T//ccg5ycur.ltrans8.ltrans.o
                                                  /var/folders/qz/8dvj07d52mjgthd1ds8wvf400000gn/T//ccg5ycur.ltrans6.ltrans.o
                                                  /var/folders/qz/8dvj07d52mjgthd1ds8wvf400000gn/T//ccg5ycur.ltrans4.ltrans.o
                                                  /var/folders/qz/8dvj07d52mjgthd1ds8wvf400000gn/T//ccg5ycur.ltrans2.ltrans.o
                                                  /var/folders/qz/8dvj07d52mjgthd1ds8wvf400000gn/T//ccg5ycur.ltrans0.ltrans.o
adcConfig                                         /var/folders/qz/8dvj07d52mjgthd1ds8wvf400000gn/T//ccg5ycur.ltrans16.ltrans.o
                                                  obj/main/SPRACINGF3/drivers/adc.o (symbol from plugin)
                                                  /var/folders/qz/8dvj07d52mjgthd1ds8wvf400000gn/T//ccg5ycur.ltrans12.ltrans.o
                                                  /var/folders/qz/8dvj07d52mjgthd1ds8wvf400000gn/T//ccg5ycur.ltrans2.ltrans.o
                                                  /var/folders/qz/8dvj07d52mjgthd1ds8wvf400000gn/T//ccg5ycur.ltrans0.ltrans.o
                                                  obj/main/SPRACINGF3/drivers/adc_stm32f30x.o (symbol from plugin)
adcGetChannel                                     obj/main/SPRACINGF3/drivers/adc.o (symbol from plugin)
                                                  obj/main/SPRACINGF3/sensors/battery.o (symbol from plugin)
                                                  obj/main/SPRACINGF3/rx/rx.o (symbol from plugin)
adcInit                                           obj/main/SPRACINGF3/drivers/adc_stm32f30x.o (symbol from plugin)
                                                  obj/main/SPRACINGF3/fc/boot.o (symbol from plugin)
adcValues                                         /var/folders/qz/8dvj07d52mjgthd1ds8wvf400000gn/T//ccg5ycur.ltrans16.ltrans.o
                                                  obj/main/SPRACINGF3/drivers/adc.o (symbol from plugin)
                                                  /var/folders/qz/8dvj07d52mjgthd1ds8wvf400000gn/T//ccg5ycur.ltrans12.ltrans.o
                                                  /var/folders/qz/8dvj07d52mjgthd1ds8wvf400000gn/T//ccg5ycur.ltrans2.ltrans.o
                                                  /var/folders/qz/8dvj07d52mjgthd1ds8wvf400000gn/T//ccg5ycur.ltrans0.ltrans.o
                                                  obj/main/SPRACINGF3/drivers/adc_stm32f30x.o (symbol from plugin)
adjustmentProfile_ProfileCurrent                  /var/folders/qz/8dvj07d52mjgthd1ds8wvf400000gn/T//ccg5ycur.ltrans1.ltrans.o
                                                  obj/main/SPRACINGF3/fc/rc_adjustments.o (symbol from plugin)
                                                  /var/folders/qz/8dvj07d52mjgthd1ds8wvf400000gn/T//ccg5ycur.ltrans5.ltrans.o
                                                  /var/folders/qz/8dvj07d52mjgthd1ds8wvf400000gn/T//ccg5ycur.ltrans2.ltrans.o
                                                  obj/main/SPRACINGF3/io/serial_cli.o (symbol from plugin)
                                                  obj/main/SPRACINGF3/fc/msp_server_fc.o (symbol from plugin)
                                                  obj/main/SPRACINGF3/fc/cleanflight_fc.o (symbol from plugin)
adjustmentProfile_Registry                        /var/folders/qz/8dvj07d52mjgthd1ds8wvf400000gn/T//ccg5ycur.ltrans1.ltrans.o
                                                  obj/main/SPRACINGF3/fc/rc_adjustments.o (symbol from plugin)
adjustmentStateMask                               obj/main/SPRACINGF3/fc/rc_adjustments.o (symbol from plugin)
adjustmentStates                                  /var/folders/qz/8dvj07d52mjgthd1ds8wvf400000gn/T//ccg5ycur.ltrans8.ltrans.o
                                                  obj/main/SPRACINGF3/fc/rc_adjustments.o (symbol from plugin)
                                                  /var/folders/qz/8dvj07d52mjgthd1ds8wvf400000gn/T//ccg5ycur.ltrans2.ltrans.o
airplaneConfig_Registry                           /var/folders/qz/8dvj07d52mjgthd1ds8wvf400000gn/T//ccg5ycur.ltrans4.ltrans.o
                                                  obj/main/SPRACINGF3/flight/altitudehold.o (symbol from plugin)
airplaneConfig_System                             obj/main/SPRACINGF3/flight/altitudehold.o (symbol from plugin)
ak8975Detect                                      obj/main/SPRACINGF3/drivers/compass_ak8975.o (symbol from plugin)
ak8975Init                                        obj/main/SPRACINGF3/drivers/compass_ak8975.o (symbol from plugin)
ak8975Read                                        obj/main/SPRACINGF3/drivers/compass_ak8975.o (symbol from plugin)
alignSensors                                      /var/folders/qz/8dvj07d52mjgthd1ds8wvf400000gn/T//ccg5ycur.ltrans16.ltrans.o
                                                  obj/main/SPRACINGF3/sensors/boardalignment.o (symbol from plugin)
                                                  /var/folders/qz/8dvj07d52mjgthd1ds8wvf400000gn/T//ccg5ycur.ltrans12.ltrans.o
                                                  /var/folders/qz/8dvj07d52mjgthd1ds8wvf400000gn/T//ccg5ycur.ltrans4.ltrans.o
                                                  obj/main/SPRACINGF3/sensors/gyro.o (symbol from plugin)
                                                  obj/main/SPRACINGF3/sensors/acceleration.o (symbol from plugin)
altHoldThrottleAdjustment                         /var/folders/qz/8dvj07d52mjgthd1ds8wvf400000gn/T//ccg5ycur.ltrans8.ltrans.o
                                                  obj/main/SPRACINGF3/flight/altitudehold.o (symbol from plugin)
                                                  /var/folders/qz/8dvj07d52mjgthd1ds8wvf400000gn/T//ccg5ycur.ltrans4.ltrans.o
                                                  /var/folders/qz/8dvj07d52mjgthd1ds8wvf400000gn/T//ccg5ycur.ltrans2.ltrans.o
altitudeHoldGetEstimatedAltitude                  obj/main/SPRACINGF3/flight/altitudehold.o (symbol from plugin)
                                                  obj/main/SPRACINGF3/fc/msp_server_fc.o (symbol from plugin)
amperage                                          /var/folders/qz/8dvj07d52mjgthd1ds8wvf400000gn/T//ccg5ycur.ltrans1.ltrans.o
                                                  obj/main/SPRACINGF3/sensors/battery.o (symbol from plugin)
                                                  /var/folders/qz/8dvj07d52mjgthd1ds8wvf400000gn/T//ccg5ycur.ltrans12.ltrans.o
                                                  obj/main/SPRACINGF3/fc/msp_server_fc.o (symbol from plugin)
amperageLatestADC                                 obj/main/SPRACINGF3/sensors/battery.o (symbol from plugin)
applyAccelerationTrims                            obj/main/SPRACINGF3/sensors/acceleration.o (symbol from plugin)
applyAltHold                                      obj/main/SPRACINGF3/flight/altitudehold.o (symbol from plugin)
                                                  obj/main/SPRACINGF3/fc/cleanflight_fc.o (symbol from plugin)
applyAndSaveAccelerometerTrimsDelta               obj/main/SPRACINGF3/fc/cleanflight_fc.o (symbol from plugin)
                                                  obj/main/SPRACINGF3/fc/rc_controls.o (symbol from plugin)
applyBiQuadFilter                                 obj/main/SPRACINGF3/common/filter.o (symbol from plugin)
                                                  obj/main/SPRACINGF3/sensors/gyro.o (symbol from plugin)
                                                  obj/main/SPRACINGF3/sensors/battery.o (symbol from plugin)
applyChangedBits                                  obj/main/SPRACINGF3/drivers/serial_softserial.o (symbol from plugin)
applyDeadband                                     /var/folders/qz/8dvj07d52mjgthd1ds8wvf400000gn/T//ccg5ycur.ltrans7.ltrans.o
                                                  obj/main/SPRACINGF3/common/maths.o (symbol from plugin)
                                                  /var/folders/qz/8dvj07d52mjgthd1ds8wvf400000gn/T//ccg5ycur.ltrans8.ltrans.o
                                                  /var/folders/qz/8dvj07d52mjgthd1ds8wvf400000gn/T//ccg5ycur.ltrans4.ltrans.o
                                                  obj/main/SPRACINGF3/flight/imu.o (symbol from plugin)
                                                  obj/main/SPRACINGF3/flight/altitudehold.o (symbol from plugin)
applySelectAdjustment                             obj/main/SPRACINGF3/fc/rc_adjustments.o (symbol from plugin)
applyStepAdjustment                               obj/main/SPRACINGF3/fc/rc_adjustments.o (symbol from plugin)
areSticksInApModePosition                         obj/main/SPRACINGF3/fc/rc_controls.o (symbol from plugin)
armingConfig_Registry                             /var/folders/qz/8dvj07d52mjgthd1ds8wvf400000gn/T//ccg5ycur.ltrans1.ltrans.o
                                                  obj/main/SPRACINGF3/fc/rc_controls.o (symbol from plugin)
armingConfig_System                               /var/folders/qz/8dvj07d52mjgthd1ds8wvf400000gn/T//ccg5ycur.ltrans1.ltrans.o
                                                  obj/main/SPRACINGF3/fc/rc_controls.o (symbol from plugin)
                                                  /var/folders/qz/8dvj07d52mjgthd1ds8wvf400000gn/T//ccg5ycur.ltrans18.ltrans.o
                                                  /var/folders/qz/8dvj07d52mjgthd1ds8wvf400000gn/T//ccg5ycur.ltrans8.ltrans.o
                                                  /var/folders/qz/8dvj07d52mjgthd1ds8wvf400000gn/T//ccg5ycur.ltrans2.ltrans.o
                                                  obj/main/SPRACINGF3/fc/msp_server_fc.o (symbol from plugin)
                                                  obj/main/SPRACINGF3/fc/config.o (symbol from plugin)
                                                  obj/main/SPRACINGF3/fc/cleanflight_fc.o (symbol from plugin)
armingFlags                                       /var/folders/qz/8dvj07d52mjgthd1ds8wvf400000gn/T//ccg5ycur.ltrans1.ltrans.o
                                                  obj/main/SPRACINGF3/fc/runtime_config.o (symbol from plugin)
                                                  /var/folders/qz/8dvj07d52mjgthd1ds8wvf400000gn/T//ccg5ycur.ltrans18.ltrans.o
                                                  /var/folders/qz/8dvj07d52mjgthd1ds8wvf400000gn/T//ccg5ycur.ltrans12.ltrans.o
                                                  /var/folders/qz/8dvj07d52mjgthd1ds8wvf400000gn/T//ccg5ycur.ltrans4.ltrans.o
                                                  /var/folders/qz/8dvj07d52mjgthd1ds8wvf400000gn/T//ccg5ycur.ltrans2.ltrans.o
                                                  /var/folders/qz/8dvj07d52mjgthd1ds8wvf400000gn/T//ccg5ycur.ltrans0.ltrans.o
                                                  obj/main/SPRACINGF3/sensors/battery.o (symbol from plugin)
                                                  obj/main/SPRACINGF3/io/serial_cli.o (symbol from plugin)
                                                  obj/main/SPRACINGF3/flight/mixer.o (symbol from plugin)
                                                  obj/main/SPRACINGF3/flight/imu.o (symbol from plugin)
                                                  obj/main/SPRACINGF3/flight/failsafe.o (symbol from plugin)
                                                  obj/main/SPRACINGF3/fc/msp_server_fc.o (symbol from plugin)
                                                  obj/main/SPRACINGF3/fc/fc_serial.o (symbol from plugin)
                                                  obj/main/SPRACINGF3/fc/rc_controls.o (symbol from plugin)
                                                  obj/main/SPRACINGF3/fc/cleanflight_fc.o (symbol from plugin)
                                                  obj/main/SPRACINGF3/fc/boot.o (symbol from plugin)
arraySubInt32                                     obj/main/SPRACINGF3/common/maths.o (symbol from plugin)
atan2f                                            /var/folders/qz/8dvj07d52mjgthd1ds8wvf400000gn/T//ccg5ycur.ltrans7.ltrans.o
                                                  /var/folders/qz/8dvj07d52mjgthd1ds8wvf400000gn/T//ccg5ycur.ltrans4.ltrans.o
atoi                                              /opt/gcc-arm-none-eabi-5_4-2016q3/bin/../lib/gcc/arm-none-eabi/5.4.1/../../../../arm-none-eabi/lib/armv7e-m/fpu/libc_nano.a(lib_a-atoi.o)
                                                  /var/folders/qz/8dvj07d52mjgthd1ds8wvf400000gn/T//ccg5ycur.ltrans16.ltrans.o
                                                  /var/folders/qz/8dvj07d52mjgthd1ds8wvf400000gn/T//ccg5ycur.ltrans14.ltrans.o
                                                  /var/folders/qz/8dvj07d52mjgthd1ds8wvf400000gn/T//ccg5ycur.ltrans5.ltrans.o
                                                  obj/main/SPRACINGF3/io/serial_cli.o (symbol from plugin)
attitude                                          /var/folders/qz/8dvj07d52mjgthd1ds8wvf400000gn/T//ccg5ycur.ltrans1.ltrans.o
                                                  obj/main/SPRACINGF3/flight/imu.o (symbol from plugin)
                                                  /var/folders/qz/8dvj07d52mjgthd1ds8wvf400000gn/T//ccg5ycur.ltrans18.ltrans.o
                                                  /var/folders/qz/8dvj07d52mjgthd1ds8wvf400000gn/T//ccg5ycur.ltrans8.ltrans.o
                                                  /var/folders/qz/8dvj07d52mjgthd1ds8wvf400000gn/T//ccg5ycur.ltrans6.ltrans.o
                                                  /var/folders/qz/8dvj07d52mjgthd1ds8wvf400000gn/T//ccg5ycur.ltrans4.ltrans.o
                                                  obj/main/SPRACINGF3/flight/pid_mw23.o (symbol from plugin)
                                                  obj/main/SPRACINGF3/flight/pid_mwrewrite.o (symbol from plugin)
                                                  obj/main/SPRACINGF3/flight/pid_luxfloat.o (symbol from plugin)
                                                  obj/main/SPRACINGF3/flight/altitudehold.o (symbol from plugin)
                                                  obj/main/SPRACINGF3/fc/msp_server_fc.o (symbol from plugin)
                                                  obj/main/SPRACINGF3/fc/cleanflight_fc.o (symbol from plugin)
averageSystemLoadPercent                          /var/folders/qz/8dvj07d52mjgthd1ds8wvf400000gn/T//ccg5ycur.ltrans1.ltrans.o
                                                  obj/main/SPRACINGF3/scheduler/scheduler.o (symbol from plugin)
                                                  /var/folders/qz/8dvj07d52mjgthd1ds8wvf400000gn/T//ccg5ycur.ltrans16.ltrans.o
                                                  /var/folders/qz/8dvj07d52mjgthd1ds8wvf400000gn/T//ccg5ycur.ltrans7.ltrans.o
                                                  /var/folders/qz/8dvj07d52mjgthd1ds8wvf400000gn/T//ccg5ycur.ltrans2.ltrans.o
                                                  obj/main/SPRACINGF3/io/serial_cli.o (symbol from plugin)
                                                  obj/main/SPRACINGF3/fc/msp_server_fc.o (symbol from plugin)
                                                  obj/main/SPRACINGF3/fc/cleanflight_fc.o (symbol from plugin)
axisPID                                           /var/folders/qz/8dvj07d52mjgthd1ds8wvf400000gn/T//ccg5ycur.ltrans6.ltrans.o
                                                  obj/main/SPRACINGF3/flight/pid.o (symbol from plugin)
                                                  /var/folders/qz/8dvj07d52mjgthd1ds8wvf400000gn/T//ccg5ycur.ltrans4.ltrans.o
                                                  obj/main/SPRACINGF3/flight/mixer.o (symbol from plugin)
                                                  obj/main/SPRACINGF3/flight/pid_mw23.o (symbol from plugin)
                                                  obj/main/SPRACINGF3/flight/pid_mwrewrite.o (symbol from plugin)
                                                  obj/main/SPRACINGF3/flight/pid_luxfloat.o (symbol from plugin)
baro                                              obj/main/SPRACINGF3/sensors/barometer.o (symbol from plugin)
baroCalculateAltitude                             obj/main/SPRACINGF3/sensors/barometer.o (symbol from plugin)
baroPressure                                      obj/main/SPRACINGF3/sensors/barometer.o (symbol from plugin)
baroSetCalibrationCycles                          obj/main/SPRACINGF3/sensors/barometer.o (symbol from plugin)
                                                  obj/main/SPRACINGF3/fc/rc_controls.o (symbol from plugin)
                                                  obj/main/SPRACINGF3/fc/boot.o (symbol from plugin)
baroTemperature                                   obj/main/SPRACINGF3/sensors/barometer.o (symbol from plugin)
baroUpdate                                        obj/main/SPRACINGF3/sensors/barometer.o (symbol from plugin)
                                                  obj/main/SPRACINGF3/fc/cleanflight_fc.o (symbol from plugin)
baro_cf_alt                                       obj/main/SPRACINGF3/sensors/sonar.o (symbol from plugin)
baro_cf_vel                                       obj/main/SPRACINGF3/sensors/sonar.o (symbol from plugin)
barometerConfig_ProfileCurrent                    /var/folders/qz/8dvj07d52mjgthd1ds8wvf400000gn/T//ccg5ycur.ltrans8.ltrans.o
                                                  obj/main/SPRACINGF3/sensors/barometer.o (symbol from plugin)
                                                  /var/folders/qz/8dvj07d52mjgthd1ds8wvf400000gn/T//ccg5ycur.ltrans19.ltrans.o
                                                  obj/main/SPRACINGF3/flight/altitudehold.o (symbol from plugin)
barometerConfig_Registry                          /var/folders/qz/8dvj07d52mjgthd1ds8wvf400000gn/T//ccg5ycur.ltrans8.ltrans.o
                                                  obj/main/SPRACINGF3/sensors/barometer.o (symbol from plugin)
batteryAdcToVoltage                               /var/folders/qz/8dvj07d52mjgthd1ds8wvf400000gn/T//ccg5ycur.ltrans16.ltrans.o
                                                  obj/main/SPRACINGF3/sensors/battery.o (symbol from plugin)
                                                  /var/folders/qz/8dvj07d52mjgthd1ds8wvf400000gn/T//ccg5ycur.ltrans12.ltrans.o
batteryCellCount                                  /var/folders/qz/8dvj07d52mjgthd1ds8wvf400000gn/T//ccg5ycur.ltrans16.ltrans.o
                                                  obj/main/SPRACINGF3/sensors/battery.o (symbol from plugin)
                                                  /var/folders/qz/8dvj07d52mjgthd1ds8wvf400000gn/T//ccg5ycur.ltrans12.ltrans.o
                                                  /var/folders/qz/8dvj07d52mjgthd1ds8wvf400000gn/T//ccg5ycur.ltrans0.ltrans.o
                                                  obj/main/SPRACINGF3/io/serial_cli.o (symbol from plugin)
batteryConfig_Registry                            /var/folders/qz/8dvj07d52mjgthd1ds8wvf400000gn/T//ccg5ycur.ltrans1.ltrans.o
                                                  obj/main/SPRACINGF3/sensors/battery.o (symbol from plugin)
batteryConfig_System                              /var/folders/qz/8dvj07d52mjgthd1ds8wvf400000gn/T//ccg5ycur.ltrans1.ltrans.o
                                                  obj/main/SPRACINGF3/sensors/battery.o (symbol from plugin)
                                                  /var/folders/qz/8dvj07d52mjgthd1ds8wvf400000gn/T//ccg5ycur.ltrans16.ltrans.o
                                                  /var/folders/qz/8dvj07d52mjgthd1ds8wvf400000gn/T//ccg5ycur.ltrans12.ltrans.o
                                                  /var/folders/qz/8dvj07d52mjgthd1ds8wvf400000gn/T//ccg5ycur.ltrans0.ltrans.o
                                                  obj/main/SPRACINGF3/fc/msp_server_fc.o (symbol from plugin)
                                                  obj/main/SPRACINGF3/fc/cleanflight_fc.o (symbol from plugin)
                                                  obj/main/SPRACINGF3/fc/boot.o (symbol from plugin)
batteryCriticalVoltage                            /var/folders/qz/8dvj07d52mjgthd1ds8wvf400000gn/T//ccg5ycur.ltrans12.ltrans.o
                                                  obj/main/SPRACINGF3/sensors/battery.o (symbol from plugin)
                                                  /var/folders/qz/8dvj07d52mjgthd1ds8wvf400000gn/T//ccg5ycur.ltrans0.ltrans.o
batteryInit                                       obj/main/SPRACINGF3/sensors/battery.o (symbol from plugin)
                                                  obj/main/SPRACINGF3/fc/boot.o (symbol from plugin)
batteryState.lto_priv.203                         /var/folders/qz/8dvj07d52mjgthd1ds8wvf400000gn/T//ccg5ycur.ltrans16.ltrans.o
                                                  /var/folders/qz/8dvj07d52mjgthd1ds8wvf400000gn/T//ccg5ycur.ltrans12.ltrans.o
                                                  /var/folders/qz/8dvj07d52mjgthd1ds8wvf400000gn/T//ccg5ycur.ltrans0.ltrans.o
batteryStateStrings                               obj/main/SPRACINGF3/sensors/battery.o (symbol from plugin)
batteryWarningVoltage                             /var/folders/qz/8dvj07d52mjgthd1ds8wvf400000gn/T//ccg5ycur.ltrans12.ltrans.o
                                                  obj/main/SPRACINGF3/sensors/battery.o (symbol from plugin)
                                                  /var/folders/qz/8dvj07d52mjgthd1ds8wvf400000gn/T//ccg5ycur.ltrans0.ltrans.o
baudRates                                         /var/folders/qz/8dvj07d52mjgthd1ds8wvf400000gn/T//ccg5ycur.ltrans5.ltrans.o
                                                  obj/main/SPRACINGF3/io/serial.o (symbol from plugin)
                                                  /var/folders/qz/8dvj07d52mjgthd1ds8wvf400000gn/T//ccg5ycur.ltrans0.ltrans.o
                                                  obj/main/SPRACINGF3/msp/msp_serial.o (symbol from plugin)
                                                  obj/main/SPRACINGF3/io/serial_cli.o (symbol from plugin)
beeper                                            obj/main/SPRACINGF3/io/beeper.o (symbol from plugin)
                                                  obj/main/SPRACINGF3/sensors/gyro.o (symbol from plugin)
                                                  obj/main/SPRACINGF3/sensors/acceleration.o (symbol from plugin)
                                                  obj/main/SPRACINGF3/io/serial_cli.o (symbol from plugin)
                                                  obj/main/SPRACINGF3/flight/failsafe.o (symbol from plugin)
                                                  obj/main/SPRACINGF3/fc/rc_controls.o (symbol from plugin)
                                                  obj/main/SPRACINGF3/fc/cleanflight_fc.o (symbol from plugin)
beeperConfirmationBeeps                           obj/main/SPRACINGF3/io/beeper.o (symbol from plugin)
                                                  obj/main/SPRACINGF3/fc/runtime_config.o (symbol from plugin)
                                                  obj/main/SPRACINGF3/fc/config.o (symbol from plugin)
                                                  obj/main/SPRACINGF3/fc/rc_controls.o (symbol from plugin)
                                                  obj/main/SPRACINGF3/fc/rc_adjustments.o (symbol from plugin)
                                                  obj/main/SPRACINGF3/fc/cleanflight_fc.o (symbol from plugin)
beeperInit                                        obj/main/SPRACINGF3/drivers/sound_beeper.o (symbol from plugin)
beeperModeForTableIndex                           obj/main/SPRACINGF3/io/beeper.o (symbol from plugin)
                                                  obj/main/SPRACINGF3/io/serial_cli.o (symbol from plugin)
beeperNameForTableIndex                           obj/main/SPRACINGF3/io/beeper.o (symbol from plugin)
                                                  obj/main/SPRACINGF3/io/serial_cli.o (symbol from plugin)
beeperSilence                                     obj/main/SPRACINGF3/io/beeper.o (symbol from plugin)
                                                  obj/main/SPRACINGF3/io/serial_cli.o (symbol from plugin)
                                                  obj/main/SPRACINGF3/fc/cleanflight_fc.o (symbol from plugin)
beeperTableEntryCount                             obj/main/SPRACINGF3/io/beeper.o (symbol from plugin)
                                                  obj/main/SPRACINGF3/io/serial_cli.o (symbol from plugin)
beeperUpdate                                      obj/main/SPRACINGF3/io/beeper.o (symbol from plugin)
blackboxLogInflightAdjustmentEvent                obj/main/SPRACINGF3/fc/rc_adjustments.o (symbol from plugin)
blackboxLogInflightAdjustmentEventFloat           obj/main/SPRACINGF3/fc/rc_adjustments.o (symbol from plugin)
boardAlignment_Registry                           /var/folders/qz/8dvj07d52mjgthd1ds8wvf400000gn/T//ccg5ycur.ltrans1.ltrans.o
                                                  obj/main/SPRACINGF3/sensors/boardalignment.o (symbol from plugin)
boardAlignment_System                             /var/folders/qz/8dvj07d52mjgthd1ds8wvf400000gn/T//ccg5ycur.ltrans1.ltrans.o
                                                  obj/main/SPRACINGF3/sensors/boardalignment.o (symbol from plugin)
                                                  /var/folders/qz/8dvj07d52mjgthd1ds8wvf400000gn/T//ccg5ycur.ltrans0.ltrans.o
                                                  obj/main/SPRACINGF3/fc/msp_server_fc.o (symbol from plugin)
boardRotation.lto_priv.256                        /var/folders/qz/8dvj07d52mjgthd1ds8wvf400000gn/T//ccg5ycur.ltrans16.ltrans.o
                                                  /var/folders/qz/8dvj07d52mjgthd1ds8wvf400000gn/T//ccg5ycur.ltrans0.ltrans.o
boxes.lto_priv.183                                /var/folders/qz/8dvj07d52mjgthd1ds8wvf400000gn/T//ccg5ycur.ltrans1.ltrans.o
                                                  /var/folders/qz/8dvj07d52mjgthd1ds8wvf400000gn/T//ccg5ycur.ltrans6.ltrans.o
bufWriterAppend                                   /var/folders/qz/8dvj07d52mjgthd1ds8wvf400000gn/T//ccg5ycur.ltrans7.ltrans.o
                                                  obj/main/SPRACINGF3/drivers/buf_writer.o (symbol from plugin)
                                                  /var/folders/qz/8dvj07d52mjgthd1ds8wvf400000gn/T//ccg5ycur.ltrans14.ltrans.o
                                                  /var/folders/qz/8dvj07d52mjgthd1ds8wvf400000gn/T//ccg5ycur.ltrans9.ltrans.o
                                                  obj/main/SPRACINGF3/io/serial_cli.o (symbol from plugin)
bufWriterFlush                                    /var/folders/qz/8dvj07d52mjgthd1ds8wvf400000gn/T//ccg5ycur.ltrans7.ltrans.o
                                                  obj/main/SPRACINGF3/drivers/buf_writer.o (symbol from plugin)
                                                  /var/folders/qz/8dvj07d52mjgthd1ds8wvf400000gn/T//ccg5ycur.ltrans14.ltrans.o
                                                  /var/folders/qz/8dvj07d52mjgthd1ds8wvf400000gn/T//ccg5ycur.ltrans12.ltrans.o
                                                  /var/folders/qz/8dvj07d52mjgthd1ds8wvf400000gn/T//ccg5ycur.ltrans5.ltrans.o
                                                  obj/main/SPRACINGF3/io/serial_cli.o (symbol from plugin)
bufWriterInit                                     obj/main/SPRACINGF3/drivers/buf_writer.o (symbol from plugin)
                                                  obj/main/SPRACINGF3/io/serial_cli.o (symbol from plugin)
bufferIndex.lto_priv.204                          /var/folders/qz/8dvj07d52mjgthd1ds8wvf400000gn/T//ccg5ycur.ltrans5.ltrans.o
                                                  /var/folders/qz/8dvj07d52mjgthd1ds8wvf400000gn/T//ccg5ycur.ltrans12.ltrans.o
buildDate                                         /var/folders/qz/8dvj07d52mjgthd1ds8wvf400000gn/T//ccg5ycur.ltrans1.ltrans.o
                                                  obj/main/SPRACINGF3/build/version.o (symbol from plugin)
                                                  obj/main/SPRACINGF3/io/serial_cli.o (symbol from plugin)
                                                  obj/main/SPRACINGF3/fc/msp_server_fc.o (symbol from plugin)
buildRotationMatrix                               obj/main/SPRACINGF3/common/maths.o (symbol from plugin)
                                                  obj/main/SPRACINGF3/sensors/boardalignment.o (symbol from plugin)
buildTime                                         /var/folders/qz/8dvj07d52mjgthd1ds8wvf400000gn/T//ccg5ycur.ltrans1.ltrans.o
                                                  obj/main/SPRACINGF3/build/version.o (symbol from plugin)
                                                  obj/main/SPRACINGF3/io/serial_cli.o (symbol from plugin)
                                                  obj/main/SPRACINGF3/fc/msp_server_fc.o (symbol from plugin)
cachedRccCsrValue                                 obj/main/SPRACINGF3/drivers/system.o (symbol from plugin)
                                                  obj/main/SPRACINGF3/drivers/system_stm32f30x.o (symbol from plugin)
calculateAccZLowPassFilterRCTimeConstant          obj/main/SPRACINGF3/flight/imu.o (symbol from plugin)
calculateAltHoldThrottleAdjustment                obj/main/SPRACINGF3/flight/altitudehold.o (symbol from plugin)
calculateBatteryCapacityRemainingPercentage       obj/main/SPRACINGF3/sensors/battery.o (symbol from plugin)
calculateBatteryPercentage                        obj/main/SPRACINGF3/sensors/battery.o (symbol from plugin)
calculateChannelRemapping                         obj/main/SPRACINGF3/rx/rx.o (symbol from plugin)
calculateEstimatedAltitude                        obj/main/SPRACINGF3/flight/altitudehold.o (symbol from plugin)
                                                  obj/main/SPRACINGF3/fc/cleanflight_fc.o (symbol from plugin)
calculateRollPitchCenterStatus                    obj/main/SPRACINGF3/fc/rc_controls.o (symbol from plugin)
                                                  obj/main/SPRACINGF3/fc/cleanflight_fc.o (symbol from plugin)
calculateRxChannelsAndUpdateFailsafe              obj/main/SPRACINGF3/rx/rx.o (symbol from plugin)
                                                  obj/main/SPRACINGF3/fc/cleanflight_fc.o (symbol from plugin)
calculateThrottleAngleCorrection                  obj/main/SPRACINGF3/flight/imu.o (symbol from plugin)
                                                  obj/main/SPRACINGF3/fc/cleanflight_fc.o (symbol from plugin)
calculateThrottleAngleScale                       obj/main/SPRACINGF3/flight/imu.o (symbol from plugin)
calculateThrottleStatus                           obj/main/SPRACINGF3/fc/rc_controls.o (symbol from plugin)
                                                  obj/main/SPRACINGF3/flight/failsafe.o (symbol from plugin)
                                                  obj/main/SPRACINGF3/fc/cleanflight_fc.o (symbol from plugin)
calculateThrottleStatus.constprop.22              /var/folders/qz/8dvj07d52mjgthd1ds8wvf400000gn/T//ccg5ycur.ltrans9.ltrans.o
                                                  /var/folders/qz/8dvj07d52mjgthd1ds8wvf400000gn/T//ccg5ycur.ltrans12.ltrans.o
                                                  /var/folders/qz/8dvj07d52mjgthd1ds8wvf400000gn/T//ccg5ycur.ltrans2.ltrans.o
calculate_real_pressure                           /var/folders/qz/8dvj07d52mjgthd1ds8wvf400000gn/T//ccg5ycur.ltrans11.ltrans.o
                                                  obj/main/SPRACINGF3/drivers/fbm320.o (symbol from plugin)
                                                  /var/folders/qz/8dvj07d52mjgthd1ds8wvf400000gn/T//ccg5ycur.ltrans0.ltrans.o
calibratingA                                      /var/folders/qz/8dvj07d52mjgthd1ds8wvf400000gn/T//ccg5ycur.ltrans9.ltrans.o
                                                  obj/main/SPRACINGF3/sensors/acceleration.o (symbol from plugin)
                                                  /var/folders/qz/8dvj07d52mjgthd1ds8wvf400000gn/T//ccg5ycur.ltrans18.ltrans.o
                                                  /var/folders/qz/8dvj07d52mjgthd1ds8wvf400000gn/T//ccg5ycur.ltrans12.ltrans.o
                                                  /var/folders/qz/8dvj07d52mjgthd1ds8wvf400000gn/T//ccg5ycur.ltrans2.ltrans.o
                                                  /var/folders/qz/8dvj07d52mjgthd1ds8wvf400000gn/T//ccg5ycur.ltrans1.ltrans.o
                                                  /var/folders/qz/8dvj07d52mjgthd1ds8wvf400000gn/T//ccg5ycur.ltrans0.ltrans.o
calibratingB                                      /var/folders/qz/8dvj07d52mjgthd1ds8wvf400000gn/T//ccg5ycur.ltrans2.ltrans.o
                                                  obj/main/SPRACINGF3/sensors/barometer.o (symbol from plugin)
                                                  /var/folders/qz/8dvj07d52mjgthd1ds8wvf400000gn/T//ccg5ycur.ltrans18.ltrans.o
                                                  /var/folders/qz/8dvj07d52mjgthd1ds8wvf400000gn/T//ccg5ycur.ltrans0.ltrans.o
calibratingG.lto_priv.233                         /var/folders/qz/8dvj07d52mjgthd1ds8wvf400000gn/T//ccg5ycur.ltrans2.ltrans.o
                                                  /var/folders/qz/8dvj07d52mjgthd1ds8wvf400000gn/T//ccg5ycur.ltrans18.ltrans.o
                                                  /var/folders/qz/8dvj07d52mjgthd1ds8wvf400000gn/T//ccg5ycur.ltrans4.ltrans.o
                                                  /var/folders/qz/8dvj07d52mjgthd1ds8wvf400000gn/T//ccg5ycur.ltrans0.ltrans.o
captures.lto_priv.201                             /var/folders/qz/8dvj07d52mjgthd1ds8wvf400000gn/T//ccg5ycur.ltrans16.ltrans.o
                                                  /var/folders/qz/8dvj07d52mjgthd1ds8wvf400000gn/T//ccg5ycur.ltrans12.ltrans.o
                                                  /var/folders/qz/8dvj07d52mjgthd1ds8wvf400000gn/T//ccg5ycur.ltrans3.ltrans.o
castFloatBytesToInt                               obj/main/SPRACINGF3/common/encoding.o (symbol from plugin)
cfTasks                                           /var/folders/qz/8dvj07d52mjgthd1ds8wvf400000gn/T//ccg5ycur.ltrans7.ltrans.o
                                                  obj/main/SPRACINGF3/fc/fc_tasks.o (symbol from plugin)
                                                  /var/folders/qz/8dvj07d52mjgthd1ds8wvf400000gn/T//ccg5ycur.ltrans16.ltrans.o
                                                  /var/folders/qz/8dvj07d52mjgthd1ds8wvf400000gn/T//ccg5ycur.ltrans0.ltrans.o
                                                  obj/main/SPRACINGF3/scheduler/scheduler.o (symbol from plugin)
changeControlRateProfile                          obj/main/SPRACINGF3/fc/rate_profile.o (symbol from plugin)
                                                  obj/main/SPRACINGF3/io/serial_cli.o (symbol from plugin)
                                                  obj/main/SPRACINGF3/fc/rc_adjustments.o (symbol from plugin)
changeProfile                                     obj/main/SPRACINGF3/fc/config.o (symbol from plugin)
                                                  obj/main/SPRACINGF3/io/serial_cli.o (symbol from plugin)
                                                  obj/main/SPRACINGF3/fc/msp_server_fc.o (symbol from plugin)
                                                  obj/main/SPRACINGF3/fc/rc_controls.o (symbol from plugin)
channelRanges_Registry                            /var/folders/qz/8dvj07d52mjgthd1ds8wvf400000gn/T//ccg5ycur.ltrans16.ltrans.o
                                                  obj/main/SPRACINGF3/rx/rx.o (symbol from plugin)
                                                  /var/folders/qz/8dvj07d52mjgthd1ds8wvf400000gn/T//ccg5ycur.ltrans5.ltrans.o
                                                  obj/main/SPRACINGF3/io/serial_cli.o (symbol from plugin)
channelRanges_SystemArray                         /var/folders/qz/8dvj07d52mjgthd1ds8wvf400000gn/T//ccg5ycur.ltrans16.ltrans.o
                                                  obj/main/SPRACINGF3/rx/rx.o (symbol from plugin)
                                                  /var/folders/qz/8dvj07d52mjgthd1ds8wvf400000gn/T//ccg5ycur.ltrans5.ltrans.o
                                                  obj/main/SPRACINGF3/io/serial_cli.o (symbol from plugin)
cliAdjustmentRange.lto_priv.207                   /var/folders/qz/8dvj07d52mjgthd1ds8wvf400000gn/T//ccg5ycur.ltrans5.ltrans.o
cliAux.lto_priv.208                               /var/folders/qz/8dvj07d52mjgthd1ds8wvf400000gn/T//ccg5ycur.ltrans5.ltrans.o
cliBuffer.lto_priv.205                            /var/folders/qz/8dvj07d52mjgthd1ds8wvf400000gn/T//ccg5ycur.ltrans5.ltrans.o
                                                  /var/folders/qz/8dvj07d52mjgthd1ds8wvf400000gn/T//ccg5ycur.ltrans12.ltrans.o
cliDefaults.lto_priv.143                          /var/folders/qz/8dvj07d52mjgthd1ds8wvf400000gn/T//ccg5ycur.ltrans14.ltrans.o
                                                  /var/folders/qz/8dvj07d52mjgthd1ds8wvf400000gn/T//ccg5ycur.ltrans5.ltrans.o
cliDump.lto_priv.209                              /var/folders/qz/8dvj07d52mjgthd1ds8wvf400000gn/T//ccg5ycur.ltrans5.ltrans.o
cliEnter                                          obj/main/SPRACINGF3/io/serial_cli.o (symbol from plugin)
                                                  obj/main/SPRACINGF3/fc/fc_serial.o (symbol from plugin)
cliExit.lto_priv.210                              /var/folders/qz/8dvj07d52mjgthd1ds8wvf400000gn/T//ccg5ycur.ltrans5.ltrans.o
                                                  /var/folders/qz/8dvj07d52mjgthd1ds8wvf400000gn/T//ccg5ycur.ltrans12.ltrans.o
cliFeature.lto_priv.211                           /var/folders/qz/8dvj07d52mjgthd1ds8wvf400000gn/T//ccg5ycur.ltrans5.ltrans.o
cliGet.lto_priv.144                               /var/folders/qz/8dvj07d52mjgthd1ds8wvf400000gn/T//ccg5ycur.ltrans16.ltrans.o
                                                  /var/folders/qz/8dvj07d52mjgthd1ds8wvf400000gn/T//ccg5ycur.ltrans5.ltrans.o
cliHelp.lto_priv.212                              /var/folders/qz/8dvj07d52mjgthd1ds8wvf400000gn/T//ccg5ycur.ltrans5.ltrans.o
cliInit                                           obj/main/SPRACINGF3/io/serial_cli.o (symbol from plugin)
                                                  obj/main/SPRACINGF3/fc/boot.o (symbol from plugin)
cliMap.lto_priv.213                               /var/folders/qz/8dvj07d52mjgthd1ds8wvf400000gn/T//ccg5ycur.ltrans5.ltrans.o
cliMixer.lto_priv.145                             /var/folders/qz/8dvj07d52mjgthd1ds8wvf400000gn/T//ccg5ycur.ltrans14.ltrans.o
                                                  /var/folders/qz/8dvj07d52mjgthd1ds8wvf400000gn/T//ccg5ycur.ltrans5.ltrans.o
cliMode                                           /var/folders/qz/8dvj07d52mjgthd1ds8wvf400000gn/T//ccg5ycur.ltrans1.ltrans.o
                                                  obj/main/SPRACINGF3/io/serial_cli.o (symbol from plugin)
                                                  /var/folders/qz/8dvj07d52mjgthd1ds8wvf400000gn/T//ccg5ycur.ltrans12.ltrans.o
                                                  /var/folders/qz/8dvj07d52mjgthd1ds8wvf400000gn/T//ccg5ycur.ltrans5.ltrans.o
                                                  /var/folders/qz/8dvj07d52mjgthd1ds8wvf400000gn/T//ccg5ycur.ltrans2.ltrans.o
                                                  obj/main/SPRACINGF3/fc/cleanflight_fc.o (symbol from plugin)
cliMotor.lto_priv.146                             /var/folders/qz/8dvj07d52mjgthd1ds8wvf400000gn/T//ccg5ycur.ltrans14.ltrans.o
                                                  /var/folders/qz/8dvj07d52mjgthd1ds8wvf400000gn/T//ccg5ycur.ltrans5.ltrans.o
cliMotorMix.lto_priv.214                          /var/folders/qz/8dvj07d52mjgthd1ds8wvf400000gn/T//ccg5ycur.ltrans5.ltrans.o
cliPlaySound.lto_priv.147                         /var/folders/qz/8dvj07d52mjgthd1ds8wvf400000gn/T//ccg5ycur.ltrans14.ltrans.o
                                                  /var/folders/qz/8dvj07d52mjgthd1ds8wvf400000gn/T//ccg5ycur.ltrans5.ltrans.o
cliPort.lto_priv.129                              /var/folders/qz/8dvj07d52mjgthd1ds8wvf400000gn/T//ccg5ycur.ltrans1.ltrans.o
                                                  /var/folders/qz/8dvj07d52mjgthd1ds8wvf400000gn/T//ccg5ycur.ltrans14.ltrans.o
                                                  /var/folders/qz/8dvj07d52mjgthd1ds8wvf400000gn/T//ccg5ycur.ltrans12.ltrans.o
cliPrint.lto_priv.115                             /var/folders/qz/8dvj07d52mjgthd1ds8wvf400000gn/T//ccg5ycur.ltrans14.ltrans.o
                                                  /var/folders/qz/8dvj07d52mjgthd1ds8wvf400000gn/T//ccg5ycur.ltrans16.ltrans.o
                                                  /var/folders/qz/8dvj07d52mjgthd1ds8wvf400000gn/T//ccg5ycur.ltrans12.ltrans.o
                                                  /var/folders/qz/8dvj07d52mjgthd1ds8wvf400000gn/T//ccg5ycur.ltrans5.ltrans.o
                                                  /var/folders/qz/8dvj07d52mjgthd1ds8wvf400000gn/T//ccg5ycur.ltrans1.ltrans.o
cliPrintVar.lto_priv.125                          /var/folders/qz/8dvj07d52mjgthd1ds8wvf400000gn/T//ccg5ycur.ltrans14.ltrans.o
                                                  /var/folders/qz/8dvj07d52mjgthd1ds8wvf400000gn/T//ccg5ycur.ltrans16.ltrans.o
                                                  /var/folders/qz/8dvj07d52mjgthd1ds8wvf400000gn/T//ccg5ycur.ltrans5.ltrans.o
cliPrintf.lto_priv.124                            /var/folders/qz/8dvj07d52mjgthd1ds8wvf400000gn/T//ccg5ycur.ltrans14.ltrans.o
                                                  /var/folders/qz/8dvj07d52mjgthd1ds8wvf400000gn/T//ccg5ycur.ltrans16.ltrans.o
                                                  /var/folders/qz/8dvj07d52mjgthd1ds8wvf400000gn/T//ccg5ycur.ltrans5.ltrans.o
cliProcess                                        obj/main/SPRACINGF3/io/serial_cli.o (symbol from plugin)
                                                  obj/main/SPRACINGF3/fc/cleanflight_fc.o (symbol from plugin)
cliProfile.lto_priv.148                           /var/folders/qz/8dvj07d52mjgthd1ds8wvf400000gn/T//ccg5ycur.ltrans14.ltrans.o
                                                  /var/folders/qz/8dvj07d52mjgthd1ds8wvf400000gn/T//ccg5ycur.ltrans5.ltrans.o
cliPrompt.lto_priv.114                            /var/folders/qz/8dvj07d52mjgthd1ds8wvf400000gn/T//ccg5ycur.ltrans5.ltrans.o
                                                  /var/folders/qz/8dvj07d52mjgthd1ds8wvf400000gn/T//ccg5ycur.ltrans12.ltrans.o
                                                  /var/folders/qz/8dvj07d52mjgthd1ds8wvf400000gn/T//ccg5ycur.ltrans1.ltrans.o
cliPutp.lto_priv.108                              /var/folders/qz/8dvj07d52mjgthd1ds8wvf400000gn/T//ccg5ycur.ltrans14.ltrans.o
cliRateProfile.lto_priv.149                       /var/folders/qz/8dvj07d52mjgthd1ds8wvf400000gn/T//ccg5ycur.ltrans14.ltrans.o
                                                  /var/folders/qz/8dvj07d52mjgthd1ds8wvf400000gn/T//ccg5ycur.ltrans5.ltrans.o
cliReboot.lto_priv.155                            /var/folders/qz/8dvj07d52mjgthd1ds8wvf400000gn/T//ccg5ycur.ltrans14.ltrans.o
                                                  /var/folders/qz/8dvj07d52mjgthd1ds8wvf400000gn/T//ccg5ycur.ltrans5.ltrans.o
cliRxFail.lto_priv.216                            /var/folders/qz/8dvj07d52mjgthd1ds8wvf400000gn/T//ccg5ycur.ltrans5.ltrans.o
cliRxRange.lto_priv.215                           /var/folders/qz/8dvj07d52mjgthd1ds8wvf400000gn/T//ccg5ycur.ltrans5.ltrans.o
cliSave.lto_priv.150                              /var/folders/qz/8dvj07d52mjgthd1ds8wvf400000gn/T//ccg5ycur.ltrans14.ltrans.o
                                                  /var/folders/qz/8dvj07d52mjgthd1ds8wvf400000gn/T//ccg5ycur.ltrans5.ltrans.o
cliSerial.lto_priv.217                            /var/folders/qz/8dvj07d52mjgthd1ds8wvf400000gn/T//ccg5ycur.ltrans5.ltrans.o
cliSet.lto_priv.151                               /var/folders/qz/8dvj07d52mjgthd1ds8wvf400000gn/T//ccg5ycur.ltrans16.ltrans.o
                                                  /var/folders/qz/8dvj07d52mjgthd1ds8wvf400000gn/T//ccg5ycur.ltrans5.ltrans.o
cliShowParseError.lto_priv.140                    /var/folders/qz/8dvj07d52mjgthd1ds8wvf400000gn/T//ccg5ycur.ltrans5.ltrans.o
                                                  /var/folders/qz/8dvj07d52mjgthd1ds8wvf400000gn/T//ccg5ycur.ltrans14.ltrans.o
cliStatus.lto_priv.152                            /var/folders/qz/8dvj07d52mjgthd1ds8wvf400000gn/T//ccg5ycur.ltrans16.ltrans.o
                                                  /var/folders/qz/8dvj07d52mjgthd1ds8wvf400000gn/T//ccg5ycur.ltrans5.ltrans.o
cliTasks.lto_priv.153                             /var/folders/qz/8dvj07d52mjgthd1ds8wvf400000gn/T//ccg5ycur.ltrans16.ltrans.o
                                                  /var/folders/qz/8dvj07d52mjgthd1ds8wvf400000gn/T//ccg5ycur.ltrans5.ltrans.o
cliVarPtr.lto_priv.126                            /var/folders/qz/8dvj07d52mjgthd1ds8wvf400000gn/T//ccg5ycur.ltrans14.ltrans.o
                                                  /var/folders/qz/8dvj07d52mjgthd1ds8wvf400000gn/T//ccg5ycur.ltrans16.ltrans.o
cliVersion.lto_priv.154                           /var/folders/qz/8dvj07d52mjgthd1ds8wvf400000gn/T//ccg5ycur.ltrans16.ltrans.o
                                                  /var/folders/qz/8dvj07d52mjgthd1ds8wvf400000gn/T//ccg5ycur.ltrans5.ltrans.o
cliWrite.lto_priv.156                             /var/folders/qz/8dvj07d52mjgthd1ds8wvf400000gn/T//ccg5ycur.ltrans14.ltrans.o
                                                  /var/folders/qz/8dvj07d52mjgthd1ds8wvf400000gn/T//ccg5ycur.ltrans12.ltrans.o
                                                  /var/folders/qz/8dvj07d52mjgthd1ds8wvf400000gn/T//ccg5ycur.ltrans5.ltrans.o
cliWriter.lto_priv.128                            /var/folders/qz/8dvj07d52mjgthd1ds8wvf400000gn/T//ccg5ycur.ltrans1.ltrans.o
                                                  /var/folders/qz/8dvj07d52mjgthd1ds8wvf400000gn/T//ccg5ycur.ltrans14.ltrans.o
                                                  /var/folders/qz/8dvj07d52mjgthd1ds8wvf400000gn/T//ccg5ycur.ltrans12.ltrans.o
                                                  /var/folders/qz/8dvj07d52mjgthd1ds8wvf400000gn/T//ccg5ycur.ltrans5.ltrans.o
closeSerialPort                                   obj/main/SPRACINGF3/io/serial.o (symbol from plugin)
                                                  obj/main/SPRACINGF3/msp/msp_serial.o (symbol from plugin)
cmdTable                                          /var/folders/qz/8dvj07d52mjgthd1ds8wvf400000gn/T//ccg5ycur.ltrans5.ltrans.o
                                                  obj/main/SPRACINGF3/io/serial_cli.o (symbol from plugin)
                                                  /var/folders/qz/8dvj07d52mjgthd1ds8wvf400000gn/T//ccg5ycur.ltrans12.ltrans.o
compassConfig_ProfileCurrent                      /var/folders/qz/8dvj07d52mjgthd1ds8wvf400000gn/T//ccg5ycur.ltrans1.ltrans.o
                                                  obj/main/SPRACINGF3/sensors/compass.o (symbol from plugin)
                                                  /var/folders/qz/8dvj07d52mjgthd1ds8wvf400000gn/T//ccg5ycur.ltrans8.ltrans.o
                                                  obj/main/SPRACINGF3/fc/msp_server_fc.o (symbol from plugin)
compassConfig_Registry                            /var/folders/qz/8dvj07d52mjgthd1ds8wvf400000gn/T//ccg5ycur.ltrans1.ltrans.o
                                                  obj/main/SPRACINGF3/sensors/compass.o (symbol from plugin)
configTimeBase                                    obj/main/SPRACINGF3/drivers/timer.o (symbol from plugin)
                                                  obj/main/SPRACINGF3/drivers/pwm_output.o (symbol from plugin)
config_streamer_finish                            obj/main/SPRACINGF3/config/config_streamer.o (symbol from plugin)
                                                  obj/main/SPRACINGF3/config/config_eeprom.o (symbol from plugin)
config_streamer_flush                             obj/main/SPRACINGF3/config/config_streamer.o (symbol from plugin)
                                                  obj/main/SPRACINGF3/config/config_eeprom.o (symbol from plugin)
config_streamer_init                              obj/main/SPRACINGF3/config/config_streamer.o (symbol from plugin)
                                                  obj/main/SPRACINGF3/config/config_eeprom.o (symbol from plugin)
config_streamer_start                             obj/main/SPRACINGF3/config/config_streamer.o (symbol from plugin)
                                                  obj/main/SPRACINGF3/config/config_eeprom.o (symbol from plugin)
config_streamer_status                            obj/main/SPRACINGF3/config/config_streamer.o (symbol from plugin)
config_streamer_write                             /var/folders/qz/8dvj07d52mjgthd1ds8wvf400000gn/T//ccg5ycur.ltrans7.ltrans.o
                                                  obj/main/SPRACINGF3/config/config_streamer.o (symbol from plugin)
                                                  /var/folders/qz/8dvj07d52mjgthd1ds8wvf400000gn/T//ccg5ycur.ltrans8.ltrans.o
                                                  obj/main/SPRACINGF3/config/config_eeprom.o (symbol from plugin)
configureAdjustmentState                          obj/main/SPRACINGF3/fc/rc_adjustments.o (symbol from plugin)
configureMPUDataReadyInterruptHandling            obj/main/SPRACINGF3/drivers/accgyro_mpu.o (symbol from plugin)
configureRateProfileSelection                     obj/main/SPRACINGF3/fc/rate_profile.o (symbol from plugin)
                                                  obj/main/SPRACINGF3/fc/config.o (symbol from plugin)
configureScheduler                                obj/main/SPRACINGF3/fc/boot.o (symbol from plugin)
constrain                                         obj/main/SPRACINGF3/common/maths.o (symbol from plugin)
                                                  obj/main/SPRACINGF3/scheduler/scheduler.o (symbol from plugin)
                                                  obj/main/SPRACINGF3/sensors/battery.o (symbol from plugin)
                                                  obj/main/SPRACINGF3/rx/rx.o (symbol from plugin)
                                                  obj/main/SPRACINGF3/io/serial_cli.o (symbol from plugin)
                                                  obj/main/SPRACINGF3/flight/mixer.o (symbol from plugin)
                                                  obj/main/SPRACINGF3/flight/pid_mw23.o (symbol from plugin)
                                                  obj/main/SPRACINGF3/flight/pid_mwrewrite.o (symbol from plugin)
                                                  obj/main/SPRACINGF3/flight/pid_luxfloat.o (symbol from plugin)
                                                  obj/main/SPRACINGF3/flight/altitudehold.o (symbol from plugin)
                                                  obj/main/SPRACINGF3/fc/msp_server_fc.o (symbol from plugin)
                                                  obj/main/SPRACINGF3/fc/rc_controls.o (symbol from plugin)
                                                  obj/main/SPRACINGF3/fc/rc_adjustments.o (symbol from plugin)
                                                  obj/main/SPRACINGF3/fc/cleanflight_fc.o (symbol from plugin)
constrainf                                        obj/main/SPRACINGF3/common/maths.o (symbol from plugin)
                                                  obj/main/SPRACINGF3/flight/pid_luxfloat.o (symbol from plugin)
controlRateProfiles_Registry                      /var/folders/qz/8dvj07d52mjgthd1ds8wvf400000gn/T//ccg5ycur.ltrans14.ltrans.o
                                                  obj/main/SPRACINGF3/fc/rate_profile.o (symbol from plugin)
controlRateProfiles_SystemArray                   /var/folders/qz/8dvj07d52mjgthd1ds8wvf400000gn/T//ccg5ycur.ltrans14.ltrans.o
                                                  obj/main/SPRACINGF3/fc/rate_profile.o (symbol from plugin)
                                                  /var/folders/qz/8dvj07d52mjgthd1ds8wvf400000gn/T//ccg5ycur.ltrans8.ltrans.o
                                                  /var/folders/qz/8dvj07d52mjgthd1ds8wvf400000gn/T//ccg5ycur.ltrans2.ltrans.o
copysign                                          /opt/gcc-arm-none-eabi-5_4-2016q3/bin/../lib/gcc/arm-none-eabi/5.4.1/../../../../arm-none-eabi/lib/armv7e-m/fpu/libm.a(lib_a-s_copysign.o)
                                                  /opt/gcc-arm-none-eabi-5_4-2016q3/bin/../lib/gcc/arm-none-eabi/5.4.1/../../../../arm-none-eabi/lib/armv7e-m/fpu/libm.a(lib_a-s_scalbn.o)
cosf                                              /var/folders/qz/8dvj07d52mjgthd1ds8wvf400000gn/T//ccg5ycur.ltrans7.ltrans.o
                                                  /var/folders/qz/8dvj07d52mjgthd1ds8wvf400000gn/T//ccg5ycur.ltrans4.ltrans.o
                                                  /var/folders/qz/8dvj07d52mjgthd1ds8wvf400000gn/T//ccg5ycur.ltrans2.ltrans.o
                                                  /var/folders/qz/8dvj07d52mjgthd1ds8wvf400000gn/T//ccg5ycur.ltrans0.ltrans.o
crc16Byte.lto_priv.175                            /var/folders/qz/8dvj07d52mjgthd1ds8wvf400000gn/T//ccg5ycur.ltrans15.ltrans.o
crc16_CCITT                                       obj/main/SPRACINGF3/common/crc.o (symbol from plugin)
                                                  obj/main/SPRACINGF3/rx/srxl.o (symbol from plugin)
                                                  obj/main/SPRACINGF3/rx/xbus.o (symbol from plugin)
crcIn.lto_priv.178                                /var/folders/qz/8dvj07d52mjgthd1ds8wvf400000gn/T//ccg5ycur.ltrans13.ltrans.o
                                                  /var/folders/qz/8dvj07d52mjgthd1ds8wvf400000gn/T//ccg5ycur.ltrans6.ltrans.o
crcOut.lto_priv.176                               /var/folders/qz/8dvj07d52mjgthd1ds8wvf400000gn/T//ccg5ycur.ltrans13.ltrans.o
                                                  /var/folders/qz/8dvj07d52mjgthd1ds8wvf400000gn/T//ccg5ycur.ltrans6.ltrans.o
currentControlRateProfile                         /var/folders/qz/8dvj07d52mjgthd1ds8wvf400000gn/T//ccg5ycur.ltrans1.ltrans.o
                                                  obj/main/SPRACINGF3/fc/rate_profile.o (symbol from plugin)
                                                  /var/folders/qz/8dvj07d52mjgthd1ds8wvf400000gn/T//ccg5ycur.ltrans14.ltrans.o
                                                  /var/folders/qz/8dvj07d52mjgthd1ds8wvf400000gn/T//ccg5ycur.ltrans8.ltrans.o
                                                  /var/folders/qz/8dvj07d52mjgthd1ds8wvf400000gn/T//ccg5ycur.ltrans4.ltrans.o
                                                  /var/folders/qz/8dvj07d52mjgthd1ds8wvf400000gn/T//ccg5ycur.ltrans2.ltrans.o
                                                  obj/main/SPRACINGF3/fc/msp_server_fc.o (symbol from plugin)
                                                  obj/main/SPRACINGF3/fc/rc_curves.o (symbol from plugin)
                                                  obj/main/SPRACINGF3/fc/cleanflight_fc.o (symbol from plugin)
currentControlRateProfileIndex.lto_priv.187       /var/folders/qz/8dvj07d52mjgthd1ds8wvf400000gn/T//ccg5ycur.ltrans14.ltrans.o
                                                  /var/folders/qz/8dvj07d52mjgthd1ds8wvf400000gn/T//ccg5ycur.ltrans8.ltrans.o
                                                  /var/folders/qz/8dvj07d52mjgthd1ds8wvf400000gn/T//ccg5ycur.ltrans2.ltrans.o
currentMixer                                      /var/folders/qz/8dvj07d52mjgthd1ds8wvf400000gn/T//ccg5ycur.ltrans4.ltrans.o
                                                  obj/main/SPRACINGF3/flight/mixer.o (symbol from plugin)
                                                  /var/folders/qz/8dvj07d52mjgthd1ds8wvf400000gn/T//ccg5ycur.ltrans0.ltrans.o
currentSensorToCentiamps                          obj/main/SPRACINGF3/sensors/battery.o (symbol from plugin)
currentTask.lto_priv.191                          /var/folders/qz/8dvj07d52mjgthd1ds8wvf400000gn/T//ccg5ycur.ltrans7.ltrans.o
                                                  /var/folders/qz/8dvj07d52mjgthd1ds8wvf400000gn/T//ccg5ycur.ltrans19.ltrans.o
                                                  /var/folders/qz/8dvj07d52mjgthd1ds8wvf400000gn/T//ccg5ycur.ltrans4.ltrans.o
                                                  /var/folders/qz/8dvj07d52mjgthd1ds8wvf400000gn/T//ccg5ycur.ltrans0.ltrans.o
currentTime                                       /var/folders/qz/8dvj07d52mjgthd1ds8wvf400000gn/T//ccg5ycur.ltrans8.ltrans.o
                                                  obj/main/SPRACINGF3/scheduler/scheduler.o (symbol from plugin)
                                                  /var/folders/qz/8dvj07d52mjgthd1ds8wvf400000gn/T//ccg5ycur.ltrans12.ltrans.o
                                                  /var/folders/qz/8dvj07d52mjgthd1ds8wvf400000gn/T//ccg5ycur.ltrans4.ltrans.o
                                                  /var/folders/qz/8dvj07d52mjgthd1ds8wvf400000gn/T//ccg5ycur.ltrans2.ltrans.o
                                                  /var/folders/qz/8dvj07d52mjgthd1ds8wvf400000gn/T//ccg5ycur.ltrans0.ltrans.o
                                                  obj/main/SPRACINGF3/fc/cleanflight_fc.o (symbol from plugin)
customMixers                                      obj/main/SPRACINGF3/flight/mixer.o (symbol from plugin)
customMotorMixer_Registry                         /var/folders/qz/8dvj07d52mjgthd1ds8wvf400000gn/T//ccg5ycur.ltrans5.ltrans.o
                                                  obj/main/SPRACINGF3/flight/mixer.o (symbol from plugin)
customMotorMixer_SystemArray                      /var/folders/qz/8dvj07d52mjgthd1ds8wvf400000gn/T//ccg5ycur.ltrans5.ltrans.o
                                                  obj/main/SPRACINGF3/flight/mixer.o (symbol from plugin)
                                                  obj/main/SPRACINGF3/io/serial_cli.o (symbol from plugin)
                                                  obj/main/SPRACINGF3/fc/boot.o (symbol from plugin)
cycleTime                                         /var/folders/qz/8dvj07d52mjgthd1ds8wvf400000gn/T//ccg5ycur.ltrans1.ltrans.o
                                                  obj/main/SPRACINGF3/fc/cleanflight_fc.o (symbol from plugin)
                                                  /var/folders/qz/8dvj07d52mjgthd1ds8wvf400000gn/T//ccg5ycur.ltrans16.ltrans.o
                                                  /var/folders/qz/8dvj07d52mjgthd1ds8wvf400000gn/T//ccg5ycur.ltrans4.ltrans.o
                                                  obj/main/SPRACINGF3/io/serial_cli.o (symbol from plugin)
                                                  obj/main/SPRACINGF3/fc/msp_server_fc.o (symbol from plugin)
dT                                                /var/folders/qz/8dvj07d52mjgthd1ds8wvf400000gn/T//ccg5ycur.ltrans6.ltrans.o
                                                  obj/main/SPRACINGF3/fc/cleanflight_fc.o (symbol from plugin)
                                                  /var/folders/qz/8dvj07d52mjgthd1ds8wvf400000gn/T//ccg5ycur.ltrans4.ltrans.o
                                                  obj/main/SPRACINGF3/flight/pid_mw23.o (symbol from plugin)
                                                  obj/main/SPRACINGF3/flight/pid_mwrewrite.o (symbol from plugin)
                                                  obj/main/SPRACINGF3/flight/pid_luxfloat.o (symbol from plugin)
debug                                             /var/folders/qz/8dvj07d52mjgthd1ds8wvf400000gn/T//ccg5ycur.ltrans1.ltrans.o
                                                  obj/main/SPRACINGF3/build/debug.o (symbol from plugin)
                                                  /var/folders/qz/8dvj07d52mjgthd1ds8wvf400000gn/T//ccg5ycur.ltrans8.ltrans.o
                                                  obj/main/SPRACINGF3/flight/altitudehold.o (symbol from plugin)
                                                  obj/main/SPRACINGF3/fc/msp_server_fc.o (symbol from plugin)
degreesToRadians                                  obj/main/SPRACINGF3/common/maths.o (symbol from plugin)
                                                  obj/main/SPRACINGF3/sensors/boardalignment.o (symbol from plugin)
                                                  obj/main/SPRACINGF3/flight/imu.o (symbol from plugin)
                                                  obj/main/SPRACINGF3/fc/cleanflight_fc.o (symbol from plugin)
delay                                             /var/folders/qz/8dvj07d52mjgthd1ds8wvf400000gn/T//ccg5ycur.ltrans7.ltrans.o
                                                  obj/main/SPRACINGF3/drivers/system.o (symbol from plugin)
                                                  /var/folders/qz/8dvj07d52mjgthd1ds8wvf400000gn/T//ccg5ycur.ltrans12.ltrans.o
                                                  /var/folders/qz/8dvj07d52mjgthd1ds8wvf400000gn/T//ccg5ycur.ltrans10.ltrans.o
                                                  /var/folders/qz/8dvj07d52mjgthd1ds8wvf400000gn/T//ccg5ycur.ltrans8.ltrans.o
                                                  /var/folders/qz/8dvj07d52mjgthd1ds8wvf400000gn/T//ccg5ycur.ltrans6.ltrans.o
                                                  /var/folders/qz/8dvj07d52mjgthd1ds8wvf400000gn/T//ccg5ycur.ltrans0.ltrans.o
                                                  obj/main/SPRACINGF3/drivers/led.o (symbol from plugin)
                                                  obj/main/SPRACINGF3/drivers/fbm320.o (symbol from plugin)
                                                  obj/main/SPRACINGF3/drivers/nrf2401.o (symbol from plugin)
                                                  obj/main/SPRACINGF3/io/serial.o (symbol from plugin)
                                                  obj/main/SPRACINGF3/sensors/battery.o (symbol from plugin)
                                                  obj/main/SPRACINGF3/rx/spektrum.o (symbol from plugin)
                                                  obj/main/SPRACINGF3/flight/mixer.o (symbol from plugin)
                                                  obj/main/SPRACINGF3/fc/config.o (symbol from plugin)
                                                  obj/main/SPRACINGF3/fc/boot.o (symbol from plugin)
                                                  obj/main/SPRACINGF3/drivers/serial_softserial.o (symbol from plugin)
                                                  obj/main/SPRACINGF3/drivers/compass_hmc5883l.o (symbol from plugin)
                                                  obj/main/SPRACINGF3/drivers/compass_ak8975.o (symbol from plugin)
                                                  obj/main/SPRACINGF3/drivers/barometer_ms5611.o (symbol from plugin)
                                                  obj/main/SPRACINGF3/drivers/accgyro_mpu6050.o (symbol from plugin)
                                                  obj/main/SPRACINGF3/drivers/accgyro_mpu.o (symbol from plugin)
                                                  obj/main/SPRACINGF3/drivers/adc_stm32f30x.o (symbol from plugin)
delayMicroseconds                                 /var/folders/qz/8dvj07d52mjgthd1ds8wvf400000gn/T//ccg5ycur.ltrans7.ltrans.o
                                                  obj/main/SPRACINGF3/drivers/system.o (symbol from plugin)
                                                  /var/folders/qz/8dvj07d52mjgthd1ds8wvf400000gn/T//ccg5ycur.ltrans15.ltrans.o
                                                  /var/folders/qz/8dvj07d52mjgthd1ds8wvf400000gn/T//ccg5ycur.ltrans0.ltrans.o
                                                  obj/main/SPRACINGF3/rx/spektrum.o (symbol from plugin)
                                                  obj/main/SPRACINGF3/io/serial_4way_stk500v2.o (symbol from plugin)
                                                  obj/main/SPRACINGF3/drivers/barometer_ms5611.o (symbol from plugin)
deltaFilter                                       obj/main/SPRACINGF3/flight/pid.o (symbol from plugin)
                                                  obj/main/SPRACINGF3/flight/pid_mw23.o (symbol from plugin)
                                                  obj/main/SPRACINGF3/flight/pid_mwrewrite.o (symbol from plugin)
                                                  obj/main/SPRACINGF3/flight/pid_luxfloat.o (symbol from plugin)
detectGyro                                        obj/main/SPRACINGF3/sensors/initialisation.o (symbol from plugin)
detectMpu                                         obj/main/SPRACINGF3/drivers/accgyro_mpu.o (symbol from plugin)
                                                  obj/main/SPRACINGF3/sensors/initialisation.o (symbol from plugin)
detectedSensors                                   /var/folders/qz/8dvj07d52mjgthd1ds8wvf400000gn/T//ccg5ycur.ltrans16.ltrans.o
                                                  obj/main/SPRACINGF3/sensors/initialisation.o (symbol from plugin)
                                                  /var/folders/qz/8dvj07d52mjgthd1ds8wvf400000gn/T//ccg5ycur.ltrans0.ltrans.o
                                                  obj/main/SPRACINGF3/io/serial_cli.o (symbol from plugin)
determinePortSharing                              obj/main/SPRACINGF3/io/serial.o (symbol from plugin)
devClear                                          obj/main/SPRACINGF3/common/maths.o (symbol from plugin)
                                                  obj/main/SPRACINGF3/sensors/gyro.o (symbol from plugin)
devPush                                           obj/main/SPRACINGF3/common/maths.o (symbol from plugin)
                                                  obj/main/SPRACINGF3/sensors/gyro.o (symbol from plugin)
devStandardDeviation                              obj/main/SPRACINGF3/common/maths.o (symbol from plugin)
                                                  obj/main/SPRACINGF3/sensors/gyro.o (symbol from plugin)
devVariance                                       obj/main/SPRACINGF3/common/maths.o (symbol from plugin)
disableFlightMode                                 /var/folders/qz/8dvj07d52mjgthd1ds8wvf400000gn/T//ccg5ycur.ltrans6.ltrans.o
                                                  obj/main/SPRACINGF3/fc/runtime_config.o (symbol from plugin)
                                                  /var/folders/qz/8dvj07d52mjgthd1ds8wvf400000gn/T//ccg5ycur.ltrans2.ltrans.o
                                                  obj/main/SPRACINGF3/flight/failsafe.o (symbol from plugin)
                                                  obj/main/SPRACINGF3/flight/altitudehold.o (symbol from plugin)
                                                  obj/main/SPRACINGF3/fc/cleanflight_fc.o (symbol from plugin)
disarmAt.lto_priv.235                             /var/folders/qz/8dvj07d52mjgthd1ds8wvf400000gn/T//ccg5ycur.ltrans2.ltrans.o
                                                  /var/folders/qz/8dvj07d52mjgthd1ds8wvf400000gn/T//ccg5ycur.ltrans18.ltrans.o
dmaChannels                                       /var/folders/qz/8dvj07d52mjgthd1ds8wvf400000gn/T//ccg5ycur.ltrans9.ltrans.o
                                                  obj/main/SPRACINGF3/drivers/dma.o (symbol from plugin)
                                                  /var/folders/qz/8dvj07d52mjgthd1ds8wvf400000gn/T//ccg5ycur.ltrans7.ltrans.o
                                                  obj/main/SPRACINGF3/drivers/light_ws2811strip.o (symbol from plugin)
                                                  obj/main/SPRACINGF3/drivers/serial_uart_stm32f30x.o (symbol from plugin)
dmaHandlerInit                                    obj/main/SPRACINGF3/drivers/dma.o (symbol from plugin)
                                                  obj/main/SPRACINGF3/drivers/light_ws2811strip.o (symbol from plugin)
                                                  obj/main/SPRACINGF3/drivers/serial_uart_stm32f30x.o (symbol from plugin)
dmaInit                                           obj/main/SPRACINGF3/drivers/dma.o (symbol from plugin)
                                                  obj/main/SPRACINGF3/fc/boot.o (symbol from plugin)
dmaSetHandler                                     obj/main/SPRACINGF3/drivers/dma.o (symbol from plugin)
                                                  obj/main/SPRACINGF3/drivers/light_ws2811strip.o (symbol from plugin)
                                                  obj/main/SPRACINGF3/drivers/serial_uart_stm32f30x.o (symbol from plugin)
doesConfigurationUsePort                          obj/main/SPRACINGF3/io/serial.o (symbol from plugin)
                                                  obj/main/SPRACINGF3/fc/boot.o (symbol from plugin)
dynD8                                             /var/folders/qz/8dvj07d52mjgthd1ds8wvf400000gn/T//ccg5ycur.ltrans6.ltrans.o
                                                  obj/main/SPRACINGF3/flight/pid_mw23.o (symbol from plugin)
                                                  /var/folders/qz/8dvj07d52mjgthd1ds8wvf400000gn/T//ccg5ycur.ltrans4.ltrans.o
                                                  obj/main/SPRACINGF3/fc/cleanflight_fc.o (symbol from plugin)
dynI8                                             obj/main/SPRACINGF3/flight/pid_mw23.o (symbol from plugin)
                                                  obj/main/SPRACINGF3/fc/cleanflight_fc.o (symbol from plugin)
dynP8                                             /var/folders/qz/8dvj07d52mjgthd1ds8wvf400000gn/T//ccg5ycur.ltrans6.ltrans.o
                                                  obj/main/SPRACINGF3/flight/pid_mw23.o (symbol from plugin)
                                                  /var/folders/qz/8dvj07d52mjgthd1ds8wvf400000gn/T//ccg5ycur.ltrans4.ltrans.o
                                                  obj/main/SPRACINGF3/fc/cleanflight_fc.o (symbol from plugin)
enableFlightMode                                  /var/folders/qz/8dvj07d52mjgthd1ds8wvf400000gn/T//ccg5ycur.ltrans8.ltrans.o
                                                  obj/main/SPRACINGF3/fc/runtime_config.o (symbol from plugin)
                                                  /var/folders/qz/8dvj07d52mjgthd1ds8wvf400000gn/T//ccg5ycur.ltrans6.ltrans.o
                                                  /var/folders/qz/8dvj07d52mjgthd1ds8wvf400000gn/T//ccg5ycur.ltrans2.ltrans.o
                                                  obj/main/SPRACINGF3/flight/failsafe.o (symbol from plugin)
                                                  obj/main/SPRACINGF3/flight/altitudehold.o (symbol from plugin)
                                                  obj/main/SPRACINGF3/fc/cleanflight_fc.o (symbol from plugin)
enableGPIOPowerUsageAndNoiseReductions            obj/main/SPRACINGF3/drivers/system_stm32f30x.o (symbol from plugin)
                                                  obj/main/SPRACINGF3/drivers/system.o (symbol from plugin)
enabledSensors.lto_priv.123                       /var/folders/qz/8dvj07d52mjgthd1ds8wvf400000gn/T//ccg5ycur.ltrans1.ltrans.o
                                                  /var/folders/qz/8dvj07d52mjgthd1ds8wvf400000gn/T//ccg5ycur.ltrans19.ltrans.o
                                                  /var/folders/qz/8dvj07d52mjgthd1ds8wvf400000gn/T//ccg5ycur.ltrans18.ltrans.o
                                                  /var/folders/qz/8dvj07d52mjgthd1ds8wvf400000gn/T//ccg5ycur.ltrans16.ltrans.o
                                                  /var/folders/qz/8dvj07d52mjgthd1ds8wvf400000gn/T//ccg5ycur.ltrans12.ltrans.o
                                                  /var/folders/qz/8dvj07d52mjgthd1ds8wvf400000gn/T//ccg5ycur.ltrans8.ltrans.o
                                                  /var/folders/qz/8dvj07d52mjgthd1ds8wvf400000gn/T//ccg5ycur.ltrans4.ltrans.o
                                                  /var/folders/qz/8dvj07d52mjgthd1ds8wvf400000gn/T//ccg5ycur.ltrans2.ltrans.o
                                                  /var/folders/qz/8dvj07d52mjgthd1ds8wvf400000gn/T//ccg5ycur.ltrans0.ltrans.o
ensureEEPROMContainsValidData                     obj/main/SPRACINGF3/fc/config.o (symbol from plugin)
                                                  obj/main/SPRACINGF3/fc/boot.o (symbol from plugin)
errorVelocityI                                    /var/folders/qz/8dvj07d52mjgthd1ds8wvf400000gn/T//ccg5ycur.ltrans8.ltrans.o
                                                  obj/main/SPRACINGF3/flight/altitudehold.o (symbol from plugin)
                                                  /var/folders/qz/8dvj07d52mjgthd1ds8wvf400000gn/T//ccg5ycur.ltrans2.ltrans.o
esc4wayExitRequested                              obj/main/SPRACINGF3/io/serial_4way.o (symbol from plugin)
esc4wayInit                                       obj/main/SPRACINGF3/io/serial_4way.o (symbol from plugin)
                                                  obj/main/SPRACINGF3/fc/msp_server_fc.o (symbol from plugin)
esc4wayProcess                                    /var/folders/qz/8dvj07d52mjgthd1ds8wvf400000gn/T//ccg5ycur.ltrans13.ltrans.o
                                                  obj/main/SPRACINGF3/io/serial_4way.o (symbol from plugin)
                                                  /var/folders/qz/8dvj07d52mjgthd1ds8wvf400000gn/T//ccg5ycur.ltrans6.ltrans.o
                                                  obj/main/SPRACINGF3/fc/msp_server_fc.o (symbol from plugin)
esc4wayProcessCmd                                 obj/main/SPRACINGF3/io/serial_4way.o (symbol from plugin)
esc4wayRelease                                    obj/main/SPRACINGF3/io/serial_4way.o (symbol from plugin)
esc4wayStart                                      obj/main/SPRACINGF3/io/serial_4way.o (symbol from plugin)
escCount.lto_priv.163                             /var/folders/qz/8dvj07d52mjgthd1ds8wvf400000gn/T//ccg5ycur.ltrans1.ltrans.o
                                                  /var/folders/qz/8dvj07d52mjgthd1ds8wvf400000gn/T//ccg5ycur.ltrans13.ltrans.o
escHardware                                       /var/folders/qz/8dvj07d52mjgthd1ds8wvf400000gn/T//ccg5ycur.ltrans1.ltrans.o
                                                  obj/main/SPRACINGF3/io/serial_4way.o (symbol from plugin)
                                                  /var/folders/qz/8dvj07d52mjgthd1ds8wvf400000gn/T//ccg5ycur.ltrans15.ltrans.o
                                                  /var/folders/qz/8dvj07d52mjgthd1ds8wvf400000gn/T//ccg5ycur.ltrans13.ltrans.o
escSelected                                       /var/folders/qz/8dvj07d52mjgthd1ds8wvf400000gn/T//ccg5ycur.ltrans15.ltrans.o
                                                  obj/main/SPRACINGF3/io/serial_4way.o (symbol from plugin)
                                                  /var/folders/qz/8dvj07d52mjgthd1ds8wvf400000gn/T//ccg5ycur.ltrans13.ltrans.o
                                                  obj/main/SPRACINGF3/io/serial_4way_stk500v2.o (symbol from plugin)
                                                  obj/main/SPRACINGF3/io/serial_4way_avrootloader.o (symbol from plugin)
evaluateOtherData                                 obj/main/SPRACINGF3/fc/fc_serial.o (symbol from plugin)
                                                  obj/main/SPRACINGF3/msp/msp_serial.o (symbol from plugin)
extiChannelRecs                                   /var/folders/qz/8dvj07d52mjgthd1ds8wvf400000gn/T//ccg5ycur.ltrans6.ltrans.o
                                                  obj/main/SPRACINGF3/drivers/exti.o (symbol from plugin)
                                                  /var/folders/qz/8dvj07d52mjgthd1ds8wvf400000gn/T//ccg5ycur.ltrans10.ltrans.o
                                                  /var/folders/qz/8dvj07d52mjgthd1ds8wvf400000gn/T//ccg5ycur.ltrans0.ltrans.o
extiGroupPriority.lto_priv.270                    /var/folders/qz/8dvj07d52mjgthd1ds8wvf400000gn/T//ccg5ycur.ltrans0.ltrans.o
                                                  /var/folders/qz/8dvj07d52mjgthd1ds8wvf400000gn/T//ccg5ycur.ltrans10.ltrans.o
extractAndStoreRxByte                             obj/main/SPRACINGF3/drivers/serial_softserial.o (symbol from plugin)
fabs                                              /opt/gcc-arm-none-eabi-5_4-2016q3/bin/../lib/gcc/arm-none-eabi/5.4.1/../../../../arm-none-eabi/lib/armv7e-m/fpu/libm.a(lib_a-s_fabs.o)
                                                  /opt/gcc-arm-none-eabi-5_4-2016q3/bin/../lib/gcc/arm-none-eabi/5.4.1/../../../../arm-none-eabi/lib/armv7e-m/fpu/libm.a(lib_a-e_pow.o)
failsafeActivate.lto_priv.197                     /var/folders/qz/8dvj07d52mjgthd1ds8wvf400000gn/T//ccg5ycur.ltrans6.ltrans.o
                                                  /var/folders/qz/8dvj07d52mjgthd1ds8wvf400000gn/T//ccg5ycur.ltrans2.ltrans.o
failsafeChannelConfigs_Registry                   /var/folders/qz/8dvj07d52mjgthd1ds8wvf400000gn/T//ccg5ycur.ltrans1.ltrans.o
                                                  obj/main/SPRACINGF3/rx/rx.o (symbol from plugin)
failsafeChannelConfigs_SystemArray                /var/folders/qz/8dvj07d52mjgthd1ds8wvf400000gn/T//ccg5ycur.ltrans1.ltrans.o
                                                  obj/main/SPRACINGF3/rx/rx.o (symbol from plugin)
                                                  /var/folders/qz/8dvj07d52mjgthd1ds8wvf400000gn/T//ccg5ycur.ltrans5.ltrans.o
                                                  obj/main/SPRACINGF3/io/serial_cli.o (symbol from plugin)
                                                  obj/main/SPRACINGF3/fc/msp_server_fc.o (symbol from plugin)
failsafeConfig_Registry                           /var/folders/qz/8dvj07d52mjgthd1ds8wvf400000gn/T//ccg5ycur.ltrans1.ltrans.o
                                                  obj/main/SPRACINGF3/flight/failsafe.o (symbol from plugin)
failsafeConfig_System                             /var/folders/qz/8dvj07d52mjgthd1ds8wvf400000gn/T//ccg5ycur.ltrans1.ltrans.o
                                                  obj/main/SPRACINGF3/flight/failsafe.o (symbol from plugin)
                                                  /var/folders/qz/8dvj07d52mjgthd1ds8wvf400000gn/T//ccg5ycur.ltrans8.ltrans.o
                                                  /var/folders/qz/8dvj07d52mjgthd1ds8wvf400000gn/T//ccg5ycur.ltrans6.ltrans.o
                                                  /var/folders/qz/8dvj07d52mjgthd1ds8wvf400000gn/T//ccg5ycur.ltrans2.ltrans.o
                                                  obj/main/SPRACINGF3/fc/msp_server_fc.o (symbol from plugin)
failsafeInit                                      obj/main/SPRACINGF3/flight/failsafe.o (symbol from plugin)
                                                  obj/main/SPRACINGF3/fc/boot.o (symbol from plugin)
failsafeIsActive                                  obj/main/SPRACINGF3/flight/failsafe.o (symbol from plugin)
                                                  obj/main/SPRACINGF3/flight/mixer.o (symbol from plugin)
                                                  obj/main/SPRACINGF3/fc/rc_controls.o (symbol from plugin)
                                                  obj/main/SPRACINGF3/fc/cleanflight_fc.o (symbol from plugin)
failsafeIsMonitoring                              obj/main/SPRACINGF3/flight/failsafe.o (symbol from plugin)
                                                  obj/main/SPRACINGF3/fc/cleanflight_fc.o (symbol from plugin)
failsafeIsReceivingRxData                         obj/main/SPRACINGF3/flight/failsafe.o (symbol from plugin)
failsafeOnRxResume                                obj/main/SPRACINGF3/flight/failsafe.o (symbol from plugin)
                                                  obj/main/SPRACINGF3/rx/rx.o (symbol from plugin)
failsafeOnRxSuspend                               obj/main/SPRACINGF3/flight/failsafe.o (symbol from plugin)
                                                  obj/main/SPRACINGF3/rx/rx.o (symbol from plugin)
failsafeOnValidDataFailed                         obj/main/SPRACINGF3/flight/failsafe.o (symbol from plugin)
failsafeOnValidDataReceived                       obj/main/SPRACINGF3/flight/failsafe.o (symbol from plugin)
failsafePhase                                     obj/main/SPRACINGF3/flight/failsafe.o (symbol from plugin)
                                                  obj/main/SPRACINGF3/fc/cleanflight_fc.o (symbol from plugin)
failsafeStartMonitoring                           obj/main/SPRACINGF3/flight/failsafe.o (symbol from plugin)
                                                  obj/main/SPRACINGF3/fc/cleanflight_fc.o (symbol from plugin)
failsafeState.lto_priv.182                        /var/folders/qz/8dvj07d52mjgthd1ds8wvf400000gn/T//ccg5ycur.ltrans16.ltrans.o
                                                  /var/folders/qz/8dvj07d52mjgthd1ds8wvf400000gn/T//ccg5ycur.ltrans8.ltrans.o
                                                  /var/folders/qz/8dvj07d52mjgthd1ds8wvf400000gn/T//ccg5ycur.ltrans6.ltrans.o
                                                  /var/folders/qz/8dvj07d52mjgthd1ds8wvf400000gn/T//ccg5ycur.ltrans4.ltrans.o
                                                  /var/folders/qz/8dvj07d52mjgthd1ds8wvf400000gn/T//ccg5ycur.ltrans2.ltrans.o
                                                  /var/folders/qz/8dvj07d52mjgthd1ds8wvf400000gn/T//ccg5ycur.ltrans0.ltrans.o
failsafeUpdateState                               obj/main/SPRACINGF3/flight/failsafe.o (symbol from plugin)
                                                  obj/main/SPRACINGF3/fc/cleanflight_fc.o (symbol from plugin)
failureMode                                       /var/folders/qz/8dvj07d52mjgthd1ds8wvf400000gn/T//ccg5ycur.ltrans7.ltrans.o
                                                  obj/main/SPRACINGF3/drivers/system.o (symbol from plugin)
                                                  /var/folders/qz/8dvj07d52mjgthd1ds8wvf400000gn/T//ccg5ycur.ltrans8.ltrans.o
                                                  /var/folders/qz/8dvj07d52mjgthd1ds8wvf400000gn/T//ccg5ycur.ltrans0.ltrans.o
                                                  obj/main/SPRACINGF3/config/config_eeprom.o (symbol from plugin)
                                                  obj/main/SPRACINGF3/fc/config.o (symbol from plugin)
                                                  obj/main/SPRACINGF3/fc/boot.o (symbol from plugin)
                                                  obj/main/SPRACINGF3/drivers/accgyro_mpu.o (symbol from plugin)
fastA2F                                           /var/folders/qz/8dvj07d52mjgthd1ds8wvf400000gn/T//ccg5ycur.ltrans7.ltrans.o
                                                  obj/main/SPRACINGF3/common/typeconversion.o (symbol from plugin)
                                                  /var/folders/qz/8dvj07d52mjgthd1ds8wvf400000gn/T//ccg5ycur.ltrans16.ltrans.o
                                                  /var/folders/qz/8dvj07d52mjgthd1ds8wvf400000gn/T//ccg5ycur.ltrans5.ltrans.o
                                                  obj/main/SPRACINGF3/io/serial_cli.o (symbol from plugin)
fbm320_init                                       obj/main/SPRACINGF3/drivers/fbm320.o (symbol from plugin)
                                                  obj/main/SPRACINGF3/fc/boot.o (symbol from plugin)
fc_acc                                            /var/folders/qz/8dvj07d52mjgthd1ds8wvf400000gn/T//ccg5ycur.ltrans8.ltrans.o
                                                  obj/main/SPRACINGF3/flight/imu.o (symbol from plugin)
                                                  /var/folders/qz/8dvj07d52mjgthd1ds8wvf400000gn/T//ccg5ycur.ltrans4.ltrans.o
feature                                           obj/main/SPRACINGF3/config/feature.o (symbol from plugin)
                                                  obj/main/SPRACINGF3/sensors/battery.o (symbol from plugin)
                                                  obj/main/SPRACINGF3/sensors/acceleration.o (symbol from plugin)
                                                  obj/main/SPRACINGF3/rx/pwm.o (symbol from plugin)
                                                  obj/main/SPRACINGF3/rx/rx.o (symbol from plugin)
                                                  obj/main/SPRACINGF3/flight/mixer.o (symbol from plugin)
                                                  obj/main/SPRACINGF3/fc/msp_server_fc.o (symbol from plugin)
                                                  obj/main/SPRACINGF3/fc/config.o (symbol from plugin)
                                                  obj/main/SPRACINGF3/fc/rc_controls.o (symbol from plugin)
                                                  obj/main/SPRACINGF3/fc/cleanflight_fc.o (symbol from plugin)
                                                  obj/main/SPRACINGF3/fc/boot.o (symbol from plugin)
featureClear                                      obj/main/SPRACINGF3/config/feature.o (symbol from plugin)
                                                  obj/main/SPRACINGF3/io/serial_cli.o (symbol from plugin)
                                                  obj/main/SPRACINGF3/fc/config.o (symbol from plugin)
featureClearAll                                   obj/main/SPRACINGF3/config/feature.o (symbol from plugin)
                                                  obj/main/SPRACINGF3/fc/msp_server_fc.o (symbol from plugin)
                                                  obj/main/SPRACINGF3/fc/config.o (symbol from plugin)
featureConfig_Registry                            /var/folders/qz/8dvj07d52mjgthd1ds8wvf400000gn/T//ccg5ycur.ltrans1.ltrans.o
                                                  obj/main/SPRACINGF3/config/feature.o (symbol from plugin)
featureConfig_System                              /var/folders/qz/8dvj07d52mjgthd1ds8wvf400000gn/T//ccg5ycur.ltrans1.ltrans.o
                                                  obj/main/SPRACINGF3/config/feature.o (symbol from plugin)
                                                  /var/folders/qz/8dvj07d52mjgthd1ds8wvf400000gn/T//ccg5ycur.ltrans8.ltrans.o
                                                  /var/folders/qz/8dvj07d52mjgthd1ds8wvf400000gn/T//ccg5ycur.ltrans5.ltrans.o
                                                  /var/folders/qz/8dvj07d52mjgthd1ds8wvf400000gn/T//ccg5ycur.ltrans0.ltrans.o
featureConfigured                                 obj/main/SPRACINGF3/config/feature.o (symbol from plugin)
                                                  obj/main/SPRACINGF3/fc/config.o (symbol from plugin)
featureMask                                       obj/main/SPRACINGF3/config/feature.o (symbol from plugin)
                                                  obj/main/SPRACINGF3/io/serial_cli.o (symbol from plugin)
                                                  obj/main/SPRACINGF3/fc/msp_server_fc.o (symbol from plugin)
featureSet                                        obj/main/SPRACINGF3/config/feature.o (symbol from plugin)
                                                  obj/main/SPRACINGF3/io/serial_cli.o (symbol from plugin)
                                                  obj/main/SPRACINGF3/fc/msp_server_fc.o (symbol from plugin)
                                                  obj/main/SPRACINGF3/fc/config.o (symbol from plugin)
filterApplyAverage                                obj/main/SPRACINGF3/common/filter.o (symbol from plugin)
filterApplyAveragef                               obj/main/SPRACINGF3/common/filter.o (symbol from plugin)
filterRc                                          obj/main/SPRACINGF3/fc/cleanflight_fc.o (symbol from plugin)
filteredCycleTime                                 obj/main/SPRACINGF3/fc/cleanflight_fc.o (symbol from plugin)
findBoxByBoxId.lto_priv.112                       /var/folders/qz/8dvj07d52mjgthd1ds8wvf400000gn/T//ccg5ycur.ltrans6.ltrans.o
                                                  /var/folders/qz/8dvj07d52mjgthd1ds8wvf400000gn/T//ccg5ycur.ltrans1.ltrans.o
                                                  /var/folders/qz/8dvj07d52mjgthd1ds8wvf400000gn/T//ccg5ycur.ltrans0.ltrans.o
findNextSerialPortConfig                          obj/main/SPRACINGF3/io/serial.o (symbol from plugin)
                                                  obj/main/SPRACINGF3/msp/msp_serial.o (symbol from plugin)
findNextSharedSerialPort                          obj/main/SPRACINGF3/io/serial.o (symbol from plugin)
                                                  obj/main/SPRACINGF3/fc/cleanflight_fc.o (symbol from plugin)
findSerialPortConfig                              obj/main/SPRACINGF3/io/serial.o (symbol from plugin)
                                                  obj/main/SPRACINGF3/msp/msp_serial.o (symbol from plugin)
                                                  obj/main/SPRACINGF3/rx/srxl.o (symbol from plugin)
                                                  obj/main/SPRACINGF3/rx/ibus.o (symbol from plugin)
                                                  obj/main/SPRACINGF3/rx/xbus.o (symbol from plugin)
                                                  obj/main/SPRACINGF3/rx/spektrum.o (symbol from plugin)
                                                  obj/main/SPRACINGF3/rx/sumh.o (symbol from plugin)
                                                  obj/main/SPRACINGF3/rx/sumd.o (symbol from plugin)
                                                  obj/main/SPRACINGF3/rx/sbus.o (symbol from plugin)
findSerialPortUsageByPort                         obj/main/SPRACINGF3/io/serial.o (symbol from plugin)
findSharedSerialPort                              obj/main/SPRACINGF3/io/serial.o (symbol from plugin)
                                                  obj/main/SPRACINGF3/fc/cleanflight_fc.o (symbol from plugin)
finite                                            /opt/gcc-arm-none-eabi-5_4-2016q3/bin/../lib/gcc/arm-none-eabi/5.4.1/../../../../arm-none-eabi/lib/armv7e-m/fpu/libm.a(lib_a-s_finite.o)
                                                  /opt/gcc-arm-none-eabi-5_4-2016q3/bin/../lib/gcc/arm-none-eabi/5.4.1/../../../../arm-none-eabi/lib/armv7e-m/fpu/libm.a(lib_a-w_pow.o)
flag                                              /var/folders/qz/8dvj07d52mjgthd1ds8wvf400000gn/T//ccg5ycur.ltrans11.ltrans.o
                                                  obj/main/SPRACINGF3/drivers/nrf2401.o (symbol from plugin)
                                                  /var/folders/qz/8dvj07d52mjgthd1ds8wvf400000gn/T//ccg5ycur.ltrans12.ltrans.o
                                                  /var/folders/qz/8dvj07d52mjgthd1ds8wvf400000gn/T//ccg5ycur.ltrans8.ltrans.o
                                                  /var/folders/qz/8dvj07d52mjgthd1ds8wvf400000gn/T//ccg5ycur.ltrans4.ltrans.o
                                                  /var/folders/qz/8dvj07d52mjgthd1ds8wvf400000gn/T//ccg5ycur.ltrans2.ltrans.o
                                                  obj/main/SPRACINGF3/drivers/led.o (symbol from plugin)
                                                  obj/main/SPRACINGF3/sensors/battery.o (symbol from plugin)
                                                  obj/main/SPRACINGF3/rx/rx.o (symbol from plugin)
                                                  obj/main/SPRACINGF3/flight/imu.o (symbol from plugin)
                                                  obj/main/SPRACINGF3/flight/altitudehold.o (symbol from plugin)
flashfsEraseCompletely                            obj/main/SPRACINGF3/io/flashfs.o (symbol from plugin)
flashfsEraseRange                                 obj/main/SPRACINGF3/io/flashfs.o (symbol from plugin)
flashfsFlushAsync                                 obj/main/SPRACINGF3/io/flashfs.o (symbol from plugin)
flashfsFlushSync                                  obj/main/SPRACINGF3/io/flashfs.o (symbol from plugin)
flashfsGetGeometry                                obj/main/SPRACINGF3/io/flashfs.o (symbol from plugin)
flashfsGetOffset                                  obj/main/SPRACINGF3/io/flashfs.o (symbol from plugin)
flashfsGetSize                                    obj/main/SPRACINGF3/io/flashfs.o (symbol from plugin)
flashfsGetWriteBufferFreeSpace                    obj/main/SPRACINGF3/io/flashfs.o (symbol from plugin)
flashfsGetWriteBufferSize                         obj/main/SPRACINGF3/io/flashfs.o (symbol from plugin)
flashfsIdentifyStartOfFreeSpace                   obj/main/SPRACINGF3/io/flashfs.o (symbol from plugin)
flashfsInit                                       obj/main/SPRACINGF3/io/flashfs.o (symbol from plugin)
flashfsIsEOF                                      obj/main/SPRACINGF3/io/flashfs.o (symbol from plugin)
flashfsIsReady                                    obj/main/SPRACINGF3/io/flashfs.o (symbol from plugin)
flashfsReadAbs                                    obj/main/SPRACINGF3/io/flashfs.o (symbol from plugin)
flashfsSeekAbs                                    obj/main/SPRACINGF3/io/flashfs.o (symbol from plugin)
flashfsSeekRel                                    obj/main/SPRACINGF3/io/flashfs.o (symbol from plugin)
flashfsWrite                                      obj/main/SPRACINGF3/io/flashfs.o (symbol from plugin)
flashfsWriteByte                                  obj/main/SPRACINGF3/io/flashfs.o (symbol from plugin)
flightModeFlags                                   /var/folders/qz/8dvj07d52mjgthd1ds8wvf400000gn/T//ccg5ycur.ltrans1.ltrans.o
                                                  obj/main/SPRACINGF3/fc/runtime_config.o (symbol from plugin)
                                                  /var/folders/qz/8dvj07d52mjgthd1ds8wvf400000gn/T//ccg5ycur.ltrans8.ltrans.o
                                                  /var/folders/qz/8dvj07d52mjgthd1ds8wvf400000gn/T//ccg5ycur.ltrans6.ltrans.o
                                                  /var/folders/qz/8dvj07d52mjgthd1ds8wvf400000gn/T//ccg5ycur.ltrans4.ltrans.o
                                                  /var/folders/qz/8dvj07d52mjgthd1ds8wvf400000gn/T//ccg5ycur.ltrans2.ltrans.o
                                                  obj/main/SPRACINGF3/rx/rx.o (symbol from plugin)
                                                  obj/main/SPRACINGF3/flight/pid_mw23.o (symbol from plugin)
                                                  obj/main/SPRACINGF3/flight/pid_mwrewrite.o (symbol from plugin)
                                                  obj/main/SPRACINGF3/flight/pid_luxfloat.o (symbol from plugin)
                                                  obj/main/SPRACINGF3/flight/altitudehold.o (symbol from plugin)
                                                  obj/main/SPRACINGF3/fc/msp_server_fc.o (symbol from plugin)
                                                  obj/main/SPRACINGF3/fc/cleanflight_fc.o (symbol from plugin)
ftoa                                              /var/folders/qz/8dvj07d52mjgthd1ds8wvf400000gn/T//ccg5ycur.ltrans7.ltrans.o
                                                  obj/main/SPRACINGF3/common/typeconversion.o (symbol from plugin)
                                                  /var/folders/qz/8dvj07d52mjgthd1ds8wvf400000gn/T//ccg5ycur.ltrans14.ltrans.o
                                                  /var/folders/qz/8dvj07d52mjgthd1ds8wvf400000gn/T//ccg5ycur.ltrans5.ltrans.o
                                                  obj/main/SPRACINGF3/io/serial_cli.o (symbol from plugin)
g_pfnVectors                                      obj/main/SPRACINGF3/startup_stm32f30x_md_gcc.o
generatePitchRollCurve                            /var/folders/qz/8dvj07d52mjgthd1ds8wvf400000gn/T//ccg5ycur.ltrans8.ltrans.o
                                                  obj/main/SPRACINGF3/fc/rc_curves.o (symbol from plugin)
                                                  /var/folders/qz/8dvj07d52mjgthd1ds8wvf400000gn/T//ccg5ycur.ltrans14.ltrans.o
                                                  /var/folders/qz/8dvj07d52mjgthd1ds8wvf400000gn/T//ccg5ycur.ltrans2.ltrans.o
                                                  obj/main/SPRACINGF3/fc/rc_adjustments.o (symbol from plugin)
                                                  obj/main/SPRACINGF3/fc/rate_profile.o (symbol from plugin)
generateThrottleCurve                             /var/folders/qz/8dvj07d52mjgthd1ds8wvf400000gn/T//ccg5ycur.ltrans8.ltrans.o
                                                  obj/main/SPRACINGF3/fc/rc_curves.o (symbol from plugin)
                                                  /var/folders/qz/8dvj07d52mjgthd1ds8wvf400000gn/T//ccg5ycur.ltrans14.ltrans.o
                                                  /var/folders/qz/8dvj07d52mjgthd1ds8wvf400000gn/T//ccg5ycur.ltrans2.ltrans.o
                                                  obj/main/SPRACINGF3/fc/rc_adjustments.o (symbol from plugin)
                                                  obj/main/SPRACINGF3/fc/rate_profile.o (symbol from plugin)
generateYawCurve                                  /var/folders/qz/8dvj07d52mjgthd1ds8wvf400000gn/T//ccg5ycur.ltrans8.ltrans.o
                                                  obj/main/SPRACINGF3/fc/rc_curves.o (symbol from plugin)
                                                  /var/folders/qz/8dvj07d52mjgthd1ds8wvf400000gn/T//ccg5ycur.ltrans14.ltrans.o
                                                  /var/folders/qz/8dvj07d52mjgthd1ds8wvf400000gn/T//ccg5ycur.ltrans2.ltrans.o
                                                  obj/main/SPRACINGF3/fc/rate_profile.o (symbol from plugin)
getArmingBeepTimeMicros                           obj/main/SPRACINGF3/io/beeper.o (symbol from plugin)
getArmingPreventionBlinkMask                      obj/main/SPRACINGF3/fc/cleanflight_fc.o (symbol from plugin)
getBatteryState                                   obj/main/SPRACINGF3/sensors/battery.o (symbol from plugin)
getBatteryStateString                             obj/main/SPRACINGF3/sensors/battery.o (symbol from plugin)
                                                  obj/main/SPRACINGF3/io/serial_cli.o (symbol from plugin)
getControlRateConfig                              obj/main/SPRACINGF3/fc/rate_profile.o (symbol from plugin)
getCosTiltAngle                                   obj/main/SPRACINGF3/flight/imu.o (symbol from plugin)
getCurrentControlRateProfile                      obj/main/SPRACINGF3/fc/rate_profile.o (symbol from plugin)
                                                  obj/main/SPRACINGF3/io/serial_cli.o (symbol from plugin)
                                                  obj/main/SPRACINGF3/fc/rc_adjustments.o (symbol from plugin)
getCurrentProfile                                 obj/main/SPRACINGF3/config/profile.o (symbol from plugin)
                                                  obj/main/SPRACINGF3/io/serial_cli.o (symbol from plugin)
                                                  obj/main/SPRACINGF3/fc/msp_server_fc.o (symbol from plugin)
                                                  obj/main/SPRACINGF3/fc/config.o (symbol from plugin)
getLedHsv                                         obj/main/SPRACINGF3/drivers/light_ws2811strip.o (symbol from plugin)
getRcStickDeflection                              /var/folders/qz/8dvj07d52mjgthd1ds8wvf400000gn/T//ccg5ycur.ltrans8.ltrans.o
                                                  obj/main/SPRACINGF3/fc/rc_controls.o (symbol from plugin)
                                                  /var/folders/qz/8dvj07d52mjgthd1ds8wvf400000gn/T//ccg5ycur.ltrans6.ltrans.o
                                                  obj/main/SPRACINGF3/flight/pid_mwrewrite.o (symbol from plugin)
                                                  obj/main/SPRACINGF3/flight/pid_luxfloat.o (symbol from plugin)
getTaskDeltaTime                                  obj/main/SPRACINGF3/scheduler/scheduler.o (symbol from plugin)
                                                  obj/main/SPRACINGF3/fc/cleanflight_fc.o (symbol from plugin)
getTaskInfo                                       obj/main/SPRACINGF3/scheduler/scheduler.o (symbol from plugin)
                                                  obj/main/SPRACINGF3/io/serial_cli.o (symbol from plugin)
gpioInit                                          /var/folders/qz/8dvj07d52mjgthd1ds8wvf400000gn/T//ccg5ycur.ltrans3.ltrans.o
                                                  obj/main/SPRACINGF3/drivers/gpio_stm32f30x.o (symbol from plugin)
                                                  /var/folders/qz/8dvj07d52mjgthd1ds8wvf400000gn/T//ccg5ycur.ltrans15.ltrans.o
                                                  /var/folders/qz/8dvj07d52mjgthd1ds8wvf400000gn/T//ccg5ycur.ltrans13.ltrans.o
                                                  /var/folders/qz/8dvj07d52mjgthd1ds8wvf400000gn/T//ccg5ycur.ltrans10.ltrans.o
                                                  /var/folders/qz/8dvj07d52mjgthd1ds8wvf400000gn/T//ccg5ycur.ltrans0.ltrans.o
                                                  obj/main/SPRACINGF3/drivers/led.o (symbol from plugin)
                                                  obj/main/SPRACINGF3/drivers/nrf2401.o (symbol from plugin)
                                                  obj/main/SPRACINGF3/rx/spektrum.o (symbol from plugin)
                                                  obj/main/SPRACINGF3/io/serial_4way.o (symbol from plugin)
                                                  obj/main/SPRACINGF3/drivers/serial_softserial.o (symbol from plugin)
                                                  obj/main/SPRACINGF3/drivers/compass_hmc5883l.o (symbol from plugin)
                                                  obj/main/SPRACINGF3/drivers/accgyro_mpu.o (symbol from plugin)
                                                  obj/main/SPRACINGF3/drivers/pwm_rx.o (symbol from plugin)
                                                  obj/main/SPRACINGF3/drivers/pwm_output.o (symbol from plugin)
                                                  obj/main/SPRACINGF3/drivers/timer.o (symbol from plugin)
                                                  obj/main/SPRACINGF3/drivers/system_stm32f30x.o (symbol from plugin)
                                                  obj/main/SPRACINGF3/drivers/serial_uart.o (symbol from plugin)
gyro                                              /var/folders/qz/8dvj07d52mjgthd1ds8wvf400000gn/T//ccg5ycur.ltrans6.ltrans.o
                                                  obj/main/SPRACINGF3/sensors/gyro.o (symbol from plugin)
                                                  /var/folders/qz/8dvj07d52mjgthd1ds8wvf400000gn/T//ccg5ycur.ltrans4.ltrans.o
                                                  /var/folders/qz/8dvj07d52mjgthd1ds8wvf400000gn/T//ccg5ycur.ltrans0.ltrans.o
                                                  obj/main/SPRACINGF3/sensors/initialisation.o (symbol from plugin)
                                                  obj/main/SPRACINGF3/drivers/gyro_sync.o (symbol from plugin)
                                                  obj/main/SPRACINGF3/flight/imu.o (symbol from plugin)
                                                  obj/main/SPRACINGF3/flight/pid_luxfloat.o (symbol from plugin)
                                                  obj/main/SPRACINGF3/fc/cleanflight_fc.o (symbol from plugin)
gyroADC                                           /var/folders/qz/8dvj07d52mjgthd1ds8wvf400000gn/T//ccg5ycur.ltrans1.ltrans.o
                                                  obj/main/SPRACINGF3/sensors/gyro.o (symbol from plugin)
                                                  /var/folders/qz/8dvj07d52mjgthd1ds8wvf400000gn/T//ccg5ycur.ltrans6.ltrans.o
                                                  /var/folders/qz/8dvj07d52mjgthd1ds8wvf400000gn/T//ccg5ycur.ltrans4.ltrans.o
                                                  obj/main/SPRACINGF3/flight/imu.o (symbol from plugin)
                                                  obj/main/SPRACINGF3/flight/pid_mw23.o (symbol from plugin)
                                                  obj/main/SPRACINGF3/flight/pid_mwrewrite.o (symbol from plugin)
                                                  obj/main/SPRACINGF3/flight/pid_luxfloat.o (symbol from plugin)
                                                  obj/main/SPRACINGF3/fc/msp_server_fc.o (symbol from plugin)
gyroAlign                                         /var/folders/qz/8dvj07d52mjgthd1ds8wvf400000gn/T//ccg5ycur.ltrans4.ltrans.o
                                                  obj/main/SPRACINGF3/sensors/gyro.o (symbol from plugin)
                                                  /var/folders/qz/8dvj07d52mjgthd1ds8wvf400000gn/T//ccg5ycur.ltrans0.ltrans.o
                                                  obj/main/SPRACINGF3/sensors/initialisation.o (symbol from plugin)
gyroConfig_Registry                               /var/folders/qz/8dvj07d52mjgthd1ds8wvf400000gn/T//ccg5ycur.ltrans4.ltrans.o
                                                  obj/main/SPRACINGF3/sensors/gyro.o (symbol from plugin)
gyroConfig_System                                 /var/folders/qz/8dvj07d52mjgthd1ds8wvf400000gn/T//ccg5ycur.ltrans4.ltrans.o
                                                  obj/main/SPRACINGF3/sensors/gyro.o (symbol from plugin)
                                                  /var/folders/qz/8dvj07d52mjgthd1ds8wvf400000gn/T//ccg5ycur.ltrans0.ltrans.o
                                                  obj/main/SPRACINGF3/sensors/initialisation.o (symbol from plugin)
                                                  obj/main/SPRACINGF3/fc/boot.o (symbol from plugin)
gyroMPU6xxxCalculateDivider                       obj/main/SPRACINGF3/drivers/gyro_sync.o (symbol from plugin)
                                                  obj/main/SPRACINGF3/drivers/accgyro_mpu6050.o (symbol from plugin)
gyroScale.lto_priv.250                            /var/folders/qz/8dvj07d52mjgthd1ds8wvf400000gn/T//ccg5ycur.ltrans4.ltrans.o
                                                  /var/folders/qz/8dvj07d52mjgthd1ds8wvf400000gn/T//ccg5ycur.ltrans0.ltrans.o
gyroSetCalibrationCycles                          obj/main/SPRACINGF3/sensors/gyro.o (symbol from plugin)
                                                  obj/main/SPRACINGF3/fc/rc_controls.o (symbol from plugin)
                                                  obj/main/SPRACINGF3/fc/boot.o (symbol from plugin)
gyroSetSampleRate                                 obj/main/SPRACINGF3/drivers/gyro_sync.o (symbol from plugin)
                                                  obj/main/SPRACINGF3/fc/boot.o (symbol from plugin)
gyroSyncCheckUpdate                               obj/main/SPRACINGF3/drivers/gyro_sync.o (symbol from plugin)
                                                  obj/main/SPRACINGF3/fc/cleanflight_fc.o (symbol from plugin)
gyroUpdate                                        obj/main/SPRACINGF3/sensors/gyro.o (symbol from plugin)
                                                  obj/main/SPRACINGF3/flight/imu.o (symbol from plugin)
handleInflightCalibrationStickPosition            obj/main/SPRACINGF3/fc/cleanflight_fc.o (symbol from plugin)
                                                  obj/main/SPRACINGF3/fc/rc_controls.o (symbol from plugin)
handleOneshotFeatureChangeOnRestart               /var/folders/qz/8dvj07d52mjgthd1ds8wvf400000gn/T//ccg5ycur.ltrans8.ltrans.o
                                                  obj/main/SPRACINGF3/fc/config.o (symbol from plugin)
                                                  /var/folders/qz/8dvj07d52mjgthd1ds8wvf400000gn/T//ccg5ycur.ltrans14.ltrans.o
                                                  /var/folders/qz/8dvj07d52mjgthd1ds8wvf400000gn/T//ccg5ycur.ltrans6.ltrans.o
                                                  obj/main/SPRACINGF3/io/serial_cli.o (symbol from plugin)
                                                  obj/main/SPRACINGF3/fc/msp_server_fc.o (symbol from plugin)
handleUsartTxDma.lto_priv.107                     /var/folders/qz/8dvj07d52mjgthd1ds8wvf400000gn/T//ccg5ycur.ltrans3.ltrans.o
                                                  /var/folders/qz/8dvj07d52mjgthd1ds8wvf400000gn/T//ccg5ycur.ltrans9.ltrans.o
haveUpdatedRcCommandsOnce.lto_priv.219            /var/folders/qz/8dvj07d52mjgthd1ds8wvf400000gn/T//ccg5ycur.ltrans2.ltrans.o
                                                  /var/folders/qz/8dvj07d52mjgthd1ds8wvf400000gn/T//ccg5ycur.ltrans4.ltrans.o
headFreeModeHold                                  /var/folders/qz/8dvj07d52mjgthd1ds8wvf400000gn/T//ccg5ycur.ltrans4.ltrans.o
                                                  obj/main/SPRACINGF3/fc/cleanflight_fc.o (symbol from plugin)
                                                  /var/folders/qz/8dvj07d52mjgthd1ds8wvf400000gn/T//ccg5ycur.ltrans18.ltrans.o
hmc5883_extiHandler                               obj/main/SPRACINGF3/drivers/compass_hmc5883l.o (symbol from plugin)
hmc5883lDetect                                    obj/main/SPRACINGF3/drivers/compass_hmc5883l.o (symbol from plugin)
hmc5883lInit                                      obj/main/SPRACINGF3/drivers/compass_hmc5883l.o (symbol from plugin)
hmc5883lRead                                      obj/main/SPRACINGF3/drivers/compass_hmc5883l.o (symbol from plugin)
hse_value                                         obj/main/SPRACINGF3/target/system_stm32f30x.o (symbol from plugin)
hsvToRgb24                                        obj/main/SPRACINGF3/common/colorconversion.o (symbol from plugin)
                                                  obj/main/SPRACINGF3/drivers/light_ws2811strip.o (symbol from plugin)
i2a                                               obj/main/SPRACINGF3/common/typeconversion.o (symbol from plugin)
                                                  obj/main/SPRACINGF3/common/printf.o (symbol from plugin)
i2c1ErrorCount.lto_priv.121                       /var/folders/qz/8dvj07d52mjgthd1ds8wvf400000gn/T//ccg5ycur.ltrans1.ltrans.o
                                                  /var/folders/qz/8dvj07d52mjgthd1ds8wvf400000gn/T//ccg5ycur.ltrans16.ltrans.o
                                                  /var/folders/qz/8dvj07d52mjgthd1ds8wvf400000gn/T//ccg5ycur.ltrans3.ltrans.o
i2c2ErrorCount.lto_priv.122                       /var/folders/qz/8dvj07d52mjgthd1ds8wvf400000gn/T//ccg5ycur.ltrans1.ltrans.o
                                                  /var/folders/qz/8dvj07d52mjgthd1ds8wvf400000gn/T//ccg5ycur.ltrans16.ltrans.o
                                                  /var/folders/qz/8dvj07d52mjgthd1ds8wvf400000gn/T//ccg5ycur.ltrans3.ltrans.o
i2cGetErrorCounter                                obj/main/SPRACINGF3/drivers/bus_i2c_stm32f30x.o (symbol from plugin)
                                                  obj/main/SPRACINGF3/io/serial_cli.o (symbol from plugin)
                                                  obj/main/SPRACINGF3/fc/msp_server_fc.o (symbol from plugin)
i2cInit                                           obj/main/SPRACINGF3/drivers/bus_i2c_stm32f30x.o (symbol from plugin)
                                                  obj/main/SPRACINGF3/fc/boot.o (symbol from plugin)
i2cInitPort                                       obj/main/SPRACINGF3/drivers/bus_i2c_stm32f30x.o (symbol from plugin)
i2cRead                                           /var/folders/qz/8dvj07d52mjgthd1ds8wvf400000gn/T//ccg5ycur.ltrans3.ltrans.o
                                                  obj/main/SPRACINGF3/drivers/bus_i2c_stm32f30x.o (symbol from plugin)
                                                  /var/folders/qz/8dvj07d52mjgthd1ds8wvf400000gn/T//ccg5ycur.ltrans11.ltrans.o
                                                  /var/folders/qz/8dvj07d52mjgthd1ds8wvf400000gn/T//ccg5ycur.ltrans10.ltrans.o
                                                  /var/folders/qz/8dvj07d52mjgthd1ds8wvf400000gn/T//ccg5ycur.ltrans0.ltrans.o
                                                  obj/main/SPRACINGF3/drivers/fbm320.o (symbol from plugin)
                                                  obj/main/SPRACINGF3/drivers/compass_hmc5883l.o (symbol from plugin)
                                                  obj/main/SPRACINGF3/drivers/compass_ak8975.o (symbol from plugin)
                                                  obj/main/SPRACINGF3/drivers/barometer_ms5611.o (symbol from plugin)
                                                  obj/main/SPRACINGF3/drivers/accgyro_mpu.o (symbol from plugin)
i2cSetOverclock                                   obj/main/SPRACINGF3/drivers/bus_i2c_stm32f30x.o (symbol from plugin)
                                                  obj/main/SPRACINGF3/fc/boot.o (symbol from plugin)
i2cTimeoutUserCallback                            obj/main/SPRACINGF3/drivers/bus_i2c_stm32f30x.o (symbol from plugin)
i2cWrite                                          /var/folders/qz/8dvj07d52mjgthd1ds8wvf400000gn/T//ccg5ycur.ltrans3.ltrans.o
                                                  obj/main/SPRACINGF3/drivers/bus_i2c_stm32f30x.o (symbol from plugin)
                                                  /var/folders/qz/8dvj07d52mjgthd1ds8wvf400000gn/T//ccg5ycur.ltrans11.ltrans.o
                                                  /var/folders/qz/8dvj07d52mjgthd1ds8wvf400000gn/T//ccg5ycur.ltrans10.ltrans.o
                                                  /var/folders/qz/8dvj07d52mjgthd1ds8wvf400000gn/T//ccg5ycur.ltrans0.ltrans.o
                                                  obj/main/SPRACINGF3/drivers/fbm320.o (symbol from plugin)
                                                  obj/main/SPRACINGF3/drivers/compass_hmc5883l.o (symbol from plugin)
                                                  obj/main/SPRACINGF3/drivers/compass_ak8975.o (symbol from plugin)
                                                  obj/main/SPRACINGF3/drivers/barometer_ms5611.o (symbol from plugin)
                                                  obj/main/SPRACINGF3/drivers/accgyro_mpu.o (symbol from plugin)
                                                  obj/main/SPRACINGF3/drivers/display_ug2864hsweg01.o (symbol from plugin)
i2c_OLED_clear_display                            obj/main/SPRACINGF3/drivers/display_ug2864hsweg01.o (symbol from plugin)
i2c_OLED_clear_display_quick                      obj/main/SPRACINGF3/drivers/display_ug2864hsweg01.o (symbol from plugin)
i2c_OLED_send_char                                obj/main/SPRACINGF3/drivers/display_ug2864hsweg01.o (symbol from plugin)
i2c_OLED_send_string                              obj/main/SPRACINGF3/drivers/display_ug2864hsweg01.o (symbol from plugin)
i2c_OLED_set_line                                 obj/main/SPRACINGF3/drivers/display_ug2864hsweg01.o (symbol from plugin)
i2c_OLED_set_xy                                   obj/main/SPRACINGF3/drivers/display_ug2864hsweg01.o (symbol from plugin)
ibusFrameStatus                                   obj/main/SPRACINGF3/rx/ibus.o (symbol from plugin)
ibusInit                                          obj/main/SPRACINGF3/rx/ibus.o (symbol from plugin)
imuCalculateAcceleration                          obj/main/SPRACINGF3/flight/imu.o (symbol from plugin)
imuComputeRotationMatrix.lto_priv.234             /var/folders/qz/8dvj07d52mjgthd1ds8wvf400000gn/T//ccg5ycur.ltrans6.ltrans.o
                                                  /var/folders/qz/8dvj07d52mjgthd1ds8wvf400000gn/T//ccg5ycur.ltrans4.ltrans.o
                                                  /var/folders/qz/8dvj07d52mjgthd1ds8wvf400000gn/T//ccg5ycur.ltrans0.ltrans.o
imuConfig_Registry                                /var/folders/qz/8dvj07d52mjgthd1ds8wvf400000gn/T//ccg5ycur.ltrans1.ltrans.o
                                                  obj/main/SPRACINGF3/flight/imu.o (symbol from plugin)
imuConfig_System                                  /var/folders/qz/8dvj07d52mjgthd1ds8wvf400000gn/T//ccg5ycur.ltrans1.ltrans.o
                                                  obj/main/SPRACINGF3/flight/imu.o (symbol from plugin)
                                                  /var/folders/qz/8dvj07d52mjgthd1ds8wvf400000gn/T//ccg5ycur.ltrans8.ltrans.o
                                                  /var/folders/qz/8dvj07d52mjgthd1ds8wvf400000gn/T//ccg5ycur.ltrans4.ltrans.o
                                                  /var/folders/qz/8dvj07d52mjgthd1ds8wvf400000gn/T//ccg5ycur.ltrans0.ltrans.o
                                                  obj/main/SPRACINGF3/fc/msp_server_fc.o (symbol from plugin)
                                                  obj/main/SPRACINGF3/fc/config.o (symbol from plugin)
                                                  obj/main/SPRACINGF3/fc/cleanflight_fc.o (symbol from plugin)
                                                  obj/main/SPRACINGF3/fc/boot.o (symbol from plugin)
imuConfigure                                      obj/main/SPRACINGF3/flight/imu.o (symbol from plugin)
                                                  obj/main/SPRACINGF3/fc/config.o (symbol from plugin)
imuInit                                           obj/main/SPRACINGF3/flight/imu.o (symbol from plugin)
                                                  obj/main/SPRACINGF3/fc/boot.o (symbol from plugin)
imuIsAircraftArmable                              obj/main/SPRACINGF3/flight/imu.o (symbol from plugin)
                                                  obj/main/SPRACINGF3/fc/cleanflight_fc.o (symbol from plugin)
imuResetAccelerationSum                           obj/main/SPRACINGF3/flight/imu.o (symbol from plugin)
                                                  obj/main/SPRACINGF3/flight/altitudehold.o (symbol from plugin)
imuRuntimeConfig.lto_priv.227                     /var/folders/qz/8dvj07d52mjgthd1ds8wvf400000gn/T//ccg5ycur.ltrans8.ltrans.o
                                                  /var/folders/qz/8dvj07d52mjgthd1ds8wvf400000gn/T//ccg5ycur.ltrans4.ltrans.o
                                                  /var/folders/qz/8dvj07d52mjgthd1ds8wvf400000gn/T//ccg5ycur.ltrans0.ltrans.o
imuTransformVectorBodyToEarth                     obj/main/SPRACINGF3/flight/imu.o (symbol from plugin)
imuUpdateAccelerometer                            obj/main/SPRACINGF3/flight/imu.o (symbol from plugin)
                                                  obj/main/SPRACINGF3/fc/cleanflight_fc.o (symbol from plugin)
imuUpdateGyroAndAttitude                          obj/main/SPRACINGF3/flight/imu.o (symbol from plugin)
                                                  obj/main/SPRACINGF3/fc/cleanflight_fc.o (symbol from plugin)
init                                              obj/main/SPRACINGF3/fc/boot.o (symbol from plugin)
initBeeperHardware                                obj/main/SPRACINGF3/drivers/sound_beeper_stm32f30x.o (symbol from plugin)
initBoardAlignment                                obj/main/SPRACINGF3/sensors/boardalignment.o (symbol from plugin)
                                                  obj/main/SPRACINGF3/fc/boot.o (symbol from plugin)
initEEPROM                                        obj/main/SPRACINGF3/config/config_eeprom.o (symbol from plugin)
                                                  obj/main/SPRACINGF3/fc/boot.o (symbol from plugin)
initRxRefreshRate                                 obj/main/SPRACINGF3/rx/rx.o (symbol from plugin)
                                                  obj/main/SPRACINGF3/fc/cleanflight_fc.o (symbol from plugin)
initSpi2                                          obj/main/SPRACINGF3/drivers/bus_spi.o (symbol from plugin)
init_printf                                       obj/main/SPRACINGF3/common/printf.o (symbol from plugin)
initialRawThrottleHold.lto_priv.220               /var/folders/qz/8dvj07d52mjgthd1ds8wvf400000gn/T//ccg5ycur.ltrans2.ltrans.o
                                                  /var/folders/qz/8dvj07d52mjgthd1ds8wvf400000gn/T//ccg5ycur.ltrans4.ltrans.o
initialThrottleHold.lto_priv.221                  /var/folders/qz/8dvj07d52mjgthd1ds8wvf400000gn/T//ccg5ycur.ltrans2.ltrans.o
                                                  /var/folders/qz/8dvj07d52mjgthd1ds8wvf400000gn/T//ccg5ycur.ltrans4.ltrans.o
inputSource_e                                     obj/main/SPRACINGF3/build/build_config.o (symbol from plugin)
                                                  obj/main/SPRACINGF3/io/serial_cli.o (symbol from plugin)
                                                  obj/main/SPRACINGF3/fc/msp_server_fc.o (symbol from plugin)
                                                  obj/main/SPRACINGF3/fc/config.o (symbol from plugin)
                                                  obj/main/SPRACINGF3/fc/cleanflight_fc.o (symbol from plugin)
                                                  obj/main/SPRACINGF3/fc/boot.o (symbol from plugin)
ioDefUsedMask.lto_priv.271                        /var/folders/qz/8dvj07d52mjgthd1ds8wvf400000gn/T//ccg5ycur.ltrans0.ltrans.o
                                                  /var/folders/qz/8dvj07d52mjgthd1ds8wvf400000gn/T//ccg5ycur.ltrans10.ltrans.o
ioPortDefs                                        obj/main/SPRACINGF3/drivers/io.o (symbol from plugin)
ioRecs                                            /var/folders/qz/8dvj07d52mjgthd1ds8wvf400000gn/T//ccg5ycur.ltrans0.ltrans.o
                                                  obj/main/SPRACINGF3/drivers/io.o (symbol from plugin)
                                                  /var/folders/qz/8dvj07d52mjgthd1ds8wvf400000gn/T//ccg5ycur.ltrans10.ltrans.o
isAccelUpdatedAtLeastOnce.lto_priv.226            /var/folders/qz/8dvj07d52mjgthd1ds8wvf400000gn/T//ccg5ycur.ltrans12.ltrans.o
                                                  /var/folders/qz/8dvj07d52mjgthd1ds8wvf400000gn/T//ccg5ycur.ltrans4.ltrans.o
isAccelerationCalibrationComplete                 obj/main/SPRACINGF3/sensors/acceleration.o (symbol from plugin)
                                                  obj/main/SPRACINGF3/fc/cleanflight_fc.o (symbol from plugin)
isBaroCalibrationComplete                         obj/main/SPRACINGF3/sensors/barometer.o (symbol from plugin)
                                                  obj/main/SPRACINGF3/fc/cleanflight_fc.o (symbol from plugin)
isBaroReady                                       obj/main/SPRACINGF3/sensors/barometer.o (symbol from plugin)
isCalibrating                                     /var/folders/qz/8dvj07d52mjgthd1ds8wvf400000gn/T//ccg5ycur.ltrans18.ltrans.o
                                                  obj/main/SPRACINGF3/fc/cleanflight_fc.o (symbol from plugin)
                                                  /var/folders/qz/8dvj07d52mjgthd1ds8wvf400000gn/T//ccg5ycur.ltrans2.ltrans.o
isEEPROMContentValid                              obj/main/SPRACINGF3/config/config_eeprom.o (symbol from plugin)
                                                  obj/main/SPRACINGF3/fc/config.o (symbol from plugin)
isEscHi                                           obj/main/SPRACINGF3/io/serial_4way.o (symbol from plugin)
                                                  obj/main/SPRACINGF3/io/serial_4way_stk500v2.o (symbol from plugin)
                                                  obj/main/SPRACINGF3/io/serial_4way_avrootloader.o (symbol from plugin)
isEscLo                                           obj/main/SPRACINGF3/io/serial_4way.o (symbol from plugin)
                                                  obj/main/SPRACINGF3/io/serial_4way_stk500v2.o (symbol from plugin)
isGyroCalibrationComplete                         obj/main/SPRACINGF3/sensors/gyro.o (symbol from plugin)
                                                  obj/main/SPRACINGF3/fc/cleanflight_fc.o (symbol from plugin)
isMPUSoftReset                                    obj/main/SPRACINGF3/drivers/system_stm32f30x.o (symbol from plugin)
                                                  obj/main/SPRACINGF3/rx/spektrum.o (symbol from plugin)
isMotorBrushed                                    obj/main/SPRACINGF3/drivers/pwm_output.o (symbol from plugin)
                                                  obj/main/SPRACINGF3/drivers/pwm_mapping.o (symbol from plugin)
isOnFinalAccelerationCalibrationCycle             obj/main/SPRACINGF3/sensors/acceleration.o (symbol from plugin)
isOnFirstAccelerationCalibrationCycle             obj/main/SPRACINGF3/sensors/acceleration.o (symbol from plugin)
isPPMDataBeingReceived                            obj/main/SPRACINGF3/drivers/pwm_rx.o (symbol from plugin)
                                                  obj/main/SPRACINGF3/rx/rx.o (symbol from plugin)
isPWMDataBeingReceived                            obj/main/SPRACINGF3/drivers/pwm_rx.o (symbol from plugin)
                                                  obj/main/SPRACINGF3/rx/rx.o (symbol from plugin)
isRXDataNew.lto_priv.222                          /var/folders/qz/8dvj07d52mjgthd1ds8wvf400000gn/T//ccg5ycur.ltrans2.ltrans.o
                                                  /var/folders/qz/8dvj07d52mjgthd1ds8wvf400000gn/T//ccg5ycur.ltrans4.ltrans.o
isRangeActive                                     obj/main/SPRACINGF3/fc/rc_controls.o (symbol from plugin)
                                                  obj/main/SPRACINGF3/fc/rc_adjustments.o (symbol from plugin)
isRangeActive.part.0                              /var/folders/qz/8dvj07d52mjgthd1ds8wvf400000gn/T//ccg5ycur.ltrans8.ltrans.o
                                                  /var/folders/qz/8dvj07d52mjgthd1ds8wvf400000gn/T//ccg5ycur.ltrans2.ltrans.o
isSerialConfigValid                               obj/main/SPRACINGF3/io/serial.o (symbol from plugin)
                                                  obj/main/SPRACINGF3/fc/config.o (symbol from plugin)
isSerialPortOpen                                  obj/main/SPRACINGF3/io/serial.o (symbol from plugin)
                                                  obj/main/SPRACINGF3/msp/msp_serial.o (symbol from plugin)
isSerialPortShared                                obj/main/SPRACINGF3/io/serial.o (symbol from plugin)
isSerialTransmitBufferEmpty                       obj/main/SPRACINGF3/drivers/serial.o (symbol from plugin)
                                                  obj/main/SPRACINGF3/io/serial.o (symbol from plugin)
                                                  obj/main/SPRACINGF3/common/printf.o (symbol from plugin)
isSoftSerialTransmitBufferEmpty                   obj/main/SPRACINGF3/drivers/serial_softserial.o (symbol from plugin)
isThrustFacingDownwards                           obj/main/SPRACINGF3/flight/altitudehold.o (symbol from plugin)
isUartTransmitBufferEmpty                         /var/folders/qz/8dvj07d52mjgthd1ds8wvf400000gn/T//ccg5ycur.ltrans3.ltrans.o
                                                  obj/main/SPRACINGF3/drivers/serial_uart.o (symbol from plugin)
                                                  /var/folders/qz/8dvj07d52mjgthd1ds8wvf400000gn/T//ccg5ycur.ltrans9.ltrans.o
isUsingSticksForArming                            obj/main/SPRACINGF3/fc/rc_controls.o (symbol from plugin)
                                                  obj/main/SPRACINGF3/flight/failsafe.o (symbol from plugin)
                                                  obj/main/SPRACINGF3/fc/cleanflight_fc.o (symbol from plugin)
isUsingSticksToArm.lto_priv.186                   /var/folders/qz/8dvj07d52mjgthd1ds8wvf400000gn/T//ccg5ycur.ltrans1.ltrans.o
                                                  /var/folders/qz/8dvj07d52mjgthd1ds8wvf400000gn/T//ccg5ycur.ltrans8.ltrans.o
                                                  /var/folders/qz/8dvj07d52mjgthd1ds8wvf400000gn/T//ccg5ycur.ltrans4.ltrans.o
                                                  /var/folders/qz/8dvj07d52mjgthd1ds8wvf400000gn/T//ccg5ycur.ltrans2.ltrans.o
isWS2811LedStripReady                             obj/main/SPRACINGF3/drivers/light_ws2811strip.o (symbol from plugin)
itoa                                              obj/main/SPRACINGF3/common/typeconversion.o (symbol from plugin)
                                                  obj/main/SPRACINGF3/io/serial_cli.o (symbol from plugin)
itoa.constprop.1                                  /var/folders/qz/8dvj07d52mjgthd1ds8wvf400000gn/T//ccg5ycur.ltrans9.ltrans.o
                                                  /var/folders/qz/8dvj07d52mjgthd1ds8wvf400000gn/T//ccg5ycur.ltrans7.ltrans.o
                                                  /var/folders/qz/8dvj07d52mjgthd1ds8wvf400000gn/T//ccg5ycur.ltrans5.ltrans.o
lastITerm                                         /var/folders/qz/8dvj07d52mjgthd1ds8wvf400000gn/T//ccg5ycur.ltrans6.ltrans.o
                                                  obj/main/SPRACINGF3/flight/pid.o (symbol from plugin)
                                                  /var/folders/qz/8dvj07d52mjgthd1ds8wvf400000gn/T//ccg5ycur.ltrans2.ltrans.o
                                                  obj/main/SPRACINGF3/flight/pid_mw23.o (symbol from plugin)
                                                  obj/main/SPRACINGF3/flight/pid_mwrewrite.o (symbol from plugin)
lastITermf                                        /var/folders/qz/8dvj07d52mjgthd1ds8wvf400000gn/T//ccg5ycur.ltrans6.ltrans.o
                                                  obj/main/SPRACINGF3/flight/pid.o (symbol from plugin)
                                                  /var/folders/qz/8dvj07d52mjgthd1ds8wvf400000gn/T//ccg5ycur.ltrans2.ltrans.o
                                                  obj/main/SPRACINGF3/flight/pid_luxfloat.o (symbol from plugin)
latchActiveFeatures                               obj/main/SPRACINGF3/config/feature.o (symbol from plugin)
                                                  obj/main/SPRACINGF3/fc/boot.o (symbol from plugin)
ledInit                                           obj/main/SPRACINGF3/drivers/light_led_stm32f30x.o (symbol from plugin)
                                                  obj/main/SPRACINGF3/fc/boot.o (symbol from plugin)
ledStripDMABuffer                                 obj/main/SPRACINGF3/drivers/light_ws2811strip.o (symbol from plugin)
                                                  obj/main/SPRACINGF3/drivers/light_ws2811strip_stm32f30x.o (symbol from plugin)
led_config                                        obj/main/SPRACINGF3/drivers/light_led_stm32f30x.o (symbol from plugin)
li2a                                              obj/main/SPRACINGF3/common/typeconversion.o (symbol from plugin)
                                                  obj/main/SPRACINGF3/common/printf.o (symbol from plugin)
lookupBaudRateIndex                               obj/main/SPRACINGF3/io/serial.o (symbol from plugin)
                                                  obj/main/SPRACINGF3/io/serial_cli.o (symbol from plugin)
lookupPitchRollRC.lto_priv.225                    /var/folders/qz/8dvj07d52mjgthd1ds8wvf400000gn/T//ccg5ycur.ltrans8.ltrans.o
                                                  /var/folders/qz/8dvj07d52mjgthd1ds8wvf400000gn/T//ccg5ycur.ltrans4.ltrans.o
lookupTableAlignment.lto_priv.132                 /var/folders/qz/8dvj07d52mjgthd1ds8wvf400000gn/T//ccg5ycur.ltrans16.ltrans.o
lookupTableCurrentSensor.lto_priv.133             /var/folders/qz/8dvj07d52mjgthd1ds8wvf400000gn/T//ccg5ycur.ltrans16.ltrans.o
lookupTableGimbalMode.lto_priv.134                /var/folders/qz/8dvj07d52mjgthd1ds8wvf400000gn/T//ccg5ycur.ltrans16.ltrans.o
lookupTableGyroFilter.lto_priv.137                /var/folders/qz/8dvj07d52mjgthd1ds8wvf400000gn/T//ccg5ycur.ltrans16.ltrans.o
lookupTableGyroLpf.lto_priv.138                   /var/folders/qz/8dvj07d52mjgthd1ds8wvf400000gn/T//ccg5ycur.ltrans16.ltrans.o
lookupTableOffOn.lto_priv.130                     /var/folders/qz/8dvj07d52mjgthd1ds8wvf400000gn/T//ccg5ycur.ltrans16.ltrans.o
lookupTablePidController.lto_priv.135             /var/folders/qz/8dvj07d52mjgthd1ds8wvf400000gn/T//ccg5ycur.ltrans16.ltrans.o
lookupTablePidDeltaMethod.lto_priv.139            /var/folders/qz/8dvj07d52mjgthd1ds8wvf400000gn/T//ccg5ycur.ltrans16.ltrans.o
lookupTableSerialRX.lto_priv.136                  /var/folders/qz/8dvj07d52mjgthd1ds8wvf400000gn/T//ccg5ycur.ltrans16.ltrans.o
lookupTableUnit.lto_priv.131                      /var/folders/qz/8dvj07d52mjgthd1ds8wvf400000gn/T//ccg5ycur.ltrans16.ltrans.o
lookupTables.lto_priv.127                         /var/folders/qz/8dvj07d52mjgthd1ds8wvf400000gn/T//ccg5ycur.ltrans16.ltrans.o
                                                  /var/folders/qz/8dvj07d52mjgthd1ds8wvf400000gn/T//ccg5ycur.ltrans14.ltrans.o
lookupThrottleRC.lto_priv.223                     /var/folders/qz/8dvj07d52mjgthd1ds8wvf400000gn/T//ccg5ycur.ltrans8.ltrans.o
                                                  /var/folders/qz/8dvj07d52mjgthd1ds8wvf400000gn/T//ccg5ycur.ltrans4.ltrans.o
lookupTimerIndex.lto_priv.184                     /var/folders/qz/8dvj07d52mjgthd1ds8wvf400000gn/T//ccg5ycur.ltrans3.ltrans.o
                                                  /var/folders/qz/8dvj07d52mjgthd1ds8wvf400000gn/T//ccg5ycur.ltrans6.ltrans.o
lookupYawRC.lto_priv.224                          /var/folders/qz/8dvj07d52mjgthd1ds8wvf400000gn/T//ccg5ycur.ltrans8.ltrans.o
                                                  /var/folders/qz/8dvj07d52mjgthd1ds8wvf400000gn/T//ccg5ycur.ltrans4.ltrans.o
lrintf                                            /opt/gcc-arm-none-eabi-5_4-2016q3/bin/../lib/gcc/arm-none-eabi/5.4.1/../../../../arm-none-eabi/lib/armv7e-m/fpu/libm.a(lib_a-sf_lrint.o)
                                                  /var/folders/qz/8dvj07d52mjgthd1ds8wvf400000gn/T//ccg5ycur.ltrans16.ltrans.o
                                                  /var/folders/qz/8dvj07d52mjgthd1ds8wvf400000gn/T//ccg5ycur.ltrans8.ltrans.o
                                                  /var/folders/qz/8dvj07d52mjgthd1ds8wvf400000gn/T//ccg5ycur.ltrans6.ltrans.o
                                                  /var/folders/qz/8dvj07d52mjgthd1ds8wvf400000gn/T//ccg5ycur.ltrans4.ltrans.o
m25p16_eraseCompletely                            obj/main/SPRACINGF3/io/flashfs.o (symbol from plugin)
m25p16_eraseSector                                obj/main/SPRACINGF3/io/flashfs.o (symbol from plugin)
m25p16_getGeometry                                obj/main/SPRACINGF3/io/flashfs.o (symbol from plugin)
m25p16_isReady                                    obj/main/SPRACINGF3/io/flashfs.o (symbol from plugin)
m25p16_pageProgramBegin                           obj/main/SPRACINGF3/io/flashfs.o (symbol from plugin)
m25p16_pageProgramContinue                        obj/main/SPRACINGF3/io/flashfs.o (symbol from plugin)
m25p16_pageProgramFinish                          obj/main/SPRACINGF3/io/flashfs.o (symbol from plugin)
m25p16_readBytes                                  obj/main/SPRACINGF3/io/flashfs.o (symbol from plugin)
mAhDrawn                                          /var/folders/qz/8dvj07d52mjgthd1ds8wvf400000gn/T//ccg5ycur.ltrans1.ltrans.o
                                                  obj/main/SPRACINGF3/sensors/battery.o (symbol from plugin)
                                                  /var/folders/qz/8dvj07d52mjgthd1ds8wvf400000gn/T//ccg5ycur.ltrans12.ltrans.o
                                                  obj/main/SPRACINGF3/fc/msp_server_fc.o (symbol from plugin)
mag                                               obj/main/SPRACINGF3/sensors/compass.o (symbol from plugin)
magADC                                            /var/folders/qz/8dvj07d52mjgthd1ds8wvf400000gn/T//ccg5ycur.ltrans1.ltrans.o
                                                  obj/main/SPRACINGF3/sensors/compass.o (symbol from plugin)
                                                  obj/main/SPRACINGF3/flight/imu.o (symbol from plugin)
                                                  obj/main/SPRACINGF3/fc/msp_server_fc.o (symbol from plugin)
magADCRaw                                         obj/main/SPRACINGF3/sensors/compass.o (symbol from plugin)
magAlign                                          obj/main/SPRACINGF3/sensors/compass.o (symbol from plugin)
magHold                                           obj/main/SPRACINGF3/fc/cleanflight_fc.o (symbol from plugin)
                                                  obj/main/SPRACINGF3/fc/msp_server_fc.o (symbol from plugin)
magneticDeclination                               /var/folders/qz/8dvj07d52mjgthd1ds8wvf400000gn/T//ccg5ycur.ltrans8.ltrans.o
                                                  obj/main/SPRACINGF3/sensors/compass.o (symbol from plugin)
                                                  /var/folders/qz/8dvj07d52mjgthd1ds8wvf400000gn/T//ccg5ycur.ltrans4.ltrans.o
                                                  obj/main/SPRACINGF3/flight/imu.o (symbol from plugin)
main                                              /var/folders/qz/8dvj07d52mjgthd1ds8wvf400000gn/T//ccg5ycur.ltrans0.ltrans.o
                                                  obj/main/SPRACINGF3/fc/boot.o (symbol from plugin)
                                                  obj/main/SPRACINGF3/startup_stm32f30x_md_gcc.o
matherr                                           /opt/gcc-arm-none-eabi-5_4-2016q3/bin/../lib/gcc/arm-none-eabi/5.4.1/../../../../arm-none-eabi/lib/armv7e-m/fpu/libm.a(lib_a-s_matherr.o)
                                                  /opt/gcc-arm-none-eabi-5_4-2016q3/bin/../lib/gcc/arm-none-eabi/5.4.1/../../../../arm-none-eabi/lib/armv7e-m/fpu/libm.a(lib_a-wf_sqrt.o)
                                                  /opt/gcc-arm-none-eabi-5_4-2016q3/bin/../lib/gcc/arm-none-eabi/5.4.1/../../../../arm-none-eabi/lib/armv7e-m/fpu/libm.a(lib_a-w_pow.o)
memcmp                                            /opt/gcc-arm-none-eabi-5_4-2016q3/bin/../lib/gcc/arm-none-eabi/5.4.1/../../../../arm-none-eabi/lib/armv7e-m/fpu/libc_nano.a(lib_a-memcmp.o)
                                                  /var/folders/qz/8dvj07d52mjgthd1ds8wvf400000gn/T//ccg5ycur.ltrans13.ltrans.o
memcpy                                            /opt/gcc-arm-none-eabi-5_4-2016q3/bin/../lib/gcc/arm-none-eabi/5.4.1/../../../../arm-none-eabi/lib/armv7e-m/fpu/libc_nano.a(lib_a-memcpy-stub.o)
                                                  /var/folders/qz/8dvj07d52mjgthd1ds8wvf400000gn/T//ccg5ycur.ltrans8.ltrans.o
                                                  /var/folders/qz/8dvj07d52mjgthd1ds8wvf400000gn/T//ccg5ycur.ltrans7.ltrans.o
memmove                                           /opt/gcc-arm-none-eabi-5_4-2016q3/bin/../lib/gcc/arm-none-eabi/5.4.1/../../../../arm-none-eabi/lib/armv7e-m/fpu/libc_nano.a(lib_a-memmove.o)
                                                  /var/folders/qz/8dvj07d52mjgthd1ds8wvf400000gn/T//ccg5ycur.ltrans7.ltrans.o
memset                                            /opt/gcc-arm-none-eabi-5_4-2016q3/bin/../lib/gcc/arm-none-eabi/5.4.1/../../../../arm-none-eabi/lib/armv7e-m/fpu/libc_nano.a(lib_a-memset.o)
                                                  /var/folders/qz/8dvj07d52mjgthd1ds8wvf400000gn/T//ccg5ycur.ltrans16.ltrans.o
                                                  /var/folders/qz/8dvj07d52mjgthd1ds8wvf400000gn/T//ccg5ycur.ltrans12.ltrans.o
                                                  /var/folders/qz/8dvj07d52mjgthd1ds8wvf400000gn/T//ccg5ycur.ltrans8.ltrans.o
                                                  /var/folders/qz/8dvj07d52mjgthd1ds8wvf400000gn/T//ccg5ycur.ltrans7.ltrans.o
                                                  /var/folders/qz/8dvj07d52mjgthd1ds8wvf400000gn/T//ccg5ycur.ltrans1.ltrans.o
                                                  /var/folders/qz/8dvj07d52mjgthd1ds8wvf400000gn/T//ccg5ycur.ltrans0.ltrans.o
micros                                            /var/folders/qz/8dvj07d52mjgthd1ds8wvf400000gn/T//ccg5ycur.ltrans7.ltrans.o
                                                  obj/main/SPRACINGF3/drivers/system.o (symbol from plugin)
                                                  /var/folders/qz/8dvj07d52mjgthd1ds8wvf400000gn/T//ccg5ycur.ltrans16.ltrans.o
                                                  /var/folders/qz/8dvj07d52mjgthd1ds8wvf400000gn/T//ccg5ycur.ltrans15.ltrans.o
                                                  /var/folders/qz/8dvj07d52mjgthd1ds8wvf400000gn/T//ccg5ycur.ltrans4.ltrans.o
                                                  /var/folders/qz/8dvj07d52mjgthd1ds8wvf400000gn/T//ccg5ycur.ltrans2.ltrans.o
                                                  /var/folders/qz/8dvj07d52mjgthd1ds8wvf400000gn/T//ccg5ycur.ltrans0.ltrans.o
                                                  obj/main/SPRACINGF3/scheduler/scheduler.o (symbol from plugin)
                                                  obj/main/SPRACINGF3/rx/srxl.o (symbol from plugin)
                                                  obj/main/SPRACINGF3/rx/ibus.o (symbol from plugin)
                                                  obj/main/SPRACINGF3/rx/xbus.o (symbol from plugin)
                                                  obj/main/SPRACINGF3/rx/spektrum.o (symbol from plugin)
                                                  obj/main/SPRACINGF3/rx/sumh.o (symbol from plugin)
                                                  obj/main/SPRACINGF3/rx/sumd.o (symbol from plugin)
                                                  obj/main/SPRACINGF3/rx/sbus.o (symbol from plugin)
                                                  obj/main/SPRACINGF3/rx/rx.o (symbol from plugin)
                                                  obj/main/SPRACINGF3/io/statusindicator.o (symbol from plugin)
                                                  obj/main/SPRACINGF3/io/serial_4way_stk500v2.o (symbol from plugin)
                                                  obj/main/SPRACINGF3/io/serial_4way_avrootloader.o (symbol from plugin)
                                                  obj/main/SPRACINGF3/flight/imu.o (symbol from plugin)
                                                  obj/main/SPRACINGF3/fc/cleanflight_fc.o (symbol from plugin)
millis                                            obj/main/SPRACINGF3/drivers/system.o (symbol from plugin)
                                                  obj/main/SPRACINGF3/sensors/battery.o (symbol from plugin)
                                                  obj/main/SPRACINGF3/rx/rx.o (symbol from plugin)
                                                  obj/main/SPRACINGF3/io/serial_cli.o (symbol from plugin)
                                                  obj/main/SPRACINGF3/flight/imu.o (symbol from plugin)
                                                  obj/main/SPRACINGF3/flight/failsafe.o (symbol from plugin)
                                                  obj/main/SPRACINGF3/fc/rc_adjustments.o (symbol from plugin)
                                                  obj/main/SPRACINGF3/fc/cleanflight_fc.o (symbol from plugin)
mixConstrainMotorForFailsafeCondition             obj/main/SPRACINGF3/flight/mixer.o (symbol from plugin)
mixTable                                          obj/main/SPRACINGF3/flight/mixer.o (symbol from plugin)
                                                  obj/main/SPRACINGF3/fc/cleanflight_fc.o (symbol from plugin)
mixerConfig_Registry                              /var/folders/qz/8dvj07d52mjgthd1ds8wvf400000gn/T//ccg5ycur.ltrans1.ltrans.o
                                                  obj/main/SPRACINGF3/flight/mixer.o (symbol from plugin)
mixerConfig_System                                /var/folders/qz/8dvj07d52mjgthd1ds8wvf400000gn/T//ccg5ycur.ltrans1.ltrans.o
                                                  obj/main/SPRACINGF3/flight/mixer.o (symbol from plugin)
                                                  /var/folders/qz/8dvj07d52mjgthd1ds8wvf400000gn/T//ccg5ycur.ltrans14.ltrans.o
                                                  /var/folders/qz/8dvj07d52mjgthd1ds8wvf400000gn/T//ccg5ycur.ltrans8.ltrans.o
                                                  /var/folders/qz/8dvj07d52mjgthd1ds8wvf400000gn/T//ccg5ycur.ltrans5.ltrans.o
                                                  /var/folders/qz/8dvj07d52mjgthd1ds8wvf400000gn/T//ccg5ycur.ltrans4.ltrans.o
                                                  /var/folders/qz/8dvj07d52mjgthd1ds8wvf400000gn/T//ccg5ycur.ltrans2.ltrans.o
                                                  /var/folders/qz/8dvj07d52mjgthd1ds8wvf400000gn/T//ccg5ycur.ltrans0.ltrans.o
                                                  obj/main/SPRACINGF3/io/serial_cli.o (symbol from plugin)
                                                  obj/main/SPRACINGF3/fc/msp_server_fc.o (symbol from plugin)
                                                  obj/main/SPRACINGF3/fc/config.o (symbol from plugin)
                                                  obj/main/SPRACINGF3/fc/cleanflight_fc.o (symbol from plugin)
                                                  obj/main/SPRACINGF3/fc/boot.o (symbol from plugin)
mixerInit                                         obj/main/SPRACINGF3/flight/mixer.o (symbol from plugin)
                                                  obj/main/SPRACINGF3/fc/boot.o (symbol from plugin)
mixerLoadMix                                      obj/main/SPRACINGF3/flight/mixer.o (symbol from plugin)
                                                  obj/main/SPRACINGF3/io/serial_cli.o (symbol from plugin)
mixerNames.lto_priv.141                           /var/folders/qz/8dvj07d52mjgthd1ds8wvf400000gn/T//ccg5ycur.ltrans14.ltrans.o
                                                  /var/folders/qz/8dvj07d52mjgthd1ds8wvf400000gn/T//ccg5ycur.ltrans5.ltrans.o
mixerQuadX.lto_priv.257                           /var/folders/qz/8dvj07d52mjgthd1ds8wvf400000gn/T//ccg5ycur.ltrans5.ltrans.o
                                                  /var/folders/qz/8dvj07d52mjgthd1ds8wvf400000gn/T//ccg5ycur.ltrans0.ltrans.o
mixerResetDisarmedMotors                          /var/folders/qz/8dvj07d52mjgthd1ds8wvf400000gn/T//ccg5ycur.ltrans6.ltrans.o
                                                  obj/main/SPRACINGF3/flight/mixer.o (symbol from plugin)
                                                  /var/folders/qz/8dvj07d52mjgthd1ds8wvf400000gn/T//ccg5ycur.ltrans5.ltrans.o
                                                  /var/folders/qz/8dvj07d52mjgthd1ds8wvf400000gn/T//ccg5ycur.ltrans0.ltrans.o
                                                  obj/main/SPRACINGF3/io/serial_cli.o (symbol from plugin)
mixerUsePWMIOConfiguration                        obj/main/SPRACINGF3/flight/mixer.o (symbol from plugin)
                                                  obj/main/SPRACINGF3/fc/boot.o (symbol from plugin)
mixers                                            obj/main/SPRACINGF3/flight/mixer.o (symbol from plugin)
modeActivationProfile_ProfileCurrent              /var/folders/qz/8dvj07d52mjgthd1ds8wvf400000gn/T//ccg5ycur.ltrans1.ltrans.o
                                                  obj/main/SPRACINGF3/fc/rc_controls.o (symbol from plugin)
                                                  /var/folders/qz/8dvj07d52mjgthd1ds8wvf400000gn/T//ccg5ycur.ltrans8.ltrans.o
                                                  /var/folders/qz/8dvj07d52mjgthd1ds8wvf400000gn/T//ccg5ycur.ltrans5.ltrans.o
                                                  /var/folders/qz/8dvj07d52mjgthd1ds8wvf400000gn/T//ccg5ycur.ltrans2.ltrans.o
                                                  /var/folders/qz/8dvj07d52mjgthd1ds8wvf400000gn/T//ccg5ycur.ltrans0.ltrans.o
                                                  obj/main/SPRACINGF3/io/serial_cli.o (symbol from plugin)
                                                  obj/main/SPRACINGF3/fc/msp_server_fc.o (symbol from plugin)
                                                  obj/main/SPRACINGF3/fc/config.o (symbol from plugin)
                                                  obj/main/SPRACINGF3/fc/cleanflight_fc.o (symbol from plugin)
                                                  obj/main/SPRACINGF3/fc/boot.o (symbol from plugin)
modeActivationProfile_Registry                    /var/folders/qz/8dvj07d52mjgthd1ds8wvf400000gn/T//ccg5ycur.ltrans1.ltrans.o
                                                  obj/main/SPRACINGF3/fc/rc_controls.o (symbol from plugin)
motor                                             /var/folders/qz/8dvj07d52mjgthd1ds8wvf400000gn/T//ccg5ycur.ltrans1.ltrans.o
                                                  obj/main/SPRACINGF3/flight/mixer.o (symbol from plugin)
                                                  /var/folders/qz/8dvj07d52mjgthd1ds8wvf400000gn/T//ccg5ycur.ltrans6.ltrans.o
                                                  /var/folders/qz/8dvj07d52mjgthd1ds8wvf400000gn/T//ccg5ycur.ltrans4.ltrans.o
                                                  obj/main/SPRACINGF3/io/serial_4way.o (symbol from plugin)
                                                  obj/main/SPRACINGF3/fc/msp_server_fc.o (symbol from plugin)
motor3DConfig_Registry                            /var/folders/qz/8dvj07d52mjgthd1ds8wvf400000gn/T//ccg5ycur.ltrans1.ltrans.o
                                                  obj/main/SPRACINGF3/flight/mixer.o (symbol from plugin)
motor3DConfig_System                              /var/folders/qz/8dvj07d52mjgthd1ds8wvf400000gn/T//ccg5ycur.ltrans1.ltrans.o
                                                  obj/main/SPRACINGF3/flight/mixer.o (symbol from plugin)
                                                  /var/folders/qz/8dvj07d52mjgthd1ds8wvf400000gn/T//ccg5ycur.ltrans6.ltrans.o
                                                  /var/folders/qz/8dvj07d52mjgthd1ds8wvf400000gn/T//ccg5ycur.ltrans4.ltrans.o
                                                  /var/folders/qz/8dvj07d52mjgthd1ds8wvf400000gn/T//ccg5ycur.ltrans0.ltrans.o
                                                  obj/main/SPRACINGF3/fc/msp_server_fc.o (symbol from plugin)
                                                  obj/main/SPRACINGF3/fc/boot.o (symbol from plugin)
motorAndServoConfig_Registry                      /var/folders/qz/8dvj07d52mjgthd1ds8wvf400000gn/T//ccg5ycur.ltrans1.ltrans.o
                                                  obj/main/SPRACINGF3/io/motor_and_servo.o (symbol from plugin)
motorAndServoConfig_System                        /var/folders/qz/8dvj07d52mjgthd1ds8wvf400000gn/T//ccg5ycur.ltrans1.ltrans.o
                                                  obj/main/SPRACINGF3/io/motor_and_servo.o (symbol from plugin)
                                                  /var/folders/qz/8dvj07d52mjgthd1ds8wvf400000gn/T//ccg5ycur.ltrans8.ltrans.o
                                                  /var/folders/qz/8dvj07d52mjgthd1ds8wvf400000gn/T//ccg5ycur.ltrans6.ltrans.o
                                                  /var/folders/qz/8dvj07d52mjgthd1ds8wvf400000gn/T//ccg5ycur.ltrans4.ltrans.o
                                                  /var/folders/qz/8dvj07d52mjgthd1ds8wvf400000gn/T//ccg5ycur.ltrans0.ltrans.o
                                                  obj/main/SPRACINGF3/flight/mixer.o (symbol from plugin)
                                                  obj/main/SPRACINGF3/flight/altitudehold.o (symbol from plugin)
                                                  obj/main/SPRACINGF3/fc/msp_server_fc.o (symbol from plugin)
                                                  obj/main/SPRACINGF3/fc/rc_curves.o (symbol from plugin)
                                                  obj/main/SPRACINGF3/fc/boot.o (symbol from plugin)
motorControlEnable                                /var/folders/qz/8dvj07d52mjgthd1ds8wvf400000gn/T//ccg5ycur.ltrans4.ltrans.o
                                                  obj/main/SPRACINGF3/fc/cleanflight_fc.o (symbol from plugin)
                                                  /var/folders/qz/8dvj07d52mjgthd1ds8wvf400000gn/T//ccg5ycur.ltrans0.ltrans.o
                                                  obj/main/SPRACINGF3/fc/boot.o (symbol from plugin)
motorCount                                        /var/folders/qz/8dvj07d52mjgthd1ds8wvf400000gn/T//ccg5ycur.ltrans6.ltrans.o
                                                  obj/main/SPRACINGF3/flight/mixer.o (symbol from plugin)
                                                  /var/folders/qz/8dvj07d52mjgthd1ds8wvf400000gn/T//ccg5ycur.ltrans8.ltrans.o
                                                  /var/folders/qz/8dvj07d52mjgthd1ds8wvf400000gn/T//ccg5ycur.ltrans4.ltrans.o
                                                  /var/folders/qz/8dvj07d52mjgthd1ds8wvf400000gn/T//ccg5ycur.ltrans0.ltrans.o
                                                  obj/main/SPRACINGF3/flight/pid_mw23.o (symbol from plugin)
                                                  obj/main/SPRACINGF3/flight/pid_mwrewrite.o (symbol from plugin)
                                                  obj/main/SPRACINGF3/flight/pid_luxfloat.o (symbol from plugin)
motorLimitReached                                 /var/folders/qz/8dvj07d52mjgthd1ds8wvf400000gn/T//ccg5ycur.ltrans6.ltrans.o
                                                  obj/main/SPRACINGF3/flight/mixer.o (symbol from plugin)
                                                  /var/folders/qz/8dvj07d52mjgthd1ds8wvf400000gn/T//ccg5ycur.ltrans4.ltrans.o
                                                  obj/main/SPRACINGF3/flight/pid_mw23.o (symbol from plugin)
                                                  obj/main/SPRACINGF3/flight/pid_mwrewrite.o (symbol from plugin)
                                                  obj/main/SPRACINGF3/flight/pid_luxfloat.o (symbol from plugin)
motor_disarmed                                    /var/folders/qz/8dvj07d52mjgthd1ds8wvf400000gn/T//ccg5ycur.ltrans1.ltrans.o
                                                  obj/main/SPRACINGF3/flight/mixer.o (symbol from plugin)
                                                  /var/folders/qz/8dvj07d52mjgthd1ds8wvf400000gn/T//ccg5ycur.ltrans14.ltrans.o
                                                  /var/folders/qz/8dvj07d52mjgthd1ds8wvf400000gn/T//ccg5ycur.ltrans6.ltrans.o
                                                  /var/folders/qz/8dvj07d52mjgthd1ds8wvf400000gn/T//ccg5ycur.ltrans4.ltrans.o
                                                  obj/main/SPRACINGF3/io/serial_cli.o (symbol from plugin)
                                                  obj/main/SPRACINGF3/fc/msp_server_fc.o (symbol from plugin)
motors.lto_priv.185                               /var/folders/qz/8dvj07d52mjgthd1ds8wvf400000gn/T//ccg5ycur.ltrans6.ltrans.o
                                                  /var/folders/qz/8dvj07d52mjgthd1ds8wvf400000gn/T//ccg5ycur.ltrans8.ltrans.o
                                                  /var/folders/qz/8dvj07d52mjgthd1ds8wvf400000gn/T//ccg5ycur.ltrans3.ltrans.o
                                                  /var/folders/qz/8dvj07d52mjgthd1ds8wvf400000gn/T//ccg5ycur.ltrans0.ltrans.o
mpu6050AccDetect                                  obj/main/SPRACINGF3/drivers/accgyro_mpu6050.o (symbol from plugin)
                                                  obj/main/SPRACINGF3/sensors/initialisation.o (symbol from plugin)
mpu6050AccInit.lto_priv.251                       /var/folders/qz/8dvj07d52mjgthd1ds8wvf400000gn/T//ccg5ycur.ltrans10.ltrans.o
                                                  /var/folders/qz/8dvj07d52mjgthd1ds8wvf400000gn/T//ccg5ycur.ltrans0.ltrans.o
mpu6050GyroDetect                                 obj/main/SPRACINGF3/drivers/accgyro_mpu6050.o (symbol from plugin)
                                                  obj/main/SPRACINGF3/sensors/initialisation.o (symbol from plugin)
mpu6050GyroInit.lto_priv.252                      /var/folders/qz/8dvj07d52mjgthd1ds8wvf400000gn/T//ccg5ycur.ltrans10.ltrans.o
                                                  /var/folders/qz/8dvj07d52mjgthd1ds8wvf400000gn/T//ccg5ycur.ltrans0.ltrans.o
mpuAccRead                                        /var/folders/qz/8dvj07d52mjgthd1ds8wvf400000gn/T//ccg5ycur.ltrans10.ltrans.o
                                                  obj/main/SPRACINGF3/drivers/accgyro_mpu.o (symbol from plugin)
                                                  /var/folders/qz/8dvj07d52mjgthd1ds8wvf400000gn/T//ccg5ycur.ltrans0.ltrans.o
                                                  obj/main/SPRACINGF3/drivers/accgyro_mpu6050.o (symbol from plugin)
mpuConfiguration                                  /var/folders/qz/8dvj07d52mjgthd1ds8wvf400000gn/T//ccg5ycur.ltrans0.ltrans.o
                                                  obj/main/SPRACINGF3/drivers/accgyro_mpu.o (symbol from plugin)
                                                  /var/folders/qz/8dvj07d52mjgthd1ds8wvf400000gn/T//ccg5ycur.ltrans10.ltrans.o
                                                  obj/main/SPRACINGF3/drivers/accgyro_mpu6050.o (symbol from plugin)
mpuDetectionResult                                /var/folders/qz/8dvj07d52mjgthd1ds8wvf400000gn/T//ccg5ycur.ltrans0.ltrans.o
                                                  obj/main/SPRACINGF3/drivers/accgyro_mpu.o (symbol from plugin)
                                                  /var/folders/qz/8dvj07d52mjgthd1ds8wvf400000gn/T//ccg5ycur.ltrans10.ltrans.o
                                                  obj/main/SPRACINGF3/drivers/accgyro_mpu6050.o (symbol from plugin)
mpuDividerDrops.lto_priv.268                      /var/folders/qz/8dvj07d52mjgthd1ds8wvf400000gn/T//ccg5ycur.ltrans0.ltrans.o
                                                  /var/folders/qz/8dvj07d52mjgthd1ds8wvf400000gn/T//ccg5ycur.ltrans10.ltrans.o
mpuGyroRead                                       /var/folders/qz/8dvj07d52mjgthd1ds8wvf400000gn/T//ccg5ycur.ltrans10.ltrans.o
                                                  obj/main/SPRACINGF3/drivers/accgyro_mpu.o (symbol from plugin)
                                                  /var/folders/qz/8dvj07d52mjgthd1ds8wvf400000gn/T//ccg5ycur.ltrans0.ltrans.o
                                                  obj/main/SPRACINGF3/drivers/accgyro_mpu6050.o (symbol from plugin)
mpuIntCallbackRec                                 obj/main/SPRACINGF3/drivers/accgyro_mpu.o (symbol from plugin)
mpuIntExtiConfig.lto_priv.269                     /var/folders/qz/8dvj07d52mjgthd1ds8wvf400000gn/T//ccg5ycur.ltrans0.ltrans.o
                                                  /var/folders/qz/8dvj07d52mjgthd1ds8wvf400000gn/T//ccg5ycur.ltrans10.ltrans.o
mpuIntExtiHandler                                 obj/main/SPRACINGF3/drivers/accgyro_mpu.o (symbol from plugin)
mpuIntExtiInit                                    obj/main/SPRACINGF3/drivers/accgyro_mpu.o (symbol from plugin)
                                                  obj/main/SPRACINGF3/drivers/accgyro_mpu6050.o (symbol from plugin)
mpuIsDataReady                                    /var/folders/qz/8dvj07d52mjgthd1ds8wvf400000gn/T//ccg5ycur.ltrans10.ltrans.o
                                                  obj/main/SPRACINGF3/drivers/accgyro_mpu.o (symbol from plugin)
                                                  /var/folders/qz/8dvj07d52mjgthd1ds8wvf400000gn/T//ccg5ycur.ltrans0.ltrans.o
                                                  obj/main/SPRACINGF3/drivers/accgyro_mpu6050.o (symbol from plugin)
mpuReadRegisterI2C.lto_priv.253                   /var/folders/qz/8dvj07d52mjgthd1ds8wvf400000gn/T//ccg5ycur.ltrans10.ltrans.o
                                                  /var/folders/qz/8dvj07d52mjgthd1ds8wvf400000gn/T//ccg5ycur.ltrans0.ltrans.o
mpuWriteRegisterI2C.lto_priv.254                  /var/folders/qz/8dvj07d52mjgthd1ds8wvf400000gn/T//ccg5ycur.ltrans10.ltrans.o
                                                  /var/folders/qz/8dvj07d52mjgthd1ds8wvf400000gn/T//ccg5ycur.ltrans0.ltrans.o
ms5611Detect                                      obj/main/SPRACINGF3/drivers/barometer_ms5611.o (symbol from plugin)
msp4WayIfFn                                       /var/folders/qz/8dvj07d52mjgthd1ds8wvf400000gn/T//ccg5ycur.ltrans6.ltrans.o
                                                  obj/main/SPRACINGF3/fc/msp_server_fc.o (symbol from plugin)
                                                  /var/folders/qz/8dvj07d52mjgthd1ds8wvf400000gn/T//ccg5ycur.ltrans1.ltrans.o
mspData                                           /var/folders/qz/8dvj07d52mjgthd1ds8wvf400000gn/T//ccg5ycur.ltrans2.ltrans.o
                                                  obj/main/SPRACINGF3/drivers/nrf2401.o (symbol from plugin)
                                                  /var/folders/qz/8dvj07d52mjgthd1ds8wvf400000gn/T//ccg5ycur.ltrans0.ltrans.o
                                                  obj/main/SPRACINGF3/rx/rx.o (symbol from plugin)
                                                  obj/main/SPRACINGF3/flight/altitudehold.o (symbol from plugin)
mspFrame.lto_priv.117                             /var/folders/qz/8dvj07d52mjgthd1ds8wvf400000gn/T//ccg5ycur.ltrans1.ltrans.o
                                                  /var/folders/qz/8dvj07d52mjgthd1ds8wvf400000gn/T//ccg5ycur.ltrans16.ltrans.o
mspInit                                           obj/main/SPRACINGF3/fc/msp_server_fc.o (symbol from plugin)
                                                  obj/main/SPRACINGF3/fc/boot.o (symbol from plugin)
mspPorts                                          /var/folders/qz/8dvj07d52mjgthd1ds8wvf400000gn/T//ccg5ycur.ltrans1.ltrans.o
                                                  obj/main/SPRACINGF3/msp/msp_serial.o (symbol from plugin)
                                                  /var/folders/qz/8dvj07d52mjgthd1ds8wvf400000gn/T//ccg5ycur.ltrans0.ltrans.o
mspPostProcessFn                                  obj/main/SPRACINGF3/msp/msp_serial.o (symbol from plugin)
                                                  obj/main/SPRACINGF3/fc/msp_server_fc.o (symbol from plugin)
mspProcessCommand                                 obj/main/SPRACINGF3/msp/msp.o (symbol from plugin)
                                                  obj/main/SPRACINGF3/msp/msp_serial.o (symbol from plugin)
mspRebootFn                                       /var/folders/qz/8dvj07d52mjgthd1ds8wvf400000gn/T//ccg5ycur.ltrans6.ltrans.o
                                                  obj/main/SPRACINGF3/fc/msp_server_fc.o (symbol from plugin)
                                                  /var/folders/qz/8dvj07d52mjgthd1ds8wvf400000gn/T//ccg5ycur.ltrans1.ltrans.o
mspSerialAllocatePorts                            obj/main/SPRACINGF3/msp/msp_serial.o (symbol from plugin)
mspSerialEncode                                   /var/folders/qz/8dvj07d52mjgthd1ds8wvf400000gn/T//ccg5ycur.ltrans7.ltrans.o
                                                  obj/main/SPRACINGF3/msp/msp_serial.o (symbol from plugin)
                                                  /var/folders/qz/8dvj07d52mjgthd1ds8wvf400000gn/T//ccg5ycur.ltrans1.ltrans.o
mspSerialInit                                     obj/main/SPRACINGF3/msp/msp_serial.o (symbol from plugin)
                                                  obj/main/SPRACINGF3/fc/boot.o (symbol from plugin)
mspSerialProcess                                  /var/folders/qz/8dvj07d52mjgthd1ds8wvf400000gn/T//ccg5ycur.ltrans1.ltrans.o
                                                  obj/main/SPRACINGF3/msp/msp_serial.o (symbol from plugin)
                                                  /var/folders/qz/8dvj07d52mjgthd1ds8wvf400000gn/T//ccg5ycur.ltrans12.ltrans.o
                                                  obj/main/SPRACINGF3/fc/cleanflight_fc.o (symbol from plugin)
mspSerialReleasePortIfAllocated                   obj/main/SPRACINGF3/msp/msp_serial.o (symbol from plugin)
                                                  obj/main/SPRACINGF3/fc/cleanflight_fc.o (symbol from plugin)
mspServerCommandHandler                           obj/main/SPRACINGF3/fc/msp_server_fc.o (symbol from plugin)
                                                  obj/main/SPRACINGF3/msp/msp.o (symbol from plugin)
mwArm                                             /var/folders/qz/8dvj07d52mjgthd1ds8wvf400000gn/T//ccg5ycur.ltrans18.ltrans.o
                                                  obj/main/SPRACINGF3/fc/cleanflight_fc.o (symbol from plugin)
                                                  /var/folders/qz/8dvj07d52mjgthd1ds8wvf400000gn/T//ccg5ycur.ltrans2.ltrans.o
                                                  obj/main/SPRACINGF3/drivers/nrf2401.o (symbol from plugin)
                                                  obj/main/SPRACINGF3/fc/rc_controls.o (symbol from plugin)
mwDisarm                                          /var/folders/qz/8dvj07d52mjgthd1ds8wvf400000gn/T//ccg5ycur.ltrans18.ltrans.o
                                                  obj/main/SPRACINGF3/fc/cleanflight_fc.o (symbol from plugin)
                                                  /var/folders/qz/8dvj07d52mjgthd1ds8wvf400000gn/T//ccg5ycur.ltrans2.ltrans.o
                                                  obj/main/SPRACINGF3/drivers/nrf2401.o (symbol from plugin)
                                                  obj/main/SPRACINGF3/flight/failsafe.o (symbol from plugin)
                                                  obj/main/SPRACINGF3/fc/rc_controls.o (symbol from plugin)
nan                                               /opt/gcc-arm-none-eabi-5_4-2016q3/bin/../lib/gcc/arm-none-eabi/5.4.1/../../../../arm-none-eabi/lib/armv7e-m/fpu/libm.a(lib_a-s_nan.o)
                                                  /opt/gcc-arm-none-eabi-5_4-2016q3/bin/../lib/gcc/arm-none-eabi/5.4.1/../../../../arm-none-eabi/lib/armv7e-m/fpu/libm.a(lib_a-e_pow.o)
normalizeV                                        obj/main/SPRACINGF3/common/maths.o (symbol from plugin)
nrf24l01HardwareInit                              obj/main/SPRACINGF3/drivers/nrf2401.o (symbol from plugin)
nrf_rx                                            obj/main/SPRACINGF3/drivers/nrf2401.o (symbol from plugin)
                                                  obj/main/SPRACINGF3/rx/rx.o (symbol from plugin)
nullReadRawRC.lto_priv.196                        /var/folders/qz/8dvj07d52mjgthd1ds8wvf400000gn/T//ccg5ycur.ltrans16.ltrans.o
                                                  /var/folders/qz/8dvj07d52mjgthd1ds8wvf400000gn/T//ccg5ycur.ltrans2.ltrans.o
onSerialRxPinChange                               obj/main/SPRACINGF3/drivers/serial_softserial.o (symbol from plugin)
onSerialTimer                                     obj/main/SPRACINGF3/drivers/serial_softserial.o (symbol from plugin)
openSerialPort                                    obj/main/SPRACINGF3/io/serial.o (symbol from plugin)
                                                  obj/main/SPRACINGF3/msp/msp_serial.o (symbol from plugin)
                                                  obj/main/SPRACINGF3/rx/srxl.o (symbol from plugin)
                                                  obj/main/SPRACINGF3/rx/ibus.o (symbol from plugin)
                                                  obj/main/SPRACINGF3/rx/xbus.o (symbol from plugin)
                                                  obj/main/SPRACINGF3/rx/spektrum.o (symbol from plugin)
                                                  obj/main/SPRACINGF3/rx/sumh.o (symbol from plugin)
                                                  obj/main/SPRACINGF3/rx/sumd.o (symbol from plugin)
                                                  obj/main/SPRACINGF3/rx/sbus.o (symbol from plugin)
openSoftSerial                                    /var/folders/qz/8dvj07d52mjgthd1ds8wvf400000gn/T//ccg5ycur.ltrans10.ltrans.o
                                                  obj/main/SPRACINGF3/drivers/serial_softserial.o (symbol from plugin)
                                                  /var/folders/qz/8dvj07d52mjgthd1ds8wvf400000gn/T//ccg5ycur.ltrans0.ltrans.o
                                                  obj/main/SPRACINGF3/io/serial.o (symbol from plugin)
parseRcChannels                                   obj/main/SPRACINGF3/rx/rx.o (symbol from plugin)
                                                  obj/main/SPRACINGF3/io/serial_cli.o (symbol from plugin)
                                                  obj/main/SPRACINGF3/fc/config.o (symbol from plugin)
parseRcChannels.constprop.25                      /var/folders/qz/8dvj07d52mjgthd1ds8wvf400000gn/T//ccg5ycur.ltrans9.ltrans.o
                                                  /var/folders/qz/8dvj07d52mjgthd1ds8wvf400000gn/T//ccg5ycur.ltrans8.ltrans.o
                                                  /var/folders/qz/8dvj07d52mjgthd1ds8wvf400000gn/T//ccg5ycur.ltrans5.ltrans.o
performAcclerationCalibration                     obj/main/SPRACINGF3/sensors/acceleration.o (symbol from plugin)
performBaroCalibrationCycle                       obj/main/SPRACINGF3/sensors/barometer.o (symbol from plugin)
performInflightAccelerationCalibration            obj/main/SPRACINGF3/sensors/acceleration.o (symbol from plugin)
pgActivateProfile                                 /var/folders/qz/8dvj07d52mjgthd1ds8wvf400000gn/T//ccg5ycur.ltrans7.ltrans.o
                                                  obj/main/SPRACINGF3/config/parameter_group.o (symbol from plugin)
                                                  /var/folders/qz/8dvj07d52mjgthd1ds8wvf400000gn/T//ccg5ycur.ltrans8.ltrans.o
                                                  obj/main/SPRACINGF3/fc/config.o (symbol from plugin)
pgFind                                            obj/main/SPRACINGF3/config/parameter_group.o (symbol from plugin)
                                                  obj/main/SPRACINGF3/io/serial_cli.o (symbol from plugin)
pgLoad                                            obj/main/SPRACINGF3/config/parameter_group.o (symbol from plugin)
                                                  obj/main/SPRACINGF3/config/config_eeprom.o (symbol from plugin)
pgMatcher                                         obj/main/SPRACINGF3/config/parameter_group.o (symbol from plugin)
                                                  obj/main/SPRACINGF3/config/config_eeprom.o (symbol from plugin)
pgMatcherForConfigRecord                          obj/main/SPRACINGF3/config/config_eeprom.o (symbol from plugin)
pgResetAll                                        obj/main/SPRACINGF3/config/parameter_group.o (symbol from plugin)
                                                  obj/main/SPRACINGF3/fc/config.o (symbol from plugin)
pgResetCurrent                                    /var/folders/qz/8dvj07d52mjgthd1ds8wvf400000gn/T//ccg5ycur.ltrans7.ltrans.o
                                                  obj/main/SPRACINGF3/config/parameter_group.o (symbol from plugin)
                                                  /var/folders/qz/8dvj07d52mjgthd1ds8wvf400000gn/T//ccg5ycur.ltrans8.ltrans.o
                                                  /var/folders/qz/8dvj07d52mjgthd1ds8wvf400000gn/T//ccg5ycur.ltrans5.ltrans.o
                                                  /var/folders/qz/8dvj07d52mjgthd1ds8wvf400000gn/T//ccg5ycur.ltrans1.ltrans.o
                                                  obj/main/SPRACINGF3/io/serial_cli.o (symbol from plugin)
                                                  obj/main/SPRACINGF3/fc/msp_server_fc.o (symbol from plugin)
                                                  obj/main/SPRACINGF3/fc/config.o (symbol from plugin)
pgResetFn_accelerometerConfig                     /var/folders/qz/8dvj07d52mjgthd1ds8wvf400000gn/T//ccg5ycur.ltrans16.ltrans.o
                                                  obj/main/SPRACINGF3/sensors/acceleration.o (symbol from plugin)
                                                  /var/folders/qz/8dvj07d52mjgthd1ds8wvf400000gn/T//ccg5ycur.ltrans1.ltrans.o
pgResetFn_channelRanges                           /var/folders/qz/8dvj07d52mjgthd1ds8wvf400000gn/T//ccg5ycur.ltrans16.ltrans.o
                                                  obj/main/SPRACINGF3/rx/rx.o (symbol from plugin)
pgResetFn_controlRateProfiles                     /var/folders/qz/8dvj07d52mjgthd1ds8wvf400000gn/T//ccg5ycur.ltrans8.ltrans.o
                                                  obj/main/SPRACINGF3/fc/rate_profile.o (symbol from plugin)
                                                  /var/folders/qz/8dvj07d52mjgthd1ds8wvf400000gn/T//ccg5ycur.ltrans14.ltrans.o
pgResetFn_failsafeChannelConfigs                  /var/folders/qz/8dvj07d52mjgthd1ds8wvf400000gn/T//ccg5ycur.ltrans16.ltrans.o
                                                  obj/main/SPRACINGF3/rx/rx.o (symbol from plugin)
                                                  /var/folders/qz/8dvj07d52mjgthd1ds8wvf400000gn/T//ccg5ycur.ltrans1.ltrans.o
pgResetFn_serialConfig                            /var/folders/qz/8dvj07d52mjgthd1ds8wvf400000gn/T//ccg5ycur.ltrans8.ltrans.o
                                                  obj/main/SPRACINGF3/fc/fc_serial.o (symbol from plugin)
                                                  /var/folders/qz/8dvj07d52mjgthd1ds8wvf400000gn/T//ccg5ycur.ltrans1.ltrans.o
pgResetInstance.lto_priv.190                      /var/folders/qz/8dvj07d52mjgthd1ds8wvf400000gn/T//ccg5ycur.ltrans7.ltrans.o
                                                  /var/folders/qz/8dvj07d52mjgthd1ds8wvf400000gn/T//ccg5ycur.ltrans8.ltrans.o
pgResetTemplate_airplaneConfig                    /var/folders/qz/8dvj07d52mjgthd1ds8wvf400000gn/T//ccg5ycur.ltrans4.ltrans.o
                                                  obj/main/SPRACINGF3/flight/altitudehold.o (symbol from plugin)
pgResetTemplate_armingConfig                      /var/folders/qz/8dvj07d52mjgthd1ds8wvf400000gn/T//ccg5ycur.ltrans1.ltrans.o
                                                  obj/main/SPRACINGF3/fc/rc_controls.o (symbol from plugin)
pgResetTemplate_barometerConfig                   /var/folders/qz/8dvj07d52mjgthd1ds8wvf400000gn/T//ccg5ycur.ltrans8.ltrans.o
                                                  obj/main/SPRACINGF3/sensors/barometer.o (symbol from plugin)
pgResetTemplate_batteryConfig                     /var/folders/qz/8dvj07d52mjgthd1ds8wvf400000gn/T//ccg5ycur.ltrans1.ltrans.o
                                                  obj/main/SPRACINGF3/sensors/battery.o (symbol from plugin)
pgResetTemplate_compassConfig                     /var/folders/qz/8dvj07d52mjgthd1ds8wvf400000gn/T//ccg5ycur.ltrans1.ltrans.o
                                                  obj/main/SPRACINGF3/sensors/compass.o (symbol from plugin)
pgResetTemplate_failsafeConfig                    /var/folders/qz/8dvj07d52mjgthd1ds8wvf400000gn/T//ccg5ycur.ltrans1.ltrans.o
                                                  obj/main/SPRACINGF3/flight/failsafe.o (symbol from plugin)
pgResetTemplate_gyroConfig                        /var/folders/qz/8dvj07d52mjgthd1ds8wvf400000gn/T//ccg5ycur.ltrans4.ltrans.o
                                                  obj/main/SPRACINGF3/sensors/gyro.o (symbol from plugin)
pgResetTemplate_imuConfig                         /var/folders/qz/8dvj07d52mjgthd1ds8wvf400000gn/T//ccg5ycur.ltrans1.ltrans.o
                                                  obj/main/SPRACINGF3/flight/imu.o (symbol from plugin)
pgResetTemplate_mixerConfig                       /var/folders/qz/8dvj07d52mjgthd1ds8wvf400000gn/T//ccg5ycur.ltrans1.ltrans.o
                                                  obj/main/SPRACINGF3/flight/mixer.o (symbol from plugin)
pgResetTemplate_motor3DConfig                     /var/folders/qz/8dvj07d52mjgthd1ds8wvf400000gn/T//ccg5ycur.ltrans1.ltrans.o
                                                  obj/main/SPRACINGF3/flight/mixer.o (symbol from plugin)
pgResetTemplate_motorAndServoConfig               /var/folders/qz/8dvj07d52mjgthd1ds8wvf400000gn/T//ccg5ycur.ltrans1.ltrans.o
                                                  obj/main/SPRACINGF3/io/motor_and_servo.o (symbol from plugin)
pgResetTemplate_pidProfile                        /var/folders/qz/8dvj07d52mjgthd1ds8wvf400000gn/T//ccg5ycur.ltrans1.ltrans.o
                                                  obj/main/SPRACINGF3/flight/pid.o (symbol from plugin)
pgResetTemplate_rcControlsConfig                  /var/folders/qz/8dvj07d52mjgthd1ds8wvf400000gn/T//ccg5ycur.ltrans1.ltrans.o
                                                  obj/main/SPRACINGF3/fc/rc_controls.o (symbol from plugin)
pgResetTemplate_rxConfig                          /var/folders/qz/8dvj07d52mjgthd1ds8wvf400000gn/T//ccg5ycur.ltrans9.ltrans.o
                                                  obj/main/SPRACINGF3/rx/rx.o (symbol from plugin)
pgResetTemplate_systemConfig                      /var/folders/qz/8dvj07d52mjgthd1ds8wvf400000gn/T//ccg5ycur.ltrans0.ltrans.o
                                                  obj/main/SPRACINGF3/fc/boot.o (symbol from plugin)
pgResetTemplate_throttleCorrectionConfig          /var/folders/qz/8dvj07d52mjgthd1ds8wvf400000gn/T//ccg5ycur.ltrans8.ltrans.o
                                                  obj/main/SPRACINGF3/flight/imu.o (symbol from plugin)
pgStore                                           obj/main/SPRACINGF3/config/parameter_group.o (symbol from plugin)
pidLuxFloat                                       obj/main/SPRACINGF3/flight/pid_luxfloat.o (symbol from plugin)
                                                  obj/main/SPRACINGF3/flight/pid.o (symbol from plugin)
pidMultiWii23                                     obj/main/SPRACINGF3/flight/pid_mw23.o (symbol from plugin)
                                                  obj/main/SPRACINGF3/flight/pid.o (symbol from plugin)
pidMultiWiiRewrite                                obj/main/SPRACINGF3/flight/pid_mwrewrite.o (symbol from plugin)
                                                  obj/main/SPRACINGF3/flight/pid.o (symbol from plugin)
pidProfile_ProfileCurrent                         /var/folders/qz/8dvj07d52mjgthd1ds8wvf400000gn/T//ccg5ycur.ltrans1.ltrans.o
                                                  obj/main/SPRACINGF3/flight/pid.o (symbol from plugin)
                                                  /var/folders/qz/8dvj07d52mjgthd1ds8wvf400000gn/T//ccg5ycur.ltrans8.ltrans.o
                                                  /var/folders/qz/8dvj07d52mjgthd1ds8wvf400000gn/T//ccg5ycur.ltrans4.ltrans.o
                                                  /var/folders/qz/8dvj07d52mjgthd1ds8wvf400000gn/T//ccg5ycur.ltrans2.ltrans.o
                                                  obj/main/SPRACINGF3/flight/altitudehold.o (symbol from plugin)
                                                  obj/main/SPRACINGF3/fc/msp_server_fc.o (symbol from plugin)
                                                  obj/main/SPRACINGF3/fc/config.o (symbol from plugin)
                                                  obj/main/SPRACINGF3/fc/rc_adjustments.o (symbol from plugin)
                                                  obj/main/SPRACINGF3/fc/cleanflight_fc.o (symbol from plugin)
pidProfile_Registry                               /var/folders/qz/8dvj07d52mjgthd1ds8wvf400000gn/T//ccg5ycur.ltrans1.ltrans.o
                                                  obj/main/SPRACINGF3/flight/pid.o (symbol from plugin)
                                                  obj/main/SPRACINGF3/fc/msp_server_fc.o (symbol from plugin)
pidResetITerm                                     obj/main/SPRACINGF3/flight/pid.o (symbol from plugin)
                                                  obj/main/SPRACINGF3/fc/cleanflight_fc.o (symbol from plugin)
pidResetITermAngle                                obj/main/SPRACINGF3/flight/pid_mw23.o (symbol from plugin)
                                                  obj/main/SPRACINGF3/fc/cleanflight_fc.o (symbol from plugin)
pidSetController                                  /var/folders/qz/8dvj07d52mjgthd1ds8wvf400000gn/T//ccg5ycur.ltrans6.ltrans.o
                                                  obj/main/SPRACINGF3/flight/pid.o (symbol from plugin)
                                                  /var/folders/qz/8dvj07d52mjgthd1ds8wvf400000gn/T//ccg5ycur.ltrans8.ltrans.o
                                                  /var/folders/qz/8dvj07d52mjgthd1ds8wvf400000gn/T//ccg5ycur.ltrans1.ltrans.o
                                                  obj/main/SPRACINGF3/fc/msp_server_fc.o (symbol from plugin)
                                                  obj/main/SPRACINGF3/fc/config.o (symbol from plugin)
pid_controller                                    /var/folders/qz/8dvj07d52mjgthd1ds8wvf400000gn/T//ccg5ycur.ltrans6.ltrans.o
                                                  obj/main/SPRACINGF3/flight/pid.o (symbol from plugin)
                                                  /var/folders/qz/8dvj07d52mjgthd1ds8wvf400000gn/T//ccg5ycur.ltrans4.ltrans.o
                                                  obj/main/SPRACINGF3/fc/cleanflight_fc.o (symbol from plugin)
port.lto_priv.177                                 /var/folders/qz/8dvj07d52mjgthd1ds8wvf400000gn/T//ccg5ycur.ltrans13.ltrans.o
                                                  /var/folders/qz/8dvj07d52mjgthd1ds8wvf400000gn/T//ccg5ycur.ltrans6.ltrans.o
pow                                               /opt/gcc-arm-none-eabi-5_4-2016q3/bin/../lib/gcc/arm-none-eabi/5.4.1/../../../../arm-none-eabi/lib/armv7e-m/fpu/libm.a(lib_a-w_pow.o)
                                                  /var/folders/qz/8dvj07d52mjgthd1ds8wvf400000gn/T//ccg5ycur.ltrans11.ltrans.o
ppmAvoidPWMTimerClash                             obj/main/SPRACINGF3/drivers/pwm_rx.o (symbol from plugin)
ppmDev                                            /var/folders/qz/8dvj07d52mjgthd1ds8wvf400000gn/T//ccg5ycur.ltrans0.ltrans.o
                                                  obj/main/SPRACINGF3/drivers/pwm_rx.o (symbol from plugin)
                                                  /var/folders/qz/8dvj07d52mjgthd1ds8wvf400000gn/T//ccg5ycur.ltrans3.ltrans.o
ppmEdgeCallback.lto_priv.263                      /var/folders/qz/8dvj07d52mjgthd1ds8wvf400000gn/T//ccg5ycur.ltrans3.ltrans.o
                                                  /var/folders/qz/8dvj07d52mjgthd1ds8wvf400000gn/T//ccg5ycur.ltrans0.ltrans.o
ppmFrameCount.lto_priv.272                        /var/folders/qz/8dvj07d52mjgthd1ds8wvf400000gn/T//ccg5ycur.ltrans12.ltrans.o
                                                  /var/folders/qz/8dvj07d52mjgthd1ds8wvf400000gn/T//ccg5ycur.ltrans3.ltrans.o
ppmISREvent                                       obj/main/SPRACINGF3/drivers/pwm_rx.o (symbol from plugin)
ppmInConfig                                       obj/main/SPRACINGF3/drivers/pwm_rx.o (symbol from plugin)
                                                  obj/main/SPRACINGF3/drivers/pwm_mapping.o (symbol from plugin)
ppmOverflowCallback.lto_priv.264                  /var/folders/qz/8dvj07d52mjgthd1ds8wvf400000gn/T//ccg5ycur.ltrans3.ltrans.o
                                                  /var/folders/qz/8dvj07d52mjgthd1ds8wvf400000gn/T//ccg5ycur.ltrans0.ltrans.o
ppmRead                                           obj/main/SPRACINGF3/drivers/pwm_rx.o (symbol from plugin)
                                                  obj/main/SPRACINGF3/rx/pwm.o (symbol from plugin)
ppmReadRawRC.lto_priv.247                         /var/folders/qz/8dvj07d52mjgthd1ds8wvf400000gn/T//ccg5ycur.ltrans16.ltrans.o
                                                  /var/folders/qz/8dvj07d52mjgthd1ds8wvf400000gn/T//ccg5ycur.ltrans0.ltrans.o
prepareForNextRxByte                              obj/main/SPRACINGF3/drivers/serial_softserial.o (symbol from plugin)
printfSerialPort.lto_priv.116                     /var/folders/qz/8dvj07d52mjgthd1ds8wvf400000gn/T//ccg5ycur.ltrans1.ltrans.o
                                                  /var/folders/qz/8dvj07d52mjgthd1ds8wvf400000gn/T//ccg5ycur.ltrans7.ltrans.o
printfSupportInit                                 obj/main/SPRACINGF3/common/printf.o (symbol from plugin)
                                                  obj/main/SPRACINGF3/fc/boot.o (symbol from plugin)
processRcAdjustments                              obj/main/SPRACINGF3/fc/rc_adjustments.o (symbol from plugin)
                                                  obj/main/SPRACINGF3/fc/cleanflight_fc.o (symbol from plugin)
processRcStickPositions                           obj/main/SPRACINGF3/fc/rc_controls.o (symbol from plugin)
                                                  obj/main/SPRACINGF3/fc/cleanflight_fc.o (symbol from plugin)
processRx                                         obj/main/SPRACINGF3/fc/cleanflight_fc.o (symbol from plugin)
processRxState                                    obj/main/SPRACINGF3/drivers/serial_softserial.o (symbol from plugin)
processTxState                                    obj/main/SPRACINGF3/drivers/serial_softserial.o (symbol from plugin)
profileSelection_Registry                         /var/folders/qz/8dvj07d52mjgthd1ds8wvf400000gn/T//ccg5ycur.ltrans1.ltrans.o
                                                  obj/main/SPRACINGF3/config/profile.o (symbol from plugin)
profileSelection_System                           /var/folders/qz/8dvj07d52mjgthd1ds8wvf400000gn/T//ccg5ycur.ltrans1.ltrans.o
                                                  obj/main/SPRACINGF3/config/profile.o (symbol from plugin)
                                                  /var/folders/qz/8dvj07d52mjgthd1ds8wvf400000gn/T//ccg5ycur.ltrans14.ltrans.o
                                                  /var/folders/qz/8dvj07d52mjgthd1ds8wvf400000gn/T//ccg5ycur.ltrans8.ltrans.o
                                                  /var/folders/qz/8dvj07d52mjgthd1ds8wvf400000gn/T//ccg5ycur.ltrans2.ltrans.o
pt1FilterApply                                    obj/main/SPRACINGF3/common/filter.o (symbol from plugin)
pt1FilterApply4                                   /var/folders/qz/8dvj07d52mjgthd1ds8wvf400000gn/T//ccg5ycur.ltrans7.ltrans.o
                                                  obj/main/SPRACINGF3/common/filter.o (symbol from plugin)
                                                  /var/folders/qz/8dvj07d52mjgthd1ds8wvf400000gn/T//ccg5ycur.ltrans6.ltrans.o
                                                  /var/folders/qz/8dvj07d52mjgthd1ds8wvf400000gn/T//ccg5ycur.ltrans4.ltrans.o
                                                  obj/main/SPRACINGF3/flight/imu.o (symbol from plugin)
                                                  obj/main/SPRACINGF3/flight/pid_mw23.o (symbol from plugin)
                                                  obj/main/SPRACINGF3/flight/pid_mwrewrite.o (symbol from plugin)
                                                  obj/main/SPRACINGF3/flight/pid_luxfloat.o (symbol from plugin)
                                                  obj/main/SPRACINGF3/fc/cleanflight_fc.o (symbol from plugin)
pt1FilterInit                                     obj/main/SPRACINGF3/common/filter.o (symbol from plugin)
putchw.constprop.4                                /var/folders/qz/8dvj07d52mjgthd1ds8wvf400000gn/T//ccg5ycur.ltrans9.ltrans.o
                                                  /var/folders/qz/8dvj07d52mjgthd1ds8wvf400000gn/T//ccg5ycur.ltrans14.ltrans.o
pwmBrushedMotorConfig                             obj/main/SPRACINGF3/drivers/pwm_output.o (symbol from plugin)
                                                  obj/main/SPRACINGF3/drivers/pwm_mapping.o (symbol from plugin)
pwmBrushlessMotorConfig                           obj/main/SPRACINGF3/drivers/pwm_output.o (symbol from plugin)
                                                  obj/main/SPRACINGF3/drivers/pwm_mapping.o (symbol from plugin)
pwmCompleteOneshotMotorUpdate                     obj/main/SPRACINGF3/drivers/pwm_output.o (symbol from plugin)
                                                  obj/main/SPRACINGF3/flight/mixer.o (symbol from plugin)
pwmDisableMotors                                  obj/main/SPRACINGF3/drivers/pwm_output.o (symbol from plugin)
                                                  obj/main/SPRACINGF3/io/serial_4way.o (symbol from plugin)
pwmEdgeCallback.lto_priv.261                      /var/folders/qz/8dvj07d52mjgthd1ds8wvf400000gn/T//ccg5ycur.ltrans3.ltrans.o
                                                  /var/folders/qz/8dvj07d52mjgthd1ds8wvf400000gn/T//ccg5ycur.ltrans0.ltrans.o
pwmEnableMotors                                   obj/main/SPRACINGF3/drivers/pwm_output.o (symbol from plugin)
                                                  obj/main/SPRACINGF3/io/serial_4way.o (symbol from plugin)
pwmGetOutputConfiguration                         obj/main/SPRACINGF3/drivers/pwm_mapping.o (symbol from plugin)
                                                  obj/main/SPRACINGF3/io/serial_4way.o (symbol from plugin)
pwmICConfig                                       /var/folders/qz/8dvj07d52mjgthd1ds8wvf400000gn/T//ccg5ycur.ltrans10.ltrans.o
                                                  obj/main/SPRACINGF3/drivers/pwm_rx.o (symbol from plugin)
                                                  /var/folders/qz/8dvj07d52mjgthd1ds8wvf400000gn/T//ccg5ycur.ltrans3.ltrans.o
                                                  /var/folders/qz/8dvj07d52mjgthd1ds8wvf400000gn/T//ccg5ycur.ltrans0.ltrans.o
pwmIOConfiguration.lto_priv.258                   /var/folders/qz/8dvj07d52mjgthd1ds8wvf400000gn/T//ccg5ycur.ltrans1.ltrans.o
                                                  /var/folders/qz/8dvj07d52mjgthd1ds8wvf400000gn/T//ccg5ycur.ltrans0.ltrans.o
pwmInConfig                                       obj/main/SPRACINGF3/drivers/pwm_rx.o (symbol from plugin)
                                                  obj/main/SPRACINGF3/drivers/pwm_mapping.o (symbol from plugin)
pwmInit                                           obj/main/SPRACINGF3/drivers/pwm_mapping.o (symbol from plugin)
                                                  obj/main/SPRACINGF3/fc/boot.o (symbol from plugin)
pwmMotorsEnabled.lto_priv.180                     /var/folders/qz/8dvj07d52mjgthd1ds8wvf400000gn/T//ccg5ycur.ltrans13.ltrans.o
                                                  /var/folders/qz/8dvj07d52mjgthd1ds8wvf400000gn/T//ccg5ycur.ltrans6.ltrans.o
pwmOneshotMotorConfig                             obj/main/SPRACINGF3/drivers/pwm_output.o (symbol from plugin)
                                                  obj/main/SPRACINGF3/drivers/pwm_mapping.o (symbol from plugin)
pwmOutConfig.lto_priv.267                         /var/folders/qz/8dvj07d52mjgthd1ds8wvf400000gn/T//ccg5ycur.ltrans3.ltrans.o
                                                  /var/folders/qz/8dvj07d52mjgthd1ds8wvf400000gn/T//ccg5ycur.ltrans0.ltrans.o
pwmOverflowCallback.lto_priv.262                  /var/folders/qz/8dvj07d52mjgthd1ds8wvf400000gn/T//ccg5ycur.ltrans3.ltrans.o
                                                  /var/folders/qz/8dvj07d52mjgthd1ds8wvf400000gn/T//ccg5ycur.ltrans0.ltrans.o
pwmRead                                           obj/main/SPRACINGF3/drivers/pwm_rx.o (symbol from plugin)
                                                  obj/main/SPRACINGF3/rx/pwm.o (symbol from plugin)
pwmReadRawRC.lto_priv.246                         /var/folders/qz/8dvj07d52mjgthd1ds8wvf400000gn/T//ccg5ycur.ltrans16.ltrans.o
                                                  /var/folders/qz/8dvj07d52mjgthd1ds8wvf400000gn/T//ccg5ycur.ltrans0.ltrans.o
pwmRxConfig_Registry                              /var/folders/qz/8dvj07d52mjgthd1ds8wvf400000gn/T//ccg5ycur.ltrans10.ltrans.o
                                                  obj/main/SPRACINGF3/fc/boot.o (symbol from plugin)
pwmRxConfig_System                                obj/main/SPRACINGF3/fc/boot.o (symbol from plugin)
                                                  obj/main/SPRACINGF3/drivers/pwm_rx.o (symbol from plugin)
pwmRxInit                                         obj/main/SPRACINGF3/drivers/pwm_rx.o (symbol from plugin)
                                                  obj/main/SPRACINGF3/fc/boot.o (symbol from plugin)
pwmShutdownPulsesForAllMotors                     obj/main/SPRACINGF3/drivers/pwm_output.o (symbol from plugin)
                                                  obj/main/SPRACINGF3/flight/mixer.o (symbol from plugin)
pwmWriteBrushed.lto_priv.260                      /var/folders/qz/8dvj07d52mjgthd1ds8wvf400000gn/T//ccg5ycur.ltrans3.ltrans.o
                                                  /var/folders/qz/8dvj07d52mjgthd1ds8wvf400000gn/T//ccg5ycur.ltrans0.ltrans.o
pwmWriteMotor                                     obj/main/SPRACINGF3/drivers/pwm_output.o (symbol from plugin)
                                                  obj/main/SPRACINGF3/flight/mixer.o (symbol from plugin)
pwmWriteStandard.lto_priv.259                     /var/folders/qz/8dvj07d52mjgthd1ds8wvf400000gn/T//ccg5ycur.ltrans3.ltrans.o
                                                  /var/folders/qz/8dvj07d52mjgthd1ds8wvf400000gn/T//ccg5ycur.ltrans0.ltrans.o
q0.lto_priv.229                                   /var/folders/qz/8dvj07d52mjgthd1ds8wvf400000gn/T//ccg5ycur.ltrans6.ltrans.o
                                                  /var/folders/qz/8dvj07d52mjgthd1ds8wvf400000gn/T//ccg5ycur.ltrans4.ltrans.o
q1.lto_priv.230                                   /var/folders/qz/8dvj07d52mjgthd1ds8wvf400000gn/T//ccg5ycur.ltrans6.ltrans.o
                                                  /var/folders/qz/8dvj07d52mjgthd1ds8wvf400000gn/T//ccg5ycur.ltrans4.ltrans.o
q2.lto_priv.231                                   /var/folders/qz/8dvj07d52mjgthd1ds8wvf400000gn/T//ccg5ycur.ltrans6.ltrans.o
                                                  /var/folders/qz/8dvj07d52mjgthd1ds8wvf400000gn/T//ccg5ycur.ltrans4.ltrans.o
q3.lto_priv.232                                   /var/folders/qz/8dvj07d52mjgthd1ds8wvf400000gn/T//ccg5ycur.ltrans6.ltrans.o
                                                  /var/folders/qz/8dvj07d52mjgthd1ds8wvf400000gn/T//ccg5ycur.ltrans4.ltrans.o
quickMedianFilter3                                /var/folders/qz/8dvj07d52mjgthd1ds8wvf400000gn/T//ccg5ycur.ltrans7.ltrans.o
                                                  obj/main/SPRACINGF3/common/maths.o (symbol from plugin)
                                                  /var/folders/qz/8dvj07d52mjgthd1ds8wvf400000gn/T//ccg5ycur.ltrans19.ltrans.o
                                                  /var/folders/qz/8dvj07d52mjgthd1ds8wvf400000gn/T//ccg5ycur.ltrans11.ltrans.o
                                                  obj/main/SPRACINGF3/drivers/fbm320.o (symbol from plugin)
                                                  obj/main/SPRACINGF3/sensors/barometer.o (symbol from plugin)
quickMedianFilter5                                obj/main/SPRACINGF3/common/maths.o (symbol from plugin)
quickMedianFilter7                                obj/main/SPRACINGF3/common/maths.o (symbol from plugin)
quickMedianFilter9                                obj/main/SPRACINGF3/common/maths.o (symbol from plugin)
rMat.lto_priv.192                                 /var/folders/qz/8dvj07d52mjgthd1ds8wvf400000gn/T//ccg5ycur.ltrans6.ltrans.o
                                                  /var/folders/qz/8dvj07d52mjgthd1ds8wvf400000gn/T//ccg5ycur.ltrans4.ltrans.o
                                                  /var/folders/qz/8dvj07d52mjgthd1ds8wvf400000gn/T//ccg5ycur.ltrans2.ltrans.o
rateProfileSelection_ProfileCurrent               obj/main/SPRACINGF3/fc/rate_profile.o (symbol from plugin)
                                                  obj/main/SPRACINGF3/fc/config.o (symbol from plugin)
rateProfileSelection_Registry                     /var/folders/qz/8dvj07d52mjgthd1ds8wvf400000gn/T//ccg5ycur.ltrans8.ltrans.o
                                                  obj/main/SPRACINGF3/fc/rate_profile.o (symbol from plugin)
rcChannelLetters                                  /var/folders/qz/8dvj07d52mjgthd1ds8wvf400000gn/T//ccg5ycur.ltrans9.ltrans.o
                                                  obj/main/SPRACINGF3/rx/rx.o (symbol from plugin)
                                                  /var/folders/qz/8dvj07d52mjgthd1ds8wvf400000gn/T//ccg5ycur.ltrans5.ltrans.o
                                                  obj/main/SPRACINGF3/io/serial_cli.o (symbol from plugin)
rcCommand                                         /var/folders/qz/8dvj07d52mjgthd1ds8wvf400000gn/T//ccg5ycur.ltrans6.ltrans.o
                                                  obj/main/SPRACINGF3/fc/rc_controls.o (symbol from plugin)
                                                  /var/folders/qz/8dvj07d52mjgthd1ds8wvf400000gn/T//ccg5ycur.ltrans12.ltrans.o
                                                  /var/folders/qz/8dvj07d52mjgthd1ds8wvf400000gn/T//ccg5ycur.ltrans4.ltrans.o
                                                  /var/folders/qz/8dvj07d52mjgthd1ds8wvf400000gn/T//ccg5ycur.ltrans2.ltrans.o
                                                  obj/main/SPRACINGF3/sensors/battery.o (symbol from plugin)
                                                  obj/main/SPRACINGF3/flight/mixer.o (symbol from plugin)
                                                  obj/main/SPRACINGF3/flight/pid_mw23.o (symbol from plugin)
                                                  obj/main/SPRACINGF3/flight/pid_mwrewrite.o (symbol from plugin)
                                                  obj/main/SPRACINGF3/flight/pid_luxfloat.o (symbol from plugin)
                                                  obj/main/SPRACINGF3/flight/altitudehold.o (symbol from plugin)
                                                  obj/main/SPRACINGF3/fc/cleanflight_fc.o (symbol from plugin)
rcControlsConfig_ProfileCurrent                   /var/folders/qz/8dvj07d52mjgthd1ds8wvf400000gn/T//ccg5ycur.ltrans1.ltrans.o
                                                  obj/main/SPRACINGF3/fc/rc_controls.o (symbol from plugin)
                                                  /var/folders/qz/8dvj07d52mjgthd1ds8wvf400000gn/T//ccg5ycur.ltrans12.ltrans.o
                                                  /var/folders/qz/8dvj07d52mjgthd1ds8wvf400000gn/T//ccg5ycur.ltrans4.ltrans.o
                                                  /var/folders/qz/8dvj07d52mjgthd1ds8wvf400000gn/T//ccg5ycur.ltrans2.ltrans.o
                                                  obj/main/SPRACINGF3/flight/mixer.o (symbol from plugin)
                                                  obj/main/SPRACINGF3/flight/failsafe.o (symbol from plugin)
                                                  obj/main/SPRACINGF3/flight/altitudehold.o (symbol from plugin)
                                                  obj/main/SPRACINGF3/fc/msp_server_fc.o (symbol from plugin)
                                                  obj/main/SPRACINGF3/fc/cleanflight_fc.o (symbol from plugin)
rcControlsConfig_Registry                         /var/folders/qz/8dvj07d52mjgthd1ds8wvf400000gn/T//ccg5ycur.ltrans1.ltrans.o
                                                  obj/main/SPRACINGF3/fc/rc_controls.o (symbol from plugin)
rcData                                            /var/folders/qz/8dvj07d52mjgthd1ds8wvf400000gn/T//ccg5ycur.ltrans9.ltrans.o
                                                  obj/main/SPRACINGF3/rx/rx.o (symbol from plugin)
                                                  /var/folders/qz/8dvj07d52mjgthd1ds8wvf400000gn/T//ccg5ycur.ltrans8.ltrans.o
                                                  /var/folders/qz/8dvj07d52mjgthd1ds8wvf400000gn/T//ccg5ycur.ltrans4.ltrans.o
                                                  /var/folders/qz/8dvj07d52mjgthd1ds8wvf400000gn/T//ccg5ycur.ltrans2.ltrans.o
                                                  /var/folders/qz/8dvj07d52mjgthd1ds8wvf400000gn/T//ccg5ycur.ltrans1.ltrans.o
                                                  /var/folders/qz/8dvj07d52mjgthd1ds8wvf400000gn/T//ccg5ycur.ltrans0.ltrans.o
                                                  obj/main/SPRACINGF3/flight/mixer.o (symbol from plugin)
                                                  obj/main/SPRACINGF3/flight/failsafe.o (symbol from plugin)
                                                  obj/main/SPRACINGF3/flight/altitudehold.o (symbol from plugin)
                                                  obj/main/SPRACINGF3/fc/msp_server_fc.o (symbol from plugin)
                                                  obj/main/SPRACINGF3/fc/rc_controls.o (symbol from plugin)
                                                  obj/main/SPRACINGF3/fc/rc_adjustments.o (symbol from plugin)
                                                  obj/main/SPRACINGF3/fc/cleanflight_fc.o (symbol from plugin)
rcInvalidPulsPeriod                               obj/main/SPRACINGF3/rx/rx.o (symbol from plugin)
rcLookupPitchRoll                                 obj/main/SPRACINGF3/fc/rc_curves.o (symbol from plugin)
                                                  obj/main/SPRACINGF3/fc/cleanflight_fc.o (symbol from plugin)
rcLookupThrottle                                  obj/main/SPRACINGF3/fc/rc_curves.o (symbol from plugin)
                                                  obj/main/SPRACINGF3/fc/cleanflight_fc.o (symbol from plugin)
rcLookupYaw                                       obj/main/SPRACINGF3/fc/rc_curves.o (symbol from plugin)
                                                  obj/main/SPRACINGF3/fc/cleanflight_fc.o (symbol from plugin)
rcModeActivationMask.lto_priv.181                 /var/folders/qz/8dvj07d52mjgthd1ds8wvf400000gn/T//ccg5ycur.ltrans1.ltrans.o
                                                  /var/folders/qz/8dvj07d52mjgthd1ds8wvf400000gn/T//ccg5ycur.ltrans18.ltrans.o
                                                  /var/folders/qz/8dvj07d52mjgthd1ds8wvf400000gn/T//ccg5ycur.ltrans6.ltrans.o
                                                  /var/folders/qz/8dvj07d52mjgthd1ds8wvf400000gn/T//ccg5ycur.ltrans4.ltrans.o
                                                  /var/folders/qz/8dvj07d52mjgthd1ds8wvf400000gn/T//ccg5ycur.ltrans2.ltrans.o
rcModeIsActivationConditionPresent                obj/main/SPRACINGF3/fc/rc_controls.o (symbol from plugin)
rcModeIsActive                                    obj/main/SPRACINGF3/fc/rc_controls.o (symbol from plugin)
                                                  obj/main/SPRACINGF3/flight/mixer.o (symbol from plugin)
                                                  obj/main/SPRACINGF3/flight/pid_mw23.o (symbol from plugin)
                                                  obj/main/SPRACINGF3/flight/pid_mwrewrite.o (symbol from plugin)
                                                  obj/main/SPRACINGF3/flight/pid_luxfloat.o (symbol from plugin)
                                                  obj/main/SPRACINGF3/flight/failsafe.o (symbol from plugin)
                                                  obj/main/SPRACINGF3/flight/altitudehold.o (symbol from plugin)
                                                  obj/main/SPRACINGF3/fc/msp_server_fc.o (symbol from plugin)
                                                  obj/main/SPRACINGF3/fc/cleanflight_fc.o (symbol from plugin)
rcModeUpdateActivated                             obj/main/SPRACINGF3/fc/rc_controls.o (symbol from plugin)
                                                  obj/main/SPRACINGF3/fc/cleanflight_fc.o (symbol from plugin)
rcRaw                                             obj/main/SPRACINGF3/rx/rx.o (symbol from plugin)
rcReadRawFunc.lto_priv.245                        /var/folders/qz/8dvj07d52mjgthd1ds8wvf400000gn/T//ccg5ycur.ltrans2.ltrans.o
                                                  /var/folders/qz/8dvj07d52mjgthd1ds8wvf400000gn/T//ccg5ycur.ltrans0.ltrans.o
rcSampleIndex.lto_priv.243                        /var/folders/qz/8dvj07d52mjgthd1ds8wvf400000gn/T//ccg5ycur.ltrans2.ltrans.o
                                                  /var/folders/qz/8dvj07d52mjgthd1ds8wvf400000gn/T//ccg5ycur.ltrans0.ltrans.o
readByteCrc.lto_priv.165                          /var/folders/qz/8dvj07d52mjgthd1ds8wvf400000gn/T//ccg5ycur.ltrans6.ltrans.o
                                                  /var/folders/qz/8dvj07d52mjgthd1ds8wvf400000gn/T//ccg5ycur.ltrans13.ltrans.o
readEEPROM                                        /var/folders/qz/8dvj07d52mjgthd1ds8wvf400000gn/T//ccg5ycur.ltrans8.ltrans.o
                                                  obj/main/SPRACINGF3/fc/config.o (symbol from plugin)
                                                  /var/folders/qz/8dvj07d52mjgthd1ds8wvf400000gn/T//ccg5ycur.ltrans14.ltrans.o
                                                  /var/folders/qz/8dvj07d52mjgthd1ds8wvf400000gn/T//ccg5ycur.ltrans12.ltrans.o
                                                  /var/folders/qz/8dvj07d52mjgthd1ds8wvf400000gn/T//ccg5ycur.ltrans2.ltrans.o
                                                  /var/folders/qz/8dvj07d52mjgthd1ds8wvf400000gn/T//ccg5ycur.ltrans1.ltrans.o
                                                  /var/folders/qz/8dvj07d52mjgthd1ds8wvf400000gn/T//ccg5ycur.ltrans0.ltrans.o
                                                  obj/main/SPRACINGF3/fc/msp_server_fc.o (symbol from plugin)
                                                  obj/main/SPRACINGF3/fc/boot.o (symbol from plugin)
read_offset                                       obj/main/SPRACINGF3/drivers/fbm320.o (symbol from plugin)
realtimeGuardInterval.lto_priv.237                /var/folders/qz/8dvj07d52mjgthd1ds8wvf400000gn/T//ccg5ycur.ltrans7.ltrans.o
                                                  /var/folders/qz/8dvj07d52mjgthd1ds8wvf400000gn/T//ccg5ycur.ltrans0.ltrans.o
recalculateMagneticDeclination                    obj/main/SPRACINGF3/sensors/compass.o (symbol from plugin)
                                                  obj/main/SPRACINGF3/fc/config.o (symbol from plugin)
reconfigureAlignment                              obj/main/SPRACINGF3/sensors/initialisation.o (symbol from plugin)
releaseSharedTelemetryPorts                       obj/main/SPRACINGF3/fc/cleanflight_fc.o (symbol from plugin)
rescheduleTask                                    obj/main/SPRACINGF3/scheduler/scheduler.o (symbol from plugin)
                                                  obj/main/SPRACINGF3/fc/cleanflight_fc.o (symbol from plugin)
                                                  obj/main/SPRACINGF3/fc/boot.o (symbol from plugin)
resetAdjustmentStates                             obj/main/SPRACINGF3/fc/rc_adjustments.o (symbol from plugin)
                                                  obj/main/SPRACINGF3/fc/config.o (symbol from plugin)
resetConf.lto_priv.113                            /var/folders/qz/8dvj07d52mjgthd1ds8wvf400000gn/T//ccg5ycur.ltrans8.ltrans.o
                                                  /var/folders/qz/8dvj07d52mjgthd1ds8wvf400000gn/T//ccg5ycur.ltrans14.ltrans.o
                                                  /var/folders/qz/8dvj07d52mjgthd1ds8wvf400000gn/T//ccg5ycur.ltrans1.ltrans.o
                                                  /var/folders/qz/8dvj07d52mjgthd1ds8wvf400000gn/T//ccg5ycur.ltrans0.ltrans.o
resetEEPROM                                       obj/main/SPRACINGF3/fc/config.o (symbol from plugin)
                                                  obj/main/SPRACINGF3/io/serial_cli.o (symbol from plugin)
                                                  obj/main/SPRACINGF3/fc/msp_server_fc.o (symbol from plugin)
resetPPMDataReceivedState                         obj/main/SPRACINGF3/drivers/pwm_rx.o (symbol from plugin)
                                                  obj/main/SPRACINGF3/rx/rx.o (symbol from plugin)
resetRollAndPitchTrims                            obj/main/SPRACINGF3/sensors/acceleration.o (symbol from plugin)
resumeRxSignal                                    /var/folders/qz/8dvj07d52mjgthd1ds8wvf400000gn/T//ccg5ycur.ltrans16.ltrans.o
                                                  obj/main/SPRACINGF3/rx/rx.o (symbol from plugin)
                                                  /var/folders/qz/8dvj07d52mjgthd1ds8wvf400000gn/T//ccg5ycur.ltrans8.ltrans.o
                                                  obj/main/SPRACINGF3/fc/config.o (symbol from plugin)
rint                                              /opt/gcc-arm-none-eabi-5_4-2016q3/bin/../lib/gcc/arm-none-eabi/5.4.1/../../../../arm-none-eabi/lib/armv7e-m/fpu/libm.a(lib_a-s_rint.o)
                                                  /opt/gcc-arm-none-eabi-5_4-2016q3/bin/../lib/gcc/arm-none-eabi/5.4.1/../../../../arm-none-eabi/lib/armv7e-m/fpu/libm.a(lib_a-w_pow.o)
rotateV                                           obj/main/SPRACINGF3/common/maths.o (symbol from plugin)
rssi                                              /var/folders/qz/8dvj07d52mjgthd1ds8wvf400000gn/T//ccg5ycur.ltrans1.ltrans.o
                                                  obj/main/SPRACINGF3/rx/rx.o (symbol from plugin)
                                                  /var/folders/qz/8dvj07d52mjgthd1ds8wvf400000gn/T//ccg5ycur.ltrans2.ltrans.o
                                                  obj/main/SPRACINGF3/fc/msp_server_fc.o (symbol from plugin)
rxAreFlightChannelsValid                          obj/main/SPRACINGF3/rx/rx.o (symbol from plugin)
rxConfig_Registry                                 /var/folders/qz/8dvj07d52mjgthd1ds8wvf400000gn/T//ccg5ycur.ltrans9.ltrans.o
                                                  obj/main/SPRACINGF3/rx/rx.o (symbol from plugin)
rxConfig_System                                   /var/folders/qz/8dvj07d52mjgthd1ds8wvf400000gn/T//ccg5ycur.ltrans9.ltrans.o
                                                  obj/main/SPRACINGF3/rx/rx.o (symbol from plugin)
                                                  /var/folders/qz/8dvj07d52mjgthd1ds8wvf400000gn/T//ccg5ycur.ltrans16.ltrans.o
                                                  /var/folders/qz/8dvj07d52mjgthd1ds8wvf400000gn/T//ccg5ycur.ltrans5.ltrans.o
                                                  /var/folders/qz/8dvj07d52mjgthd1ds8wvf400000gn/T//ccg5ycur.ltrans4.ltrans.o
                                                  /var/folders/qz/8dvj07d52mjgthd1ds8wvf400000gn/T//ccg5ycur.ltrans2.ltrans.o
                                                  /var/folders/qz/8dvj07d52mjgthd1ds8wvf400000gn/T//ccg5ycur.ltrans1.ltrans.o
                                                  /var/folders/qz/8dvj07d52mjgthd1ds8wvf400000gn/T//ccg5ycur.ltrans0.ltrans.o
                                                  obj/main/SPRACINGF3/rx/spektrum.o (symbol from plugin)
                                                  obj/main/SPRACINGF3/rx/sbus.o (symbol from plugin)
                                                  obj/main/SPRACINGF3/io/serial_cli.o (symbol from plugin)
                                                  obj/main/SPRACINGF3/flight/mixer.o (symbol from plugin)
                                                  obj/main/SPRACINGF3/flight/failsafe.o (symbol from plugin)
                                                  obj/main/SPRACINGF3/fc/msp_server_fc.o (symbol from plugin)
                                                  obj/main/SPRACINGF3/fc/config.o (symbol from plugin)
                                                  obj/main/SPRACINGF3/fc/cleanflight_fc.o (symbol from plugin)
                                                  obj/main/SPRACINGF3/fc/boot.o (symbol from plugin)
rxInit                                            obj/main/SPRACINGF3/rx/rx.o (symbol from plugin)
                                                  obj/main/SPRACINGF3/fc/boot.o (symbol from plugin)
rxIsReceivingSignal                               obj/main/SPRACINGF3/rx/rx.o (symbol from plugin)
                                                  obj/main/SPRACINGF3/fc/rc_controls.o (symbol from plugin)
                                                  obj/main/SPRACINGF3/fc/rc_adjustments.o (symbol from plugin)
rxMspFrameComplete                                obj/main/SPRACINGF3/rx/msp.o (symbol from plugin)
                                                  obj/main/SPRACINGF3/rx/rx.o (symbol from plugin)
rxMspFrameDone.lto_priv.202                       /var/folders/qz/8dvj07d52mjgthd1ds8wvf400000gn/T//ccg5ycur.ltrans1.ltrans.o
                                                  /var/folders/qz/8dvj07d52mjgthd1ds8wvf400000gn/T//ccg5ycur.ltrans12.ltrans.o
rxMspFrameReceive                                 obj/main/SPRACINGF3/rx/msp.o (symbol from plugin)
                                                  obj/main/SPRACINGF3/fc/msp_server_fc.o (symbol from plugin)
rxMspInit                                         obj/main/SPRACINGF3/rx/msp.o (symbol from plugin)
                                                  obj/main/SPRACINGF3/rx/rx.o (symbol from plugin)
rxMspReadRawRC.lto_priv.248                       /var/folders/qz/8dvj07d52mjgthd1ds8wvf400000gn/T//ccg5ycur.ltrans16.ltrans.o
                                                  /var/folders/qz/8dvj07d52mjgthd1ds8wvf400000gn/T//ccg5ycur.ltrans0.ltrans.o
rxPwmInit                                         obj/main/SPRACINGF3/rx/pwm.o (symbol from plugin)
                                                  obj/main/SPRACINGF3/rx/rx.o (symbol from plugin)
rxRefreshRate.lto_priv.244                        /var/folders/qz/8dvj07d52mjgthd1ds8wvf400000gn/T//ccg5ycur.ltrans4.ltrans.o
                                                  /var/folders/qz/8dvj07d52mjgthd1ds8wvf400000gn/T//ccg5ycur.ltrans0.ltrans.o
rxRuntimeConfig                                   /var/folders/qz/8dvj07d52mjgthd1ds8wvf400000gn/T//ccg5ycur.ltrans1.ltrans.o
                                                  obj/main/SPRACINGF3/rx/rx.o (symbol from plugin)
                                                  /var/folders/qz/8dvj07d52mjgthd1ds8wvf400000gn/T//ccg5ycur.ltrans2.ltrans.o
                                                  /var/folders/qz/8dvj07d52mjgthd1ds8wvf400000gn/T//ccg5ycur.ltrans0.ltrans.o
                                                  obj/main/SPRACINGF3/fc/msp_server_fc.o (symbol from plugin)
rxSignalReceived.lto_priv.200                     /var/folders/qz/8dvj07d52mjgthd1ds8wvf400000gn/T//ccg5ycur.ltrans2.ltrans.o
                                                  /var/folders/qz/8dvj07d52mjgthd1ds8wvf400000gn/T//ccg5ycur.ltrans12.ltrans.o
rxUpdateAt.lto_priv.199                           /var/folders/qz/8dvj07d52mjgthd1ds8wvf400000gn/T//ccg5ycur.ltrans2.ltrans.o
                                                  /var/folders/qz/8dvj07d52mjgthd1ds8wvf400000gn/T//ccg5ycur.ltrans12.ltrans.o
rx_data_process                                   obj/main/SPRACINGF3/drivers/nrf2401.o (symbol from plugin)
                                                  obj/main/SPRACINGF3/rx/rx.o (symbol from plugin)
saveConfigAndNotify                               obj/main/SPRACINGF3/fc/config.o (symbol from plugin)
                                                  obj/main/SPRACINGF3/sensors/acceleration.o (symbol from plugin)
                                                  obj/main/SPRACINGF3/rx/spektrum.o (symbol from plugin)
                                                  obj/main/SPRACINGF3/fc/rc_controls.o (symbol from plugin)
                                                  obj/main/SPRACINGF3/fc/cleanflight_fc.o (symbol from plugin)
sbufAdvance                                       obj/main/SPRACINGF3/common/streambuf.o (symbol from plugin)
sbufBytesRemaining                                obj/main/SPRACINGF3/common/streambuf.o (symbol from plugin)
                                                  obj/main/SPRACINGF3/msp/msp_serial.o (symbol from plugin)
                                                  obj/main/SPRACINGF3/fc/msp_server_fc.o (symbol from plugin)
sbufPtr                                           obj/main/SPRACINGF3/common/streambuf.o (symbol from plugin)
                                                  obj/main/SPRACINGF3/msp/msp_serial.o (symbol from plugin)
sbufReadData                                      obj/main/SPRACINGF3/common/streambuf.o (symbol from plugin)
sbufReadU16                                       /var/folders/qz/8dvj07d52mjgthd1ds8wvf400000gn/T//ccg5ycur.ltrans7.ltrans.o
                                                  obj/main/SPRACINGF3/common/streambuf.o (symbol from plugin)
                                                  /var/folders/qz/8dvj07d52mjgthd1ds8wvf400000gn/T//ccg5ycur.ltrans1.ltrans.o
                                                  obj/main/SPRACINGF3/fc/msp_server_fc.o (symbol from plugin)
sbufReadU32                                       /var/folders/qz/8dvj07d52mjgthd1ds8wvf400000gn/T//ccg5ycur.ltrans7.ltrans.o
                                                  obj/main/SPRACINGF3/common/streambuf.o (symbol from plugin)
                                                  /var/folders/qz/8dvj07d52mjgthd1ds8wvf400000gn/T//ccg5ycur.ltrans1.ltrans.o
                                                  obj/main/SPRACINGF3/fc/msp_server_fc.o (symbol from plugin)
sbufReadU8                                        obj/main/SPRACINGF3/common/streambuf.o (symbol from plugin)
                                                  obj/main/SPRACINGF3/fc/msp_server_fc.o (symbol from plugin)
sbufSwitchToReader                                obj/main/SPRACINGF3/common/streambuf.o (symbol from plugin)
                                                  obj/main/SPRACINGF3/msp/msp_serial.o (symbol from plugin)
sbufWriteData                                     /var/folders/qz/8dvj07d52mjgthd1ds8wvf400000gn/T//ccg5ycur.ltrans7.ltrans.o
                                                  obj/main/SPRACINGF3/common/streambuf.o (symbol from plugin)
                                                  /var/folders/qz/8dvj07d52mjgthd1ds8wvf400000gn/T//ccg5ycur.ltrans1.ltrans.o
                                                  obj/main/SPRACINGF3/fc/msp_server_fc.o (symbol from plugin)
sbufWriteString                                   obj/main/SPRACINGF3/common/streambuf.o (symbol from plugin)
                                                  obj/main/SPRACINGF3/fc/msp_server_fc.o (symbol from plugin)
sbufWriteU16                                      /var/folders/qz/8dvj07d52mjgthd1ds8wvf400000gn/T//ccg5ycur.ltrans7.ltrans.o
                                                  obj/main/SPRACINGF3/common/streambuf.o (symbol from plugin)
                                                  /var/folders/qz/8dvj07d52mjgthd1ds8wvf400000gn/T//ccg5ycur.ltrans1.ltrans.o
                                                  obj/main/SPRACINGF3/fc/msp_server_fc.o (symbol from plugin)
sbufWriteU32                                      /var/folders/qz/8dvj07d52mjgthd1ds8wvf400000gn/T//ccg5ycur.ltrans7.ltrans.o
                                                  obj/main/SPRACINGF3/common/streambuf.o (symbol from plugin)
                                                  /var/folders/qz/8dvj07d52mjgthd1ds8wvf400000gn/T//ccg5ycur.ltrans1.ltrans.o
                                                  obj/main/SPRACINGF3/fc/msp_server_fc.o (symbol from plugin)
sbufWriteU8                                       obj/main/SPRACINGF3/common/streambuf.o (symbol from plugin)
                                                  obj/main/SPRACINGF3/fc/msp_server_fc.o (symbol from plugin)
sbusFrameStatus                                   obj/main/SPRACINGF3/rx/sbus.o (symbol from plugin)
sbusInit                                          obj/main/SPRACINGF3/rx/sbus.o (symbol from plugin)
scalbn                                            /opt/gcc-arm-none-eabi-5_4-2016q3/bin/../lib/gcc/arm-none-eabi/5.4.1/../../../../arm-none-eabi/lib/armv7e-m/fpu/libm.a(lib_a-s_scalbn.o)
                                                  /opt/gcc-arm-none-eabi-5_4-2016q3/bin/../lib/gcc/arm-none-eabi/5.4.1/../../../../arm-none-eabi/lib/armv7e-m/fpu/libm.a(lib_a-e_pow.o)
scaleLedValue                                     obj/main/SPRACINGF3/drivers/light_ws2811strip.o (symbol from plugin)
scaleRange                                        obj/main/SPRACINGF3/common/maths.o (symbol from plugin)
                                                  obj/main/SPRACINGF3/rx/rx.o (symbol from plugin)
scanEEPROM                                        obj/main/SPRACINGF3/config/config_eeprom.o (symbol from plugin)
                                                  obj/main/SPRACINGF3/fc/config.o (symbol from plugin)
scanEEPROM.part.4                                 /var/folders/qz/8dvj07d52mjgthd1ds8wvf400000gn/T//ccg5ycur.ltrans7.ltrans.o
                                                  /var/folders/qz/8dvj07d52mjgthd1ds8wvf400000gn/T//ccg5ycur.ltrans8.ltrans.o
                                                  /var/folders/qz/8dvj07d52mjgthd1ds8wvf400000gn/T//ccg5ycur.ltrans0.ltrans.o
scheduler                                         obj/main/SPRACINGF3/scheduler/scheduler.o (symbol from plugin)
                                                  obj/main/SPRACINGF3/fc/boot.o (symbol from plugin)
schedulerInit                                     obj/main/SPRACINGF3/scheduler/scheduler.o (symbol from plugin)
                                                  obj/main/SPRACINGF3/fc/boot.o (symbol from plugin)
sectionTimes                                      obj/main/SPRACINGF3/build/debug.o (symbol from plugin)
selectMPUIntExtiConfig                            obj/main/SPRACINGF3/sensors/initialisation.o (symbol from plugin)
sensorAlignmentConfig_Registry                    /var/folders/qz/8dvj07d52mjgthd1ds8wvf400000gn/T//ccg5ycur.ltrans1.ltrans.o
                                                  obj/main/SPRACINGF3/sensors/sensors.o (symbol from plugin)
sensorAlignmentConfig_System                      /var/folders/qz/8dvj07d52mjgthd1ds8wvf400000gn/T//ccg5ycur.ltrans1.ltrans.o
                                                  obj/main/SPRACINGF3/sensors/sensors.o (symbol from plugin)
                                                  /var/folders/qz/8dvj07d52mjgthd1ds8wvf400000gn/T//ccg5ycur.ltrans0.ltrans.o
                                                  obj/main/SPRACINGF3/sensors/initialisation.o (symbol from plugin)
                                                  obj/main/SPRACINGF3/fc/msp_server_fc.o (symbol from plugin)
sensorSelectionConfig_Registry                    /var/folders/qz/8dvj07d52mjgthd1ds8wvf400000gn/T//ccg5ycur.ltrans0.ltrans.o
                                                  obj/main/SPRACINGF3/sensors/sensors.o (symbol from plugin)
sensorSelectionConfig_System                      obj/main/SPRACINGF3/sensors/sensors.o (symbol from plugin)
                                                  obj/main/SPRACINGF3/sensors/initialisation.o (symbol from plugin)
sensorTrims_Registry                              /var/folders/qz/8dvj07d52mjgthd1ds8wvf400000gn/T//ccg5ycur.ltrans8.ltrans.o
                                                  obj/main/SPRACINGF3/sensors/sensors.o (symbol from plugin)
sensorTrims_System                                obj/main/SPRACINGF3/sensors/sensors.o (symbol from plugin)
                                                  obj/main/SPRACINGF3/fc/config.o (symbol from plugin)
sensors                                           obj/main/SPRACINGF3/fc/runtime_config.o (symbol from plugin)
                                                  obj/main/SPRACINGF3/sensors/initialisation.o (symbol from plugin)
                                                  obj/main/SPRACINGF3/sensors/compass.o (symbol from plugin)
                                                  obj/main/SPRACINGF3/flight/imu.o (symbol from plugin)
                                                  obj/main/SPRACINGF3/fc/msp_server_fc.o (symbol from plugin)
                                                  obj/main/SPRACINGF3/fc/rc_controls.o (symbol from plugin)
                                                  obj/main/SPRACINGF3/fc/cleanflight_fc.o (symbol from plugin)
                                                  obj/main/SPRACINGF3/fc/boot.o (symbol from plugin)
sensorsAutodetect                                 obj/main/SPRACINGF3/sensors/initialisation.o (symbol from plugin)
                                                  obj/main/SPRACINGF3/fc/boot.o (symbol from plugin)
sensorsClear                                      obj/main/SPRACINGF3/fc/runtime_config.o (symbol from plugin)
sensorsMask                                       obj/main/SPRACINGF3/fc/runtime_config.o (symbol from plugin)
                                                  obj/main/SPRACINGF3/io/serial_cli.o (symbol from plugin)
sensorsSet                                        obj/main/SPRACINGF3/fc/runtime_config.o (symbol from plugin)
                                                  obj/main/SPRACINGF3/sensors/initialisation.o (symbol from plugin)
serialBeginWrite                                  /var/folders/qz/8dvj07d52mjgthd1ds8wvf400000gn/T//ccg5ycur.ltrans7.ltrans.o
                                                  obj/main/SPRACINGF3/drivers/serial.o (symbol from plugin)
                                                  /var/folders/qz/8dvj07d52mjgthd1ds8wvf400000gn/T//ccg5ycur.ltrans13.ltrans.o
                                                  obj/main/SPRACINGF3/msp/msp_serial.o (symbol from plugin)
                                                  obj/main/SPRACINGF3/io/serial_4way.o (symbol from plugin)
serialConfig_Registry                             /var/folders/qz/8dvj07d52mjgthd1ds8wvf400000gn/T//ccg5ycur.ltrans1.ltrans.o
                                                  obj/main/SPRACINGF3/fc/fc_serial.o (symbol from plugin)
                                                  /var/folders/qz/8dvj07d52mjgthd1ds8wvf400000gn/T//ccg5ycur.ltrans8.ltrans.o
                                                  obj/main/SPRACINGF3/fc/config.o (symbol from plugin)
serialConfig_System                               /var/folders/qz/8dvj07d52mjgthd1ds8wvf400000gn/T//ccg5ycur.ltrans1.ltrans.o
                                                  obj/main/SPRACINGF3/fc/fc_serial.o (symbol from plugin)
                                                  /var/folders/qz/8dvj07d52mjgthd1ds8wvf400000gn/T//ccg5ycur.ltrans8.ltrans.o
                                                  /var/folders/qz/8dvj07d52mjgthd1ds8wvf400000gn/T//ccg5ycur.ltrans5.ltrans.o
                                                  /var/folders/qz/8dvj07d52mjgthd1ds8wvf400000gn/T//ccg5ycur.ltrans0.ltrans.o
                                                  obj/main/SPRACINGF3/io/serial.o (symbol from plugin)
                                                  obj/main/SPRACINGF3/io/serial_cli.o (symbol from plugin)
                                                  obj/main/SPRACINGF3/fc/msp_server_fc.o (symbol from plugin)
                                                  obj/main/SPRACINGF3/fc/config.o (symbol from plugin)
serialEndWrite                                    /var/folders/qz/8dvj07d52mjgthd1ds8wvf400000gn/T//ccg5ycur.ltrans7.ltrans.o
                                                  obj/main/SPRACINGF3/drivers/serial.o (symbol from plugin)
                                                  /var/folders/qz/8dvj07d52mjgthd1ds8wvf400000gn/T//ccg5ycur.ltrans13.ltrans.o
                                                  obj/main/SPRACINGF3/msp/msp_serial.o (symbol from plugin)
                                                  obj/main/SPRACINGF3/io/serial_4way.o (symbol from plugin)
serialFindPortConfiguration                       obj/main/SPRACINGF3/io/serial.o (symbol from plugin)
                                                  obj/main/SPRACINGF3/io/serial_cli.o (symbol from plugin)
                                                  obj/main/SPRACINGF3/fc/msp_server_fc.o (symbol from plugin)
serialGetAvailablePortCount                       obj/main/SPRACINGF3/io/serial.o (symbol from plugin)
serialGetBaudRate                                 obj/main/SPRACINGF3/drivers/serial.o (symbol from plugin)
serialInit                                        obj/main/SPRACINGF3/io/serial.o (symbol from plugin)
                                                  obj/main/SPRACINGF3/fc/boot.o (symbol from plugin)
serialInputPortConfig                             obj/main/SPRACINGF3/drivers/serial_softserial.o (symbol from plugin)
serialIsPortAvailable                             obj/main/SPRACINGF3/io/serial.o (symbol from plugin)
                                                  obj/main/SPRACINGF3/io/serial_cli.o (symbol from plugin)
                                                  obj/main/SPRACINGF3/fc/msp_server_fc.o (symbol from plugin)
serialPortIdentifiers                             /var/folders/qz/8dvj07d52mjgthd1ds8wvf400000gn/T//ccg5ycur.ltrans8.ltrans.o
                                                  obj/main/SPRACINGF3/io/serial.o (symbol from plugin)
                                                  /var/folders/qz/8dvj07d52mjgthd1ds8wvf400000gn/T//ccg5ycur.ltrans0.ltrans.o
                                                  obj/main/SPRACINGF3/fc/fc_serial.o (symbol from plugin)
serialPortUsageList.lto_priv.142                  /var/folders/qz/8dvj07d52mjgthd1ds8wvf400000gn/T//ccg5ycur.ltrans1.ltrans.o
                                                  /var/folders/qz/8dvj07d52mjgthd1ds8wvf400000gn/T//ccg5ycur.ltrans5.ltrans.o
                                                  /var/folders/qz/8dvj07d52mjgthd1ds8wvf400000gn/T//ccg5ycur.ltrans0.ltrans.o
serialPrint                                       obj/main/SPRACINGF3/drivers/serial.o (symbol from plugin)
serialRead                                        /var/folders/qz/8dvj07d52mjgthd1ds8wvf400000gn/T//ccg5ycur.ltrans7.ltrans.o
                                                  obj/main/SPRACINGF3/drivers/serial.o (symbol from plugin)
                                                  /var/folders/qz/8dvj07d52mjgthd1ds8wvf400000gn/T//ccg5ycur.ltrans12.ltrans.o
                                                  /var/folders/qz/8dvj07d52mjgthd1ds8wvf400000gn/T//ccg5ycur.ltrans6.ltrans.o
                                                  /var/folders/qz/8dvj07d52mjgthd1ds8wvf400000gn/T//ccg5ycur.ltrans1.ltrans.o
                                                  obj/main/SPRACINGF3/msp/msp_serial.o (symbol from plugin)
                                                  obj/main/SPRACINGF3/io/serial_cli.o (symbol from plugin)
                                                  obj/main/SPRACINGF3/io/serial_4way.o (symbol from plugin)
serialRemovePort                                  obj/main/SPRACINGF3/io/serial.o (symbol from plugin)
serialRxBytesWaiting                              /var/folders/qz/8dvj07d52mjgthd1ds8wvf400000gn/T//ccg5ycur.ltrans7.ltrans.o
                                                  obj/main/SPRACINGF3/drivers/serial.o (symbol from plugin)
                                                  /var/folders/qz/8dvj07d52mjgthd1ds8wvf400000gn/T//ccg5ycur.ltrans12.ltrans.o
                                                  /var/folders/qz/8dvj07d52mjgthd1ds8wvf400000gn/T//ccg5ycur.ltrans6.ltrans.o
                                                  /var/folders/qz/8dvj07d52mjgthd1ds8wvf400000gn/T//ccg5ycur.ltrans1.ltrans.o
                                                  obj/main/SPRACINGF3/msp/msp_serial.o (symbol from plugin)
                                                  obj/main/SPRACINGF3/io/serial_cli.o (symbol from plugin)
                                                  obj/main/SPRACINGF3/io/serial_4way.o (symbol from plugin)
serialSetBaudRate                                 obj/main/SPRACINGF3/drivers/serial.o (symbol from plugin)
serialSetMode                                     obj/main/SPRACINGF3/drivers/serial.o (symbol from plugin)
                                                  obj/main/SPRACINGF3/io/serial.o (symbol from plugin)
serialTxBytesFree                                 obj/main/SPRACINGF3/drivers/serial.o (symbol from plugin)
serialUART1                                       obj/main/SPRACINGF3/drivers/serial_uart_stm32f30x.o (symbol from plugin)
                                                  obj/main/SPRACINGF3/drivers/serial_uart.o (symbol from plugin)
serialUART2                                       obj/main/SPRACINGF3/drivers/serial_uart_stm32f30x.o (symbol from plugin)
                                                  obj/main/SPRACINGF3/drivers/serial_uart.o (symbol from plugin)
serialUART3                                       obj/main/SPRACINGF3/drivers/serial_uart_stm32f30x.o (symbol from plugin)
                                                  obj/main/SPRACINGF3/drivers/serial_uart.o (symbol from plugin)
serialWrite                                       /var/folders/qz/8dvj07d52mjgthd1ds8wvf400000gn/T//ccg5ycur.ltrans7.ltrans.o
                                                  obj/main/SPRACINGF3/drivers/serial.o (symbol from plugin)
                                                  /var/folders/qz/8dvj07d52mjgthd1ds8wvf400000gn/T//ccg5ycur.ltrans13.ltrans.o
                                                  /var/folders/qz/8dvj07d52mjgthd1ds8wvf400000gn/T//ccg5ycur.ltrans6.ltrans.o
                                                  obj/main/SPRACINGF3/msp/msp_serial.o (symbol from plugin)
                                                  obj/main/SPRACINGF3/common/printf.o (symbol from plugin)
                                                  obj/main/SPRACINGF3/io/serial_4way.o (symbol from plugin)
serialWriteBuf                                    obj/main/SPRACINGF3/drivers/serial.o (symbol from plugin)
                                                  obj/main/SPRACINGF3/msp/msp_serial.o (symbol from plugin)
serialWriteBufShim                                /var/folders/qz/8dvj07d52mjgthd1ds8wvf400000gn/T//ccg5ycur.ltrans7.ltrans.o
                                                  obj/main/SPRACINGF3/drivers/serial.o (symbol from plugin)
                                                  /var/folders/qz/8dvj07d52mjgthd1ds8wvf400000gn/T//ccg5ycur.ltrans1.ltrans.o
                                                  obj/main/SPRACINGF3/io/serial_cli.o (symbol from plugin)
setAccelerationTrims                              obj/main/SPRACINGF3/sensors/acceleration.o (symbol from plugin)
                                                  obj/main/SPRACINGF3/fc/config.o (symbol from plugin)
setAdjustment.isra.0.constprop.21                 /var/folders/qz/8dvj07d52mjgthd1ds8wvf400000gn/T//ccg5ycur.ltrans9.ltrans.o
                                                  /var/folders/qz/8dvj07d52mjgthd1ds8wvf400000gn/T//ccg5ycur.ltrans2.ltrans.o
setControlRateProfile                             obj/main/SPRACINGF3/fc/rate_profile.o (symbol from plugin)
                                                  obj/main/SPRACINGF3/fc/config.o (symbol from plugin)
setEscHi                                          obj/main/SPRACINGF3/io/serial_4way.o (symbol from plugin)
                                                  obj/main/SPRACINGF3/io/serial_4way_stk500v2.o (symbol from plugin)
                                                  obj/main/SPRACINGF3/io/serial_4way_avrootloader.o (symbol from plugin)
setEscInput                                       obj/main/SPRACINGF3/io/serial_4way.o (symbol from plugin)
                                                  obj/main/SPRACINGF3/io/serial_4way_stk500v2.o (symbol from plugin)
                                                  obj/main/SPRACINGF3/io/serial_4way_avrootloader.o (symbol from plugin)
setEscLo                                          obj/main/SPRACINGF3/io/serial_4way.o (symbol from plugin)
                                                  obj/main/SPRACINGF3/io/serial_4way_stk500v2.o (symbol from plugin)
                                                  obj/main/SPRACINGF3/io/serial_4way_avrootloader.o (symbol from plugin)
setEscOutput                                      obj/main/SPRACINGF3/io/serial_4way.o (symbol from plugin)
                                                  obj/main/SPRACINGF3/io/serial_4way_stk500v2.o (symbol from plugin)
                                                  obj/main/SPRACINGF3/io/serial_4way_avrootloader.o (symbol from plugin)
setLedHsv                                         obj/main/SPRACINGF3/drivers/light_ws2811strip.o (symbol from plugin)
setLedValue                                       obj/main/SPRACINGF3/drivers/light_ws2811strip.o (symbol from plugin)
setPrintfSerialPort                               obj/main/SPRACINGF3/common/printf.o (symbol from plugin)
                                                  obj/main/SPRACINGF3/io/serial_cli.o (symbol from plugin)
setProfile                                        obj/main/SPRACINGF3/config/profile.o (symbol from plugin)
                                                  obj/main/SPRACINGF3/fc/config.o (symbol from plugin)
setStripColor                                     obj/main/SPRACINGF3/drivers/light_ws2811strip.o (symbol from plugin)
                                                  obj/main/SPRACINGF3/drivers/light_ws2811strip_stm32f30x.o (symbol from plugin)
setStripColors                                    obj/main/SPRACINGF3/drivers/light_ws2811strip.o (symbol from plugin)
setTaskEnabled                                    /var/folders/qz/8dvj07d52mjgthd1ds8wvf400000gn/T//ccg5ycur.ltrans7.ltrans.o
                                                  obj/main/SPRACINGF3/scheduler/scheduler.o (symbol from plugin)
                                                  /var/folders/qz/8dvj07d52mjgthd1ds8wvf400000gn/T//ccg5ycur.ltrans0.ltrans.o
                                                  obj/main/SPRACINGF3/fc/boot.o (symbol from plugin)
setTxSignal                                       obj/main/SPRACINGF3/drivers/serial_softserial.o (symbol from plugin)
setVelocity                                       /var/folders/qz/8dvj07d52mjgthd1ds8wvf400000gn/T//ccg5ycur.ltrans8.ltrans.o
                                                  obj/main/SPRACINGF3/flight/altitudehold.o (symbol from plugin)
                                                  /var/folders/qz/8dvj07d52mjgthd1ds8wvf400000gn/T//ccg5ycur.ltrans4.ltrans.o
setlocale                                         /opt/gcc-arm-none-eabi-5_4-2016q3/bin/../lib/gcc/arm-none-eabi/5.4.1/../../../../arm-none-eabi/lib/armv7e-m/fpu/libc_nano.a(lib_a-locale.o)
shortGitRevision                                  /var/folders/qz/8dvj07d52mjgthd1ds8wvf400000gn/T//ccg5ycur.ltrans1.ltrans.o
                                                  obj/main/SPRACINGF3/build/version.o (symbol from plugin)
                                                  obj/main/SPRACINGF3/io/serial_cli.o (symbol from plugin)
                                                  obj/main/SPRACINGF3/fc/msp_server_fc.o (symbol from plugin)
shouldProcessRx                                   obj/main/SPRACINGF3/rx/rx.o (symbol from plugin)
                                                  obj/main/SPRACINGF3/fc/cleanflight_fc.o (symbol from plugin)
sinf                                              /var/folders/qz/8dvj07d52mjgthd1ds8wvf400000gn/T//ccg5ycur.ltrans7.ltrans.o
                                                  /var/folders/qz/8dvj07d52mjgthd1ds8wvf400000gn/T//ccg5ycur.ltrans4.ltrans.o
                                                  /var/folders/qz/8dvj07d52mjgthd1ds8wvf400000gn/T//ccg5ycur.ltrans0.ltrans.o
skipRxSamples.lto_priv.194                        /var/folders/qz/8dvj07d52mjgthd1ds8wvf400000gn/T//ccg5ycur.ltrans16.ltrans.o
                                                  /var/folders/qz/8dvj07d52mjgthd1ds8wvf400000gn/T//ccg5ycur.ltrans2.ltrans.o
smallAngleCosZ                                    /var/folders/qz/8dvj07d52mjgthd1ds8wvf400000gn/T//ccg5ycur.ltrans4.ltrans.o
                                                  obj/main/SPRACINGF3/flight/imu.o (symbol from plugin)
                                                  /var/folders/qz/8dvj07d52mjgthd1ds8wvf400000gn/T//ccg5ycur.ltrans0.ltrans.o
softSerialPorts                                   obj/main/SPRACINGF3/drivers/serial_softserial.o (symbol from plugin)
softSerialReadByte                                obj/main/SPRACINGF3/drivers/serial_softserial.o (symbol from plugin)
softSerialRxBytesWaiting                          obj/main/SPRACINGF3/drivers/serial_softserial.o (symbol from plugin)
softSerialSetBaudRate                             obj/main/SPRACINGF3/drivers/serial_softserial.o (symbol from plugin)
softSerialSetMode                                 obj/main/SPRACINGF3/drivers/serial_softserial.o (symbol from plugin)
softSerialTxBytesFree                             obj/main/SPRACINGF3/drivers/serial_softserial.o (symbol from plugin)
softSerialVTable                                  obj/main/SPRACINGF3/drivers/serial_softserial.o (symbol from plugin)
softSerialWriteByte                               obj/main/SPRACINGF3/drivers/serial_softserial.o (symbol from plugin)
spekShouldBind                                    obj/main/SPRACINGF3/rx/spektrum.o (symbol from plugin)
spektrumBind                                      obj/main/SPRACINGF3/rx/spektrum.o (symbol from plugin)
                                                  obj/main/SPRACINGF3/fc/boot.o (symbol from plugin)
spektrumFrameStatus                               obj/main/SPRACINGF3/rx/spektrum.o (symbol from plugin)
spektrumInit                                      obj/main/SPRACINGF3/rx/spektrum.o (symbol from plugin)
spiInit                                           obj/main/SPRACINGF3/drivers/bus_spi.o (symbol from plugin)
                                                  obj/main/SPRACINGF3/fc/boot.o (symbol from plugin)
spiIsBusBusy                                      obj/main/SPRACINGF3/drivers/bus_spi.o (symbol from plugin)
spiSetDivisor                                     obj/main/SPRACINGF3/drivers/bus_spi.o (symbol from plugin)
spiTransfer                                       obj/main/SPRACINGF3/drivers/bus_spi.o (symbol from plugin)
                                                  obj/main/SPRACINGF3/drivers/nrf2401.o (symbol from plugin)
spiTransfer.constprop.78                          /var/folders/qz/8dvj07d52mjgthd1ds8wvf400000gn/T//ccg5ycur.ltrans17.ltrans.o
                                                  /var/folders/qz/8dvj07d52mjgthd1ds8wvf400000gn/T//ccg5ycur.ltrans11.ltrans.o
                                                  /var/folders/qz/8dvj07d52mjgthd1ds8wvf400000gn/T//ccg5ycur.ltrans0.ltrans.o
spiTransferByte                                   obj/main/SPRACINGF3/drivers/bus_spi.o (symbol from plugin)
                                                  obj/main/SPRACINGF3/drivers/nrf2401.o (symbol from plugin)
spiTransferByte.constprop.79                      /var/folders/qz/8dvj07d52mjgthd1ds8wvf400000gn/T//ccg5ycur.ltrans17.ltrans.o
                                                  /var/folders/qz/8dvj07d52mjgthd1ds8wvf400000gn/T//ccg5ycur.ltrans20.ltrans.o
                                                  /var/folders/qz/8dvj07d52mjgthd1ds8wvf400000gn/T//ccg5ycur.ltrans11.ltrans.o
                                                  /var/folders/qz/8dvj07d52mjgthd1ds8wvf400000gn/T//ccg5ycur.ltrans0.ltrans.o
sqrtf                                             /opt/gcc-arm-none-eabi-5_4-2016q3/bin/../lib/gcc/arm-none-eabi/5.4.1/../../../../arm-none-eabi/lib/armv7e-m/fpu/libm.a(lib_a-wf_sqrt.o)
                                                  /var/folders/qz/8dvj07d52mjgthd1ds8wvf400000gn/T//ccg5ycur.ltrans7.ltrans.o
                                                  /var/folders/qz/8dvj07d52mjgthd1ds8wvf400000gn/T//ccg5ycur.ltrans4.ltrans.o
srxlFrameStatus                                   obj/main/SPRACINGF3/rx/srxl.o (symbol from plugin)
srxlInit                                          obj/main/SPRACINGF3/rx/srxl.o (symbol from plugin)
standardBoardAlignment.lto_priv.255               /var/folders/qz/8dvj07d52mjgthd1ds8wvf400000gn/T//ccg5ycur.ltrans16.ltrans.o
                                                  /var/folders/qz/8dvj07d52mjgthd1ds8wvf400000gn/T//ccg5ycur.ltrans0.ltrans.o
start_pressure                                    obj/main/SPRACINGF3/drivers/fbm320.o (symbol from plugin)
start_temperature                                 obj/main/SPRACINGF3/drivers/fbm320.o (symbol from plugin)
stateFlags                                        /var/folders/qz/8dvj07d52mjgthd1ds8wvf400000gn/T//ccg5ycur.ltrans1.ltrans.o
                                                  obj/main/SPRACINGF3/fc/runtime_config.o (symbol from plugin)
                                                  /var/folders/qz/8dvj07d52mjgthd1ds8wvf400000gn/T//ccg5ycur.ltrans6.ltrans.o
                                                  /var/folders/qz/8dvj07d52mjgthd1ds8wvf400000gn/T//ccg5ycur.ltrans4.ltrans.o
                                                  /var/folders/qz/8dvj07d52mjgthd1ds8wvf400000gn/T//ccg5ycur.ltrans2.ltrans.o
                                                  /var/folders/qz/8dvj07d52mjgthd1ds8wvf400000gn/T//ccg5ycur.ltrans0.ltrans.o
                                                  obj/main/SPRACINGF3/flight/imu.o (symbol from plugin)
                                                  obj/main/SPRACINGF3/flight/pid_mw23.o (symbol from plugin)
                                                  obj/main/SPRACINGF3/flight/pid_mwrewrite.o (symbol from plugin)
                                                  obj/main/SPRACINGF3/flight/pid_luxfloat.o (symbol from plugin)
                                                  obj/main/SPRACINGF3/flight/altitudehold.o (symbol from plugin)
                                                  obj/main/SPRACINGF3/fc/msp_server_fc.o (symbol from plugin)
                                                  obj/main/SPRACINGF3/fc/rc_controls.o (symbol from plugin)
                                                  obj/main/SPRACINGF3/fc/cleanflight_fc.o (symbol from plugin)
                                                  obj/main/SPRACINGF3/fc/boot.o (symbol from plugin)
stkInBuf.lto_priv.162                             /var/folders/qz/8dvj07d52mjgthd1ds8wvf400000gn/T//ccg5ycur.ltrans5.ltrans.o
                                                  /var/folders/qz/8dvj07d52mjgthd1ds8wvf400000gn/T//ccg5ycur.ltrans15.ltrans.o
                                                  /var/folders/qz/8dvj07d52mjgthd1ds8wvf400000gn/T//ccg5ycur.ltrans13.ltrans.o
stopMotors                                        /var/folders/qz/8dvj07d52mjgthd1ds8wvf400000gn/T//ccg5ycur.ltrans6.ltrans.o
                                                  obj/main/SPRACINGF3/flight/mixer.o (symbol from plugin)
                                                  /var/folders/qz/8dvj07d52mjgthd1ds8wvf400000gn/T//ccg5ycur.ltrans18.ltrans.o
                                                  /var/folders/qz/8dvj07d52mjgthd1ds8wvf400000gn/T//ccg5ycur.ltrans14.ltrans.o
                                                  obj/main/SPRACINGF3/io/serial_cli.o (symbol from plugin)
                                                  obj/main/SPRACINGF3/fc/msp_server_fc.o (symbol from plugin)
                                                  obj/main/SPRACINGF3/fc/boot.o (symbol from plugin)
strcasecmp                                        /opt/gcc-arm-none-eabi-5_4-2016q3/bin/../lib/gcc/arm-none-eabi/5.4.1/../../../../arm-none-eabi/lib/armv7e-m/fpu/libc_nano.a(lib_a-strcasecmp.o)
                                                  /var/folders/qz/8dvj07d52mjgthd1ds8wvf400000gn/T//ccg5ycur.ltrans16.ltrans.o
                                                  /var/folders/qz/8dvj07d52mjgthd1ds8wvf400000gn/T//ccg5ycur.ltrans5.ltrans.o
strcat                                            /opt/gcc-arm-none-eabi-5_4-2016q3/bin/../lib/gcc/arm-none-eabi/5.4.1/../../../../arm-none-eabi/lib/armv7e-m/fpu/libc_nano.a(lib_a-strcat.o)
                                                  /var/folders/qz/8dvj07d52mjgthd1ds8wvf400000gn/T//ccg5ycur.ltrans7.ltrans.o
strchr                                            /opt/gcc-arm-none-eabi-5_4-2016q3/bin/../lib/gcc/arm-none-eabi/5.4.1/../../../../arm-none-eabi/lib/armv7e-m/fpu/libc_nano.a(lib_a-strchr.o)
                                                  /var/folders/qz/8dvj07d52mjgthd1ds8wvf400000gn/T//ccg5ycur.ltrans16.ltrans.o
                                                  /var/folders/qz/8dvj07d52mjgthd1ds8wvf400000gn/T//ccg5ycur.ltrans12.ltrans.o
                                                  /var/folders/qz/8dvj07d52mjgthd1ds8wvf400000gn/T//ccg5ycur.ltrans9.ltrans.o
                                                  /var/folders/qz/8dvj07d52mjgthd1ds8wvf400000gn/T//ccg5ycur.ltrans5.ltrans.o
strcmp                                            /opt/gcc-arm-none-eabi-5_4-2016q3/bin/../lib/gcc/arm-none-eabi/5.4.1/../../../../arm-none-eabi/lib/armv7e-m/fpu/libc_nano.a(lib_a-strcmp.o)
                                                  /var/folders/qz/8dvj07d52mjgthd1ds8wvf400000gn/T//ccg5ycur.ltrans2.ltrans.o
                                                  /opt/gcc-arm-none-eabi-5_4-2016q3/bin/../lib/gcc/arm-none-eabi/5.4.1/../../../../arm-none-eabi/lib/armv7e-m/fpu/libc_nano.a(lib_a-locale.o)
strlen                                            /opt/gcc-arm-none-eabi-5_4-2016q3/bin/../lib/gcc/arm-none-eabi/5.4.1/../../../../arm-none-eabi/lib/armv7e-m/fpu/libc_nano.a(lib_a-strlen.o)
                                                  /var/folders/qz/8dvj07d52mjgthd1ds8wvf400000gn/T//ccg5ycur.ltrans16.ltrans.o
                                                  /var/folders/qz/8dvj07d52mjgthd1ds8wvf400000gn/T//ccg5ycur.ltrans14.ltrans.o
                                                  /var/folders/qz/8dvj07d52mjgthd1ds8wvf400000gn/T//ccg5ycur.ltrans12.ltrans.o
                                                  /var/folders/qz/8dvj07d52mjgthd1ds8wvf400000gn/T//ccg5ycur.ltrans7.ltrans.o
                                                  /var/folders/qz/8dvj07d52mjgthd1ds8wvf400000gn/T//ccg5ycur.ltrans5.ltrans.o
                                                  /var/folders/qz/8dvj07d52mjgthd1ds8wvf400000gn/T//ccg5ycur.ltrans1.ltrans.o
strncasecmp                                       /opt/gcc-arm-none-eabi-5_4-2016q3/bin/../lib/gcc/arm-none-eabi/5.4.1/../../../../arm-none-eabi/lib/armv7e-m/fpu/libc_nano.a(lib_a-strncasecmp.o)
                                                  /var/folders/qz/8dvj07d52mjgthd1ds8wvf400000gn/T//ccg5ycur.ltrans16.ltrans.o
                                                  /var/folders/qz/8dvj07d52mjgthd1ds8wvf400000gn/T//ccg5ycur.ltrans14.ltrans.o
                                                  /var/folders/qz/8dvj07d52mjgthd1ds8wvf400000gn/T//ccg5ycur.ltrans12.ltrans.o
                                                  /var/folders/qz/8dvj07d52mjgthd1ds8wvf400000gn/T//ccg5ycur.ltrans5.ltrans.o
strncpy                                           /opt/gcc-arm-none-eabi-5_4-2016q3/bin/../lib/gcc/arm-none-eabi/5.4.1/../../../../arm-none-eabi/lib/armv7e-m/fpu/libc_nano.a(lib_a-strncpy.o)
                                                  /var/folders/qz/8dvj07d52mjgthd1ds8wvf400000gn/T//ccg5ycur.ltrans7.ltrans.o
strstr                                            /opt/gcc-arm-none-eabi-5_4-2016q3/bin/../lib/gcc/arm-none-eabi/5.4.1/../../../../arm-none-eabi/lib/armv7e-m/fpu/libc_nano.a(lib_a-strstr.o)
                                                  /var/folders/qz/8dvj07d52mjgthd1ds8wvf400000gn/T//ccg5ycur.ltrans16.ltrans.o
strtok_r                                          /opt/gcc-arm-none-eabi-5_4-2016q3/bin/../lib/gcc/arm-none-eabi/5.4.1/../../../../arm-none-eabi/lib/armv7e-m/fpu/libc_nano.a(lib_a-strtok_r.o)
                                                  /var/folders/qz/8dvj07d52mjgthd1ds8wvf400000gn/T//ccg5ycur.ltrans14.ltrans.o
                                                  obj/main/SPRACINGF3/io/serial_cli.o (symbol from plugin)
strtol                                            /opt/gcc-arm-none-eabi-5_4-2016q3/bin/../lib/gcc/arm-none-eabi/5.4.1/../../../../arm-none-eabi/lib/armv7e-m/fpu/libc_nano.a(lib_a-strtol.o)
                                                  /opt/gcc-arm-none-eabi-5_4-2016q3/bin/../lib/gcc/arm-none-eabi/5.4.1/../../../../arm-none-eabi/lib/armv7e-m/fpu/libc_nano.a(lib_a-atoi.o)
strtol_l                                          /opt/gcc-arm-none-eabi-5_4-2016q3/bin/../lib/gcc/arm-none-eabi/5.4.1/../../../../arm-none-eabi/lib/armv7e-m/fpu/libc_nano.a(lib_a-strtol.o)
suart_getc.lto_priv.174                           /var/folders/qz/8dvj07d52mjgthd1ds8wvf400000gn/T//ccg5ycur.ltrans15.ltrans.o
                                                  /var/folders/qz/8dvj07d52mjgthd1ds8wvf400000gn/T//ccg5ycur.ltrans13.ltrans.o
sumdFrameStatus                                   obj/main/SPRACINGF3/rx/sumd.o (symbol from plugin)
sumdInit                                          obj/main/SPRACINGF3/rx/sumd.o (symbol from plugin)
sumhFrameStatus                                   obj/main/SPRACINGF3/rx/sumh.o (symbol from plugin)
sumhInit                                          obj/main/SPRACINGF3/rx/sumh.o (symbol from plugin)
suspendRxSignal                                   /var/folders/qz/8dvj07d52mjgthd1ds8wvf400000gn/T//ccg5ycur.ltrans16.ltrans.o
                                                  obj/main/SPRACINGF3/rx/rx.o (symbol from plugin)
                                                  /var/folders/qz/8dvj07d52mjgthd1ds8wvf400000gn/T//ccg5ycur.ltrans8.ltrans.o
                                                  obj/main/SPRACINGF3/fc/config.o (symbol from plugin)
suspendRxSignalUntil.lto_priv.195                 /var/folders/qz/8dvj07d52mjgthd1ds8wvf400000gn/T//ccg5ycur.ltrans16.ltrans.o
                                                  /var/folders/qz/8dvj07d52mjgthd1ds8wvf400000gn/T//ccg5ycur.ltrans2.ltrans.o
sysTickUptime.lto_priv.118                        /var/folders/qz/8dvj07d52mjgthd1ds8wvf400000gn/T//ccg5ycur.ltrans7.ltrans.o
                                                  /var/folders/qz/8dvj07d52mjgthd1ds8wvf400000gn/T//ccg5ycur.ltrans18.ltrans.o
                                                  /var/folders/qz/8dvj07d52mjgthd1ds8wvf400000gn/T//ccg5ycur.ltrans16.ltrans.o
                                                  /var/folders/qz/8dvj07d52mjgthd1ds8wvf400000gn/T//ccg5ycur.ltrans12.ltrans.o
                                                  /var/folders/qz/8dvj07d52mjgthd1ds8wvf400000gn/T//ccg5ycur.ltrans6.ltrans.o
                                                  /var/folders/qz/8dvj07d52mjgthd1ds8wvf400000gn/T//ccg5ycur.ltrans4.ltrans.o
                                                  /var/folders/qz/8dvj07d52mjgthd1ds8wvf400000gn/T//ccg5ycur.ltrans2.ltrans.o
                                                  /var/folders/qz/8dvj07d52mjgthd1ds8wvf400000gn/T//ccg5ycur.ltrans0.ltrans.o
systemBeep                                        obj/main/SPRACINGF3/drivers/sound_beeper.o (symbol from plugin)
systemConfig_Registry                             /var/folders/qz/8dvj07d52mjgthd1ds8wvf400000gn/T//ccg5ycur.ltrans0.ltrans.o
                                                  obj/main/SPRACINGF3/fc/boot.o (symbol from plugin)
systemConfig_System                               obj/main/SPRACINGF3/fc/boot.o (symbol from plugin)
systemInit                                        obj/main/SPRACINGF3/drivers/system.o (symbol from plugin)
                                                  obj/main/SPRACINGF3/fc/boot.o (symbol from plugin)
systemReset                                       obj/main/SPRACINGF3/drivers/system_stm32f30x.o (symbol from plugin)
                                                  obj/main/SPRACINGF3/drivers/system.o (symbol from plugin)
                                                  obj/main/SPRACINGF3/io/serial_cli.o (symbol from plugin)
                                                  obj/main/SPRACINGF3/fc/msp_server_fc.o (symbol from plugin)
systemResetToBootloader                           obj/main/SPRACINGF3/drivers/system_stm32f30x.o (symbol from plugin)
                                                  obj/main/SPRACINGF3/fc/fc_serial.o (symbol from plugin)
systemState.lto_priv.241                          /var/folders/qz/8dvj07d52mjgthd1ds8wvf400000gn/T//ccg5ycur.ltrans18.ltrans.o
                                                  /var/folders/qz/8dvj07d52mjgthd1ds8wvf400000gn/T//ccg5ycur.ltrans0.ltrans.o
targetLooptime                                    /var/folders/qz/8dvj07d52mjgthd1ds8wvf400000gn/T//ccg5ycur.ltrans6.ltrans.o
                                                  obj/main/SPRACINGF3/drivers/gyro_sync.o (symbol from plugin)
                                                  /var/folders/qz/8dvj07d52mjgthd1ds8wvf400000gn/T//ccg5ycur.ltrans4.ltrans.o
                                                  /var/folders/qz/8dvj07d52mjgthd1ds8wvf400000gn/T//ccg5ycur.ltrans0.ltrans.o
                                                  obj/main/SPRACINGF3/sensors/gyro.o (symbol from plugin)
                                                  obj/main/SPRACINGF3/flight/pid_mwrewrite.o (symbol from plugin)
                                                  obj/main/SPRACINGF3/fc/cleanflight_fc.o (symbol from plugin)
                                                  obj/main/SPRACINGF3/fc/boot.o (symbol from plugin)
targetName                                        obj/main/SPRACINGF3/build/version.o (symbol from plugin)
                                                  obj/main/SPRACINGF3/io/serial_cli.o (symbol from plugin)
taskCalculateAltitude                             /var/folders/qz/8dvj07d52mjgthd1ds8wvf400000gn/T//ccg5ycur.ltrans8.ltrans.o
                                                  obj/main/SPRACINGF3/fc/cleanflight_fc.o (symbol from plugin)
                                                  /var/folders/qz/8dvj07d52mjgthd1ds8wvf400000gn/T//ccg5ycur.ltrans7.ltrans.o
                                                  obj/main/SPRACINGF3/fc/fc_tasks.o (symbol from plugin)
taskCount                                         /var/folders/qz/8dvj07d52mjgthd1ds8wvf400000gn/T//ccg5ycur.ltrans7.ltrans.o
                                                  obj/main/SPRACINGF3/fc/fc_tasks.o (symbol from plugin)
                                                  obj/main/SPRACINGF3/scheduler/scheduler.o (symbol from plugin)
taskFbm320                                        /var/folders/qz/8dvj07d52mjgthd1ds8wvf400000gn/T//ccg5ycur.ltrans11.ltrans.o
                                                  obj/main/SPRACINGF3/drivers/fbm320.o (symbol from plugin)
                                                  /var/folders/qz/8dvj07d52mjgthd1ds8wvf400000gn/T//ccg5ycur.ltrans7.ltrans.o
                                                  obj/main/SPRACINGF3/fc/fc_tasks.o (symbol from plugin)
taskHandleSerial                                  /var/folders/qz/8dvj07d52mjgthd1ds8wvf400000gn/T//ccg5ycur.ltrans12.ltrans.o
                                                  obj/main/SPRACINGF3/fc/cleanflight_fc.o (symbol from plugin)
                                                  /var/folders/qz/8dvj07d52mjgthd1ds8wvf400000gn/T//ccg5ycur.ltrans7.ltrans.o
                                                  obj/main/SPRACINGF3/fc/fc_tasks.o (symbol from plugin)
taskMainPidLoop                                   obj/main/SPRACINGF3/fc/cleanflight_fc.o (symbol from plugin)
taskMainPidLoopChecker                            /var/folders/qz/8dvj07d52mjgthd1ds8wvf400000gn/T//ccg5ycur.ltrans4.ltrans.o
                                                  obj/main/SPRACINGF3/fc/cleanflight_fc.o (symbol from plugin)
                                                  /var/folders/qz/8dvj07d52mjgthd1ds8wvf400000gn/T//ccg5ycur.ltrans7.ltrans.o
                                                  obj/main/SPRACINGF3/fc/fc_tasks.o (symbol from plugin)
taskQueueArray                                    /var/folders/qz/8dvj07d52mjgthd1ds8wvf400000gn/T//ccg5ycur.ltrans7.ltrans.o
                                                  obj/main/SPRACINGF3/fc/fc_tasks.o (symbol from plugin)
                                                  /var/folders/qz/8dvj07d52mjgthd1ds8wvf400000gn/T//ccg5ycur.ltrans16.ltrans.o
                                                  /var/folders/qz/8dvj07d52mjgthd1ds8wvf400000gn/T//ccg5ycur.ltrans0.ltrans.o
                                                  obj/main/SPRACINGF3/scheduler/scheduler.o (symbol from plugin)
taskQueueArraySize                                obj/main/SPRACINGF3/fc/fc_tasks.o (symbol from plugin)
                                                  obj/main/SPRACINGF3/scheduler/scheduler.o (symbol from plugin)
taskQueuePos.lto_priv.236                         /var/folders/qz/8dvj07d52mjgthd1ds8wvf400000gn/T//ccg5ycur.ltrans7.ltrans.o
                                                  /var/folders/qz/8dvj07d52mjgthd1ds8wvf400000gn/T//ccg5ycur.ltrans0.ltrans.o
taskQueueSize.lto_priv.119                        /var/folders/qz/8dvj07d52mjgthd1ds8wvf400000gn/T//ccg5ycur.ltrans7.ltrans.o
                                                  /var/folders/qz/8dvj07d52mjgthd1ds8wvf400000gn/T//ccg5ycur.ltrans16.ltrans.o
                                                  /var/folders/qz/8dvj07d52mjgthd1ds8wvf400000gn/T//ccg5ycur.ltrans0.ltrans.o
taskSystem                                        obj/main/SPRACINGF3/scheduler/scheduler.o (symbol from plugin)
                                                  obj/main/SPRACINGF3/fc/fc_tasks.o (symbol from plugin)
taskUpdateAccelerometer                           /var/folders/qz/8dvj07d52mjgthd1ds8wvf400000gn/T//ccg5ycur.ltrans12.ltrans.o
                                                  obj/main/SPRACINGF3/fc/cleanflight_fc.o (symbol from plugin)
                                                  /var/folders/qz/8dvj07d52mjgthd1ds8wvf400000gn/T//ccg5ycur.ltrans7.ltrans.o
                                                  obj/main/SPRACINGF3/fc/fc_tasks.o (symbol from plugin)
taskUpdateBaro                                    /var/folders/qz/8dvj07d52mjgthd1ds8wvf400000gn/T//ccg5ycur.ltrans19.ltrans.o
                                                  obj/main/SPRACINGF3/fc/cleanflight_fc.o (symbol from plugin)
                                                  /var/folders/qz/8dvj07d52mjgthd1ds8wvf400000gn/T//ccg5ycur.ltrans7.ltrans.o
                                                  obj/main/SPRACINGF3/fc/fc_tasks.o (symbol from plugin)
taskUpdateBattery                                 /var/folders/qz/8dvj07d52mjgthd1ds8wvf400000gn/T//ccg5ycur.ltrans12.ltrans.o
                                                  obj/main/SPRACINGF3/fc/cleanflight_fc.o (symbol from plugin)
                                                  /var/folders/qz/8dvj07d52mjgthd1ds8wvf400000gn/T//ccg5ycur.ltrans7.ltrans.o
                                                  obj/main/SPRACINGF3/fc/fc_tasks.o (symbol from plugin)
taskUpdateRxCheck                                 /var/folders/qz/8dvj07d52mjgthd1ds8wvf400000gn/T//ccg5ycur.ltrans12.ltrans.o
                                                  obj/main/SPRACINGF3/fc/cleanflight_fc.o (symbol from plugin)
                                                  /var/folders/qz/8dvj07d52mjgthd1ds8wvf400000gn/T//ccg5ycur.ltrans7.ltrans.o
                                                  obj/main/SPRACINGF3/fc/fc_tasks.o (symbol from plugin)
taskUpdateRxMain                                  /var/folders/qz/8dvj07d52mjgthd1ds8wvf400000gn/T//ccg5ycur.ltrans2.ltrans.o
                                                  obj/main/SPRACINGF3/fc/cleanflight_fc.o (symbol from plugin)
                                                  /var/folders/qz/8dvj07d52mjgthd1ds8wvf400000gn/T//ccg5ycur.ltrans7.ltrans.o
                                                  obj/main/SPRACINGF3/fc/fc_tasks.o (symbol from plugin)
telemTemperature1                                 obj/main/SPRACINGF3/fc/cleanflight_fc.o (symbol from plugin)
tfp_format                                        obj/main/SPRACINGF3/common/printf.o (symbol from plugin)
                                                  obj/main/SPRACINGF3/io/serial_cli.o (symbol from plugin)
tfp_printf                                        obj/main/SPRACINGF3/common/printf.o (symbol from plugin)
tfp_sprintf                                       obj/main/SPRACINGF3/common/printf.o (symbol from plugin)
throttleAngleScale                                /var/folders/qz/8dvj07d52mjgthd1ds8wvf400000gn/T//ccg5ycur.ltrans8.ltrans.o
                                                  obj/main/SPRACINGF3/flight/imu.o (symbol from plugin)
                                                  /var/folders/qz/8dvj07d52mjgthd1ds8wvf400000gn/T//ccg5ycur.ltrans4.ltrans.o
throttleCorrectionConfig_ProfileCurrent           /var/folders/qz/8dvj07d52mjgthd1ds8wvf400000gn/T//ccg5ycur.ltrans8.ltrans.o
                                                  obj/main/SPRACINGF3/flight/imu.o (symbol from plugin)
                                                  /var/folders/qz/8dvj07d52mjgthd1ds8wvf400000gn/T//ccg5ycur.ltrans4.ltrans.o
                                                  obj/main/SPRACINGF3/fc/config.o (symbol from plugin)
                                                  obj/main/SPRACINGF3/fc/cleanflight_fc.o (symbol from plugin)
throttleCorrectionConfig_Registry                 /var/folders/qz/8dvj07d52mjgthd1ds8wvf400000gn/T//ccg5ycur.ltrans8.ltrans.o
                                                  obj/main/SPRACINGF3/flight/imu.o (symbol from plugin)
timerChCCHandlerInit                              obj/main/SPRACINGF3/drivers/timer.o (symbol from plugin)
                                                  obj/main/SPRACINGF3/drivers/serial_softserial.o (symbol from plugin)
                                                  obj/main/SPRACINGF3/drivers/pwm_rx.o (symbol from plugin)
timerChCCR                                        obj/main/SPRACINGF3/drivers/timer.o (symbol from plugin)
timerChCCRHi                                      obj/main/SPRACINGF3/drivers/timer.o (symbol from plugin)
timerChCCRLo                                      obj/main/SPRACINGF3/drivers/timer.o (symbol from plugin)
timerChClearCCFlag                                obj/main/SPRACINGF3/drivers/timer.o (symbol from plugin)
timerChConfigCallbacks                            /var/folders/qz/8dvj07d52mjgthd1ds8wvf400000gn/T//ccg5ycur.ltrans3.ltrans.o
                                                  obj/main/SPRACINGF3/drivers/timer.o (symbol from plugin)
                                                  /var/folders/qz/8dvj07d52mjgthd1ds8wvf400000gn/T//ccg5ycur.ltrans10.ltrans.o
                                                  /var/folders/qz/8dvj07d52mjgthd1ds8wvf400000gn/T//ccg5ycur.ltrans0.ltrans.o
                                                  obj/main/SPRACINGF3/drivers/serial_softserial.o (symbol from plugin)
                                                  obj/main/SPRACINGF3/drivers/pwm_rx.o (symbol from plugin)
timerChConfigCallbacksDual                        obj/main/SPRACINGF3/drivers/timer.o (symbol from plugin)
timerChConfigGPIO                                 obj/main/SPRACINGF3/drivers/timer.o (symbol from plugin)
timerChConfigIC                                   obj/main/SPRACINGF3/drivers/timer.o (symbol from plugin)
timerChConfigICDual                               obj/main/SPRACINGF3/drivers/timer.o (symbol from plugin)
timerChConfigOC                                   obj/main/SPRACINGF3/drivers/timer.o (symbol from plugin)
timerChICPolarity                                 obj/main/SPRACINGF3/drivers/timer.o (symbol from plugin)
timerChITConfig                                   obj/main/SPRACINGF3/drivers/timer.o (symbol from plugin)
timerChITConfigDualLo                             obj/main/SPRACINGF3/drivers/timer.o (symbol from plugin)
timerChInit                                       obj/main/SPRACINGF3/drivers/timer.o (symbol from plugin)
timerChOvrHandlerInit                             obj/main/SPRACINGF3/drivers/timer.o (symbol from plugin)
                                                  obj/main/SPRACINGF3/drivers/pwm_rx.o (symbol from plugin)
timerChannelInfo                                  obj/main/SPRACINGF3/drivers/timer.o (symbol from plugin)
timerConfig                                       /var/folders/qz/8dvj07d52mjgthd1ds8wvf400000gn/T//ccg5ycur.ltrans6.ltrans.o
                                                  obj/main/SPRACINGF3/drivers/timer.o (symbol from plugin)
                                                  /var/folders/qz/8dvj07d52mjgthd1ds8wvf400000gn/T//ccg5ycur.ltrans3.ltrans.o
                                                  /var/folders/qz/8dvj07d52mjgthd1ds8wvf400000gn/T//ccg5ycur.ltrans0.ltrans.o
timerConfigure                                    /var/folders/qz/8dvj07d52mjgthd1ds8wvf400000gn/T//ccg5ycur.ltrans3.ltrans.o
                                                  obj/main/SPRACINGF3/drivers/timer.o (symbol from plugin)
                                                  /var/folders/qz/8dvj07d52mjgthd1ds8wvf400000gn/T//ccg5ycur.ltrans10.ltrans.o
                                                  /var/folders/qz/8dvj07d52mjgthd1ds8wvf400000gn/T//ccg5ycur.ltrans0.ltrans.o
                                                  obj/main/SPRACINGF3/drivers/serial_softserial.o (symbol from plugin)
                                                  obj/main/SPRACINGF3/drivers/pwm_rx.o (symbol from plugin)
timerForceOverflow                                obj/main/SPRACINGF3/drivers/timer.o (symbol from plugin)
                                                  obj/main/SPRACINGF3/drivers/pwm_output.o (symbol from plugin)
timerHardware                                     /var/folders/qz/8dvj07d52mjgthd1ds8wvf400000gn/T//ccg5ycur.ltrans0.ltrans.o
                                                  obj/main/SPRACINGF3/drivers/timer.o (symbol from plugin)
                                                  /var/folders/qz/8dvj07d52mjgthd1ds8wvf400000gn/T//ccg5ycur.ltrans10.ltrans.o
                                                  obj/main/SPRACINGF3/drivers/serial_softserial.o (symbol from plugin)
                                                  obj/main/SPRACINGF3/drivers/pwm_mapping.o (symbol from plugin)
timerInfo                                         obj/main/SPRACINGF3/drivers/timer.o (symbol from plugin)
timerInit                                         obj/main/SPRACINGF3/drivers/timer.o (symbol from plugin)
                                                  obj/main/SPRACINGF3/fc/boot.o (symbol from plugin)
timerNVICConfigure                                obj/main/SPRACINGF3/drivers/timer.o (symbol from plugin)
timerStart                                        obj/main/SPRACINGF3/drivers/timer.o (symbol from plugin)
                                                  obj/main/SPRACINGF3/fc/boot.o (symbol from plugin)
totalWaitingTasks.lto_priv.239                    /var/folders/qz/8dvj07d52mjgthd1ds8wvf400000gn/T//ccg5ycur.ltrans7.ltrans.o
                                                  /var/folders/qz/8dvj07d52mjgthd1ds8wvf400000gn/T//ccg5ycur.ltrans0.ltrans.o
totalWaitingTasksSamples.lto_priv.238             /var/folders/qz/8dvj07d52mjgthd1ds8wvf400000gn/T//ccg5ycur.ltrans7.ltrans.o
                                                  /var/folders/qz/8dvj07d52mjgthd1ds8wvf400000gn/T//ccg5ycur.ltrans0.ltrans.o
uartOpen                                          obj/main/SPRACINGF3/drivers/serial_uart.o (symbol from plugin)
                                                  obj/main/SPRACINGF3/drivers/app.o (symbol from plugin)
                                                  obj/main/SPRACINGF3/io/serial.o (symbol from plugin)
uartOpen.constprop.65                             /var/folders/qz/8dvj07d52mjgthd1ds8wvf400000gn/T//ccg5ycur.ltrans9.ltrans.o
                                                  /var/folders/qz/8dvj07d52mjgthd1ds8wvf400000gn/T//ccg5ycur.ltrans0.ltrans.o
uartPort1.lto_priv.275                            /var/folders/qz/8dvj07d52mjgthd1ds8wvf400000gn/T//ccg5ycur.ltrans9.ltrans.o
                                                  /var/folders/qz/8dvj07d52mjgthd1ds8wvf400000gn/T//ccg5ycur.ltrans3.ltrans.o
uartPort2.lto_priv.274                            /var/folders/qz/8dvj07d52mjgthd1ds8wvf400000gn/T//ccg5ycur.ltrans9.ltrans.o
                                                  /var/folders/qz/8dvj07d52mjgthd1ds8wvf400000gn/T//ccg5ycur.ltrans3.ltrans.o
uartPort3.lto_priv.273                            /var/folders/qz/8dvj07d52mjgthd1ds8wvf400000gn/T//ccg5ycur.ltrans9.ltrans.o
                                                  /var/folders/qz/8dvj07d52mjgthd1ds8wvf400000gn/T//ccg5ycur.ltrans3.ltrans.o
uartRead                                          /var/folders/qz/8dvj07d52mjgthd1ds8wvf400000gn/T//ccg5ycur.ltrans3.ltrans.o
                                                  obj/main/SPRACINGF3/drivers/serial_uart.o (symbol from plugin)
                                                  /var/folders/qz/8dvj07d52mjgthd1ds8wvf400000gn/T//ccg5ycur.ltrans9.ltrans.o
uartReconfigure.lto_priv.109                      /var/folders/qz/8dvj07d52mjgthd1ds8wvf400000gn/T//ccg5ycur.ltrans3.ltrans.o
                                                  /var/folders/qz/8dvj07d52mjgthd1ds8wvf400000gn/T//ccg5ycur.ltrans9.ltrans.o
uartSetBaudRate                                   /var/folders/qz/8dvj07d52mjgthd1ds8wvf400000gn/T//ccg5ycur.ltrans3.ltrans.o
                                                  obj/main/SPRACINGF3/drivers/serial_uart.o (symbol from plugin)
                                                  /var/folders/qz/8dvj07d52mjgthd1ds8wvf400000gn/T//ccg5ycur.ltrans9.ltrans.o
uartSetMode                                       /var/folders/qz/8dvj07d52mjgthd1ds8wvf400000gn/T//ccg5ycur.ltrans3.ltrans.o
                                                  obj/main/SPRACINGF3/drivers/serial_uart.o (symbol from plugin)
                                                  /var/folders/qz/8dvj07d52mjgthd1ds8wvf400000gn/T//ccg5ycur.ltrans9.ltrans.o
uartStartTxDMA                                    obj/main/SPRACINGF3/drivers/serial_uart.o (symbol from plugin)
                                                  obj/main/SPRACINGF3/drivers/serial_uart_stm32f30x.o (symbol from plugin)
uartTotalRxBytesWaiting                           /var/folders/qz/8dvj07d52mjgthd1ds8wvf400000gn/T//ccg5ycur.ltrans3.ltrans.o
                                                  obj/main/SPRACINGF3/drivers/serial_uart.o (symbol from plugin)
                                                  /var/folders/qz/8dvj07d52mjgthd1ds8wvf400000gn/T//ccg5ycur.ltrans9.ltrans.o
uartTotalTxBytesFree                              /var/folders/qz/8dvj07d52mjgthd1ds8wvf400000gn/T//ccg5ycur.ltrans3.ltrans.o
                                                  obj/main/SPRACINGF3/drivers/serial_uart.o (symbol from plugin)
                                                  /var/folders/qz/8dvj07d52mjgthd1ds8wvf400000gn/T//ccg5ycur.ltrans9.ltrans.o
uartVTable                                        obj/main/SPRACINGF3/drivers/serial_uart.o (symbol from plugin)
                                                  obj/main/SPRACINGF3/drivers/serial_uart_stm32f30x.o (symbol from plugin)
uartWrite                                         /var/folders/qz/8dvj07d52mjgthd1ds8wvf400000gn/T//ccg5ycur.ltrans3.ltrans.o
                                                  obj/main/SPRACINGF3/drivers/serial_uart.o (symbol from plugin)
                                                  /var/folders/qz/8dvj07d52mjgthd1ds8wvf400000gn/T//ccg5ycur.ltrans9.ltrans.o
ug2864hsweg01InitI2C                              obj/main/SPRACINGF3/drivers/display_ug2864hsweg01.o (symbol from plugin)
ui2a                                              /var/folders/qz/8dvj07d52mjgthd1ds8wvf400000gn/T//ccg5ycur.ltrans7.ltrans.o
                                                  obj/main/SPRACINGF3/common/typeconversion.o (symbol from plugin)
                                                  /var/folders/qz/8dvj07d52mjgthd1ds8wvf400000gn/T//ccg5ycur.ltrans14.ltrans.o
                                                  obj/main/SPRACINGF3/common/printf.o (symbol from plugin)
uli2a                                             /var/folders/qz/8dvj07d52mjgthd1ds8wvf400000gn/T//ccg5ycur.ltrans7.ltrans.o
                                                  obj/main/SPRACINGF3/common/typeconversion.o (symbol from plugin)
                                                  /var/folders/qz/8dvj07d52mjgthd1ds8wvf400000gn/T//ccg5ycur.ltrans14.ltrans.o
                                                  obj/main/SPRACINGF3/common/printf.o (symbol from plugin)
updateAccelerationReadings                        obj/main/SPRACINGF3/sensors/acceleration.o (symbol from plugin)
                                                  obj/main/SPRACINGF3/flight/imu.o (symbol from plugin)
updateAdjustmentStates                            obj/main/SPRACINGF3/fc/rc_adjustments.o (symbol from plugin)
                                                  obj/main/SPRACINGF3/fc/cleanflight_fc.o (symbol from plugin)
updateAltHoldState                                obj/main/SPRACINGF3/flight/altitudehold.o (symbol from plugin)
                                                  obj/main/SPRACINGF3/fc/cleanflight_fc.o (symbol from plugin)
updateBattery                                     obj/main/SPRACINGF3/sensors/battery.o (symbol from plugin)
                                                  obj/main/SPRACINGF3/fc/cleanflight_fc.o (symbol from plugin)
updateBatteryVoltage.lto_priv.218                 /var/folders/qz/8dvj07d52mjgthd1ds8wvf400000gn/T//ccg5ycur.ltrans16.ltrans.o
                                                  /var/folders/qz/8dvj07d52mjgthd1ds8wvf400000gn/T//ccg5ycur.ltrans12.ltrans.o
updateCurrentMeter                                obj/main/SPRACINGF3/sensors/battery.o (symbol from plugin)
                                                  obj/main/SPRACINGF3/fc/cleanflight_fc.o (symbol from plugin)
updateInflightCalibrationState                    obj/main/SPRACINGF3/fc/cleanflight_fc.o (symbol from plugin)
updateMagHold                                     obj/main/SPRACINGF3/fc/cleanflight_fc.o (symbol from plugin)
updateRSSI                                        obj/main/SPRACINGF3/rx/rx.o (symbol from plugin)
                                                  obj/main/SPRACINGF3/fc/cleanflight_fc.o (symbol from plugin)
updateRSSIADC                                     obj/main/SPRACINGF3/rx/rx.o (symbol from plugin)
updateRSSIPWM                                     obj/main/SPRACINGF3/rx/rx.o (symbol from plugin)
updateRx                                          obj/main/SPRACINGF3/rx/rx.o (symbol from plugin)
                                                  obj/main/SPRACINGF3/fc/cleanflight_fc.o (symbol from plugin)
updateSonarAltHoldState                           obj/main/SPRACINGF3/flight/altitudehold.o (symbol from plugin)
updateVirtualCurrentMeter                         obj/main/SPRACINGF3/sensors/battery.o (symbol from plugin)
                                                  obj/main/SPRACINGF3/fc/cleanflight_fc.o (symbol from plugin)
usTicks.lto_priv.265                              /var/folders/qz/8dvj07d52mjgthd1ds8wvf400000gn/T//ccg5ycur.ltrans7.ltrans.o
                                                  /var/folders/qz/8dvj07d52mjgthd1ds8wvf400000gn/T//ccg5ycur.ltrans0.ltrans.o
usartInitAllIOSignals                             obj/main/SPRACINGF3/drivers/serial_uart.o (symbol from plugin)
                                                  obj/main/SPRACINGF3/drivers/system.o (symbol from plugin)
usartIrqHandler                                   obj/main/SPRACINGF3/drivers/serial_uart_stm32f30x.o (symbol from plugin)
useFailsafeConfig                                 obj/main/SPRACINGF3/flight/failsafe.o (symbol from plugin)
                                                  obj/main/SPRACINGF3/fc/config.o (symbol from plugin)
useRcControlsConfig                               obj/main/SPRACINGF3/fc/rc_controls.o (symbol from plugin)
                                                  obj/main/SPRACINGF3/fc/msp_server_fc.o (symbol from plugin)
                                                  obj/main/SPRACINGF3/fc/config.o (symbol from plugin)
usedTimers                                        obj/main/SPRACINGF3/drivers/timer.o (symbol from plugin)
valueTable                                        /var/folders/qz/8dvj07d52mjgthd1ds8wvf400000gn/T//ccg5ycur.ltrans16.ltrans.o
                                                  obj/main/SPRACINGF3/io/serial_cli.o (symbol from plugin)
                                                  /var/folders/qz/8dvj07d52mjgthd1ds8wvf400000gn/T//ccg5ycur.ltrans5.ltrans.o
vario                                             /var/folders/qz/8dvj07d52mjgthd1ds8wvf400000gn/T//ccg5ycur.ltrans1.ltrans.o
                                                  obj/main/SPRACINGF3/flight/altitudehold.o (symbol from plugin)
                                                  /var/folders/qz/8dvj07d52mjgthd1ds8wvf400000gn/T//ccg5ycur.ltrans8.ltrans.o
                                                  obj/main/SPRACINGF3/fc/msp_server_fc.o (symbol from plugin)
vbat                                              /var/folders/qz/8dvj07d52mjgthd1ds8wvf400000gn/T//ccg5ycur.ltrans1.ltrans.o
                                                  obj/main/SPRACINGF3/sensors/battery.o (symbol from plugin)
                                                  /var/folders/qz/8dvj07d52mjgthd1ds8wvf400000gn/T//ccg5ycur.ltrans16.ltrans.o
                                                  /var/folders/qz/8dvj07d52mjgthd1ds8wvf400000gn/T//ccg5ycur.ltrans12.ltrans.o
                                                  obj/main/SPRACINGF3/io/serial_cli.o (symbol from plugin)
                                                  obj/main/SPRACINGF3/fc/msp_server_fc.o (symbol from plugin)
vbatFilterState.lto_priv.242                      /var/folders/qz/8dvj07d52mjgthd1ds8wvf400000gn/T//ccg5ycur.ltrans16.ltrans.o
                                                  /var/folders/qz/8dvj07d52mjgthd1ds8wvf400000gn/T//ccg5ycur.ltrans0.ltrans.o
vbatLatestADC                                     /var/folders/qz/8dvj07d52mjgthd1ds8wvf400000gn/T//ccg5ycur.ltrans16.ltrans.o
                                                  obj/main/SPRACINGF3/sensors/battery.o (symbol from plugin)
                                                  /var/folders/qz/8dvj07d52mjgthd1ds8wvf400000gn/T//ccg5ycur.ltrans12.ltrans.o
velocityControl                                   /var/folders/qz/8dvj07d52mjgthd1ds8wvf400000gn/T//ccg5ycur.ltrans8.ltrans.o
                                                  obj/main/SPRACINGF3/flight/altitudehold.o (symbol from plugin)
                                                  /var/folders/qz/8dvj07d52mjgthd1ds8wvf400000gn/T//ccg5ycur.ltrans4.ltrans.o
waitForSerialPortToFinishTransmitting             /var/folders/qz/8dvj07d52mjgthd1ds8wvf400000gn/T//ccg5ycur.ltrans7.ltrans.o
                                                  obj/main/SPRACINGF3/io/serial.o (symbol from plugin)
                                                  /var/folders/qz/8dvj07d52mjgthd1ds8wvf400000gn/T//ccg5ycur.ltrans14.ltrans.o
                                                  /var/folders/qz/8dvj07d52mjgthd1ds8wvf400000gn/T//ccg5ycur.ltrans6.ltrans.o
                                                  obj/main/SPRACINGF3/io/serial_cli.o (symbol from plugin)
                                                  obj/main/SPRACINGF3/fc/msp_server_fc.o (symbol from plugin)
warningLedBeeper                                  obj/main/SPRACINGF3/io/statusindicator.o (symbol from plugin)
warningLedCode                                    obj/main/SPRACINGF3/io/statusindicator.o (symbol from plugin)
warningLedPulse                                   obj/main/SPRACINGF3/io/statusindicator.o (symbol from plugin)
warningLedRefresh                                 obj/main/SPRACINGF3/io/statusindicator.o (symbol from plugin)
warningLedSetBlinkMask                            obj/main/SPRACINGF3/io/statusindicator.o (symbol from plugin)
                                                  obj/main/SPRACINGF3/fc/cleanflight_fc.o (symbol from plugin)
warningLedUpdate                                  obj/main/SPRACINGF3/io/statusindicator.o (symbol from plugin)
                                                  obj/main/SPRACINGF3/fc/cleanflight_fc.o (symbol from plugin)
wifi_uart_init                                    obj/main/SPRACINGF3/drivers/app.o (symbol from plugin)
                                                  obj/main/SPRACINGF3/fc/boot.o (symbol from plugin)
writeAllMotors                                    obj/main/SPRACINGF3/flight/mixer.o (symbol from plugin)
writeByteCrc.lto_priv.164                         /var/folders/qz/8dvj07d52mjgthd1ds8wvf400000gn/T//ccg5ycur.ltrans6.ltrans.o
                                                  /var/folders/qz/8dvj07d52mjgthd1ds8wvf400000gn/T//ccg5ycur.ltrans13.ltrans.o
writeConfigToEEPROM                               obj/main/SPRACINGF3/config/config_eeprom.o (symbol from plugin)
                                                  obj/main/SPRACINGF3/fc/config.o (symbol from plugin)
writeEEPROM                                       /var/folders/qz/8dvj07d52mjgthd1ds8wvf400000gn/T//ccg5ycur.ltrans8.ltrans.o
                                                  obj/main/SPRACINGF3/fc/config.o (symbol from plugin)
                                                  /var/folders/qz/8dvj07d52mjgthd1ds8wvf400000gn/T//ccg5ycur.ltrans14.ltrans.o
                                                  /var/folders/qz/8dvj07d52mjgthd1ds8wvf400000gn/T//ccg5ycur.ltrans12.ltrans.o
                                                  /var/folders/qz/8dvj07d52mjgthd1ds8wvf400000gn/T//ccg5ycur.ltrans2.ltrans.o
                                                  /var/folders/qz/8dvj07d52mjgthd1ds8wvf400000gn/T//ccg5ycur.ltrans1.ltrans.o
                                                  /var/folders/qz/8dvj07d52mjgthd1ds8wvf400000gn/T//ccg5ycur.ltrans0.ltrans.o
                                                  obj/main/SPRACINGF3/io/serial_cli.o (symbol from plugin)
                                                  obj/main/SPRACINGF3/fc/msp_server_fc.o (symbol from plugin)
writeMotors                                       /var/folders/qz/8dvj07d52mjgthd1ds8wvf400000gn/T//ccg5ycur.ltrans6.ltrans.o
                                                  obj/main/SPRACINGF3/flight/mixer.o (symbol from plugin)
                                                  /var/folders/qz/8dvj07d52mjgthd1ds8wvf400000gn/T//ccg5ycur.ltrans4.ltrans.o
                                                  obj/main/SPRACINGF3/fc/cleanflight_fc.o (symbol from plugin)
write_word.lto_priv.189                           /var/folders/qz/8dvj07d52mjgthd1ds8wvf400000gn/T//ccg5ycur.ltrans7.ltrans.o
                                                  /var/folders/qz/8dvj07d52mjgthd1ds8wvf400000gn/T//ccg5ycur.ltrans8.ltrans.o
ws2811DMAHandler                                  obj/main/SPRACINGF3/drivers/light_ws2811strip.o (symbol from plugin)
ws2811LedDataTransferInProgress                   obj/main/SPRACINGF3/drivers/light_ws2811strip.o (symbol from plugin)
ws2811LedStripDMAEnable                           obj/main/SPRACINGF3/drivers/light_ws2811strip_stm32f30x.o (symbol from plugin)
                                                  obj/main/SPRACINGF3/drivers/light_ws2811strip.o (symbol from plugin)
ws2811LedStripHardwareInit                        obj/main/SPRACINGF3/drivers/light_ws2811strip_stm32f30x.o (symbol from plugin)
                                                  obj/main/SPRACINGF3/drivers/light_ws2811strip.o (symbol from plugin)
ws2811LedStripInit                                obj/main/SPRACINGF3/drivers/light_ws2811strip.o (symbol from plugin)
ws2811UpdateStrip                                 obj/main/SPRACINGF3/drivers/light_ws2811strip.o (symbol from plugin)
                                                  obj/main/SPRACINGF3/drivers/light_ws2811strip_stm32f30x.o (symbol from plugin)
xBusCRC8                                          obj/main/SPRACINGF3/rx/xbus.o (symbol from plugin)
xBusFrameStatus                                   obj/main/SPRACINGF3/rx/xbus.o (symbol from plugin)
xBusInit                                          obj/main/SPRACINGF3/rx/xbus.o (symbol from plugin)
yawFilter                                         obj/main/SPRACINGF3/flight/pid.o (symbol from plugin)
                                                  obj/main/SPRACINGF3/flight/pid_mwrewrite.o (symbol from plugin)
                                                  obj/main/SPRACINGF3/flight/pid_luxfloat.o (symbol from plugin)
zigzagEncode                                      obj/main/SPRACINGF3/common/encoding.o (symbol from plugin)
